
nucleo-l432kc-tflite-sine-test.elf:     file format elf32-littlearm

Sections:
Idx Name          Size      VMA       LMA       File off  Algn
  0 .isr_vector   0000018c  08000000  08000000  00010000  2**0
                  CONTENTS, ALLOC, LOAD, READONLY, DATA
  1 .text         0000852c  08000190  08000190  00010190  2**4
                  CONTENTS, ALLOC, LOAD, READONLY, CODE
  2 .rodata       00002084  080086c0  080086c0  000186c0  2**3
                  CONTENTS, ALLOC, LOAD, READONLY, DATA
  3 .ARM.extab    00000000  0800a744  0800a744  00020d94  2**0
                  CONTENTS
  4 .ARM          00000008  0800a744  0800a744  0001a744  2**2
                  CONTENTS, ALLOC, LOAD, READONLY, DATA
  5 .preinit_array 00000000  0800a74c  0800a74c  00020d94  2**0
                  CONTENTS, ALLOC, LOAD, DATA
  6 .init_array   00000004  0800a74c  0800a74c  0001a74c  2**2
                  CONTENTS, ALLOC, LOAD, DATA
  7 .fini_array   00000004  0800a750  0800a750  0001a750  2**2
                  CONTENTS, ALLOC, LOAD, DATA
  8 .data         00000d94  20000000  0800a754  00020000  2**2
                  CONTENTS, ALLOC, LOAD, DATA
  9 .bss          00000a98  20000da0  0800b4e8  00020da0  2**4
                  ALLOC
 10 ._user_heap_stack 00000600  20001838  0800b4e8  00021838  2**0
                  ALLOC
 11 .ARM.attributes 00000030  00000000  00000000  00020d94  2**0
                  CONTENTS, READONLY
 12 .comment      00000053  00000000  00000000  00020dc4  2**0
                  CONTENTS, READONLY
 13 .debug_frame  00001578  00000000  00000000  00020e18  2**2
                  CONTENTS, READONLY, DEBUGGING, OCTETS

Disassembly of section .text:

08000190 <__do_global_dtors_aux>:
 8000190:	b510      	push	{r4, lr}
 8000192:	4c05      	ldr	r4, [pc, #20]	; (80001a8 <__do_global_dtors_aux+0x18>)
 8000194:	7823      	ldrb	r3, [r4, #0]
 8000196:	b933      	cbnz	r3, 80001a6 <__do_global_dtors_aux+0x16>
 8000198:	4b04      	ldr	r3, [pc, #16]	; (80001ac <__do_global_dtors_aux+0x1c>)
 800019a:	b113      	cbz	r3, 80001a2 <__do_global_dtors_aux+0x12>
 800019c:	4804      	ldr	r0, [pc, #16]	; (80001b0 <__do_global_dtors_aux+0x20>)
 800019e:	f3af 8000 	nop.w
 80001a2:	2301      	movs	r3, #1
 80001a4:	7023      	strb	r3, [r4, #0]
 80001a6:	bd10      	pop	{r4, pc}
 80001a8:	20000da0 	.word	0x20000da0
 80001ac:	00000000 	.word	0x00000000
 80001b0:	080086a4 	.word	0x080086a4

080001b4 <frame_dummy>:
 80001b4:	b508      	push	{r3, lr}
 80001b6:	4b03      	ldr	r3, [pc, #12]	; (80001c4 <frame_dummy+0x10>)
 80001b8:	b11b      	cbz	r3, 80001c2 <frame_dummy+0xe>
 80001ba:	4903      	ldr	r1, [pc, #12]	; (80001c8 <frame_dummy+0x14>)
 80001bc:	4803      	ldr	r0, [pc, #12]	; (80001cc <frame_dummy+0x18>)
 80001be:	f3af 8000 	nop.w
 80001c2:	bd08      	pop	{r3, pc}
 80001c4:	00000000 	.word	0x00000000
 80001c8:	20000da4 	.word	0x20000da4
 80001cc:	080086a4 	.word	0x080086a4

080001d0 <strcmp>:
 80001d0:	f810 2b01 	ldrb.w	r2, [r0], #1
 80001d4:	f811 3b01 	ldrb.w	r3, [r1], #1
 80001d8:	2a01      	cmp	r2, #1
 80001da:	bf28      	it	cs
 80001dc:	429a      	cmpcs	r2, r3
 80001de:	d0f7      	beq.n	80001d0 <strcmp>
 80001e0:	1ad0      	subs	r0, r2, r3
 80001e2:	4770      	bx	lr

080001e4 <strlen>:
 80001e4:	4603      	mov	r3, r0
 80001e6:	f813 2b01 	ldrb.w	r2, [r3], #1
 80001ea:	2a00      	cmp	r2, #0
 80001ec:	d1fb      	bne.n	80001e6 <strlen+0x2>
 80001ee:	1a18      	subs	r0, r3, r0
 80001f0:	3801      	subs	r0, #1
 80001f2:	4770      	bx	lr
	...

08000200 <memchr>:
 8000200:	f001 01ff 	and.w	r1, r1, #255	; 0xff
 8000204:	2a10      	cmp	r2, #16
 8000206:	db2b      	blt.n	8000260 <memchr+0x60>
 8000208:	f010 0f07 	tst.w	r0, #7
 800020c:	d008      	beq.n	8000220 <memchr+0x20>
 800020e:	f810 3b01 	ldrb.w	r3, [r0], #1
 8000212:	3a01      	subs	r2, #1
 8000214:	428b      	cmp	r3, r1
 8000216:	d02d      	beq.n	8000274 <memchr+0x74>
 8000218:	f010 0f07 	tst.w	r0, #7
 800021c:	b342      	cbz	r2, 8000270 <memchr+0x70>
 800021e:	d1f6      	bne.n	800020e <memchr+0xe>
 8000220:	b4f0      	push	{r4, r5, r6, r7}
 8000222:	ea41 2101 	orr.w	r1, r1, r1, lsl #8
 8000226:	ea41 4101 	orr.w	r1, r1, r1, lsl #16
 800022a:	f022 0407 	bic.w	r4, r2, #7
 800022e:	f07f 0700 	mvns.w	r7, #0
 8000232:	2300      	movs	r3, #0
 8000234:	e8f0 5602 	ldrd	r5, r6, [r0], #8
 8000238:	3c08      	subs	r4, #8
 800023a:	ea85 0501 	eor.w	r5, r5, r1
 800023e:	ea86 0601 	eor.w	r6, r6, r1
 8000242:	fa85 f547 	uadd8	r5, r5, r7
 8000246:	faa3 f587 	sel	r5, r3, r7
 800024a:	fa86 f647 	uadd8	r6, r6, r7
 800024e:	faa5 f687 	sel	r6, r5, r7
 8000252:	b98e      	cbnz	r6, 8000278 <memchr+0x78>
 8000254:	d1ee      	bne.n	8000234 <memchr+0x34>
 8000256:	bcf0      	pop	{r4, r5, r6, r7}
 8000258:	f001 01ff 	and.w	r1, r1, #255	; 0xff
 800025c:	f002 0207 	and.w	r2, r2, #7
 8000260:	b132      	cbz	r2, 8000270 <memchr+0x70>
 8000262:	f810 3b01 	ldrb.w	r3, [r0], #1
 8000266:	3a01      	subs	r2, #1
 8000268:	ea83 0301 	eor.w	r3, r3, r1
 800026c:	b113      	cbz	r3, 8000274 <memchr+0x74>
 800026e:	d1f8      	bne.n	8000262 <memchr+0x62>
 8000270:	2000      	movs	r0, #0
 8000272:	4770      	bx	lr
 8000274:	3801      	subs	r0, #1
 8000276:	4770      	bx	lr
 8000278:	2d00      	cmp	r5, #0
 800027a:	bf06      	itte	eq
 800027c:	4635      	moveq	r5, r6
 800027e:	3803      	subeq	r0, #3
 8000280:	3807      	subne	r0, #7
 8000282:	f015 0f01 	tst.w	r5, #1
 8000286:	d107      	bne.n	8000298 <memchr+0x98>
 8000288:	3001      	adds	r0, #1
 800028a:	f415 7f80 	tst.w	r5, #256	; 0x100
 800028e:	bf02      	ittt	eq
 8000290:	3001      	addeq	r0, #1
 8000292:	f415 3fc0 	tsteq.w	r5, #98304	; 0x18000
 8000296:	3001      	addeq	r0, #1
 8000298:	bcf0      	pop	{r4, r5, r6, r7}
 800029a:	3801      	subs	r0, #1
 800029c:	4770      	bx	lr
 800029e:	bf00      	nop

080002a0 <__aeabi_drsub>:
 80002a0:	f081 4100 	eor.w	r1, r1, #2147483648	; 0x80000000
 80002a4:	e002      	b.n	80002ac <__adddf3>
 80002a6:	bf00      	nop

080002a8 <__aeabi_dsub>:
 80002a8:	f083 4300 	eor.w	r3, r3, #2147483648	; 0x80000000

080002ac <__adddf3>:
 80002ac:	b530      	push	{r4, r5, lr}
 80002ae:	ea4f 0441 	mov.w	r4, r1, lsl #1
 80002b2:	ea4f 0543 	mov.w	r5, r3, lsl #1
 80002b6:	ea94 0f05 	teq	r4, r5
 80002ba:	bf08      	it	eq
 80002bc:	ea90 0f02 	teqeq	r0, r2
 80002c0:	bf1f      	itttt	ne
 80002c2:	ea54 0c00 	orrsne.w	ip, r4, r0
 80002c6:	ea55 0c02 	orrsne.w	ip, r5, r2
 80002ca:	ea7f 5c64 	mvnsne.w	ip, r4, asr #21
 80002ce:	ea7f 5c65 	mvnsne.w	ip, r5, asr #21
 80002d2:	f000 80e2 	beq.w	800049a <__adddf3+0x1ee>
 80002d6:	ea4f 5454 	mov.w	r4, r4, lsr #21
 80002da:	ebd4 5555 	rsbs	r5, r4, r5, lsr #21
 80002de:	bfb8      	it	lt
 80002e0:	426d      	neglt	r5, r5
 80002e2:	dd0c      	ble.n	80002fe <__adddf3+0x52>
 80002e4:	442c      	add	r4, r5
 80002e6:	ea80 0202 	eor.w	r2, r0, r2
 80002ea:	ea81 0303 	eor.w	r3, r1, r3
 80002ee:	ea82 0000 	eor.w	r0, r2, r0
 80002f2:	ea83 0101 	eor.w	r1, r3, r1
 80002f6:	ea80 0202 	eor.w	r2, r0, r2
 80002fa:	ea81 0303 	eor.w	r3, r1, r3
 80002fe:	2d36      	cmp	r5, #54	; 0x36
 8000300:	bf88      	it	hi
 8000302:	bd30      	pophi	{r4, r5, pc}
 8000304:	f011 4f00 	tst.w	r1, #2147483648	; 0x80000000
 8000308:	ea4f 3101 	mov.w	r1, r1, lsl #12
 800030c:	f44f 1c80 	mov.w	ip, #1048576	; 0x100000
 8000310:	ea4c 3111 	orr.w	r1, ip, r1, lsr #12
 8000314:	d002      	beq.n	800031c <__adddf3+0x70>
 8000316:	4240      	negs	r0, r0
 8000318:	eb61 0141 	sbc.w	r1, r1, r1, lsl #1
 800031c:	f013 4f00 	tst.w	r3, #2147483648	; 0x80000000
 8000320:	ea4f 3303 	mov.w	r3, r3, lsl #12
 8000324:	ea4c 3313 	orr.w	r3, ip, r3, lsr #12
 8000328:	d002      	beq.n	8000330 <__adddf3+0x84>
 800032a:	4252      	negs	r2, r2
 800032c:	eb63 0343 	sbc.w	r3, r3, r3, lsl #1
 8000330:	ea94 0f05 	teq	r4, r5
 8000334:	f000 80a7 	beq.w	8000486 <__adddf3+0x1da>
 8000338:	f1a4 0401 	sub.w	r4, r4, #1
 800033c:	f1d5 0e20 	rsbs	lr, r5, #32
 8000340:	db0d      	blt.n	800035e <__adddf3+0xb2>
 8000342:	fa02 fc0e 	lsl.w	ip, r2, lr
 8000346:	fa22 f205 	lsr.w	r2, r2, r5
 800034a:	1880      	adds	r0, r0, r2
 800034c:	f141 0100 	adc.w	r1, r1, #0
 8000350:	fa03 f20e 	lsl.w	r2, r3, lr
 8000354:	1880      	adds	r0, r0, r2
 8000356:	fa43 f305 	asr.w	r3, r3, r5
 800035a:	4159      	adcs	r1, r3
 800035c:	e00e      	b.n	800037c <__adddf3+0xd0>
 800035e:	f1a5 0520 	sub.w	r5, r5, #32
 8000362:	f10e 0e20 	add.w	lr, lr, #32
 8000366:	2a01      	cmp	r2, #1
 8000368:	fa03 fc0e 	lsl.w	ip, r3, lr
 800036c:	bf28      	it	cs
 800036e:	f04c 0c02 	orrcs.w	ip, ip, #2
 8000372:	fa43 f305 	asr.w	r3, r3, r5
 8000376:	18c0      	adds	r0, r0, r3
 8000378:	eb51 71e3 	adcs.w	r1, r1, r3, asr #31
 800037c:	f001 4500 	and.w	r5, r1, #2147483648	; 0x80000000
 8000380:	d507      	bpl.n	8000392 <__adddf3+0xe6>
 8000382:	f04f 0e00 	mov.w	lr, #0
 8000386:	f1dc 0c00 	rsbs	ip, ip, #0
 800038a:	eb7e 0000 	sbcs.w	r0, lr, r0
 800038e:	eb6e 0101 	sbc.w	r1, lr, r1
 8000392:	f5b1 1f80 	cmp.w	r1, #1048576	; 0x100000
 8000396:	d31b      	bcc.n	80003d0 <__adddf3+0x124>
 8000398:	f5b1 1f00 	cmp.w	r1, #2097152	; 0x200000
 800039c:	d30c      	bcc.n	80003b8 <__adddf3+0x10c>
 800039e:	0849      	lsrs	r1, r1, #1
 80003a0:	ea5f 0030 	movs.w	r0, r0, rrx
 80003a4:	ea4f 0c3c 	mov.w	ip, ip, rrx
 80003a8:	f104 0401 	add.w	r4, r4, #1
 80003ac:	ea4f 5244 	mov.w	r2, r4, lsl #21
 80003b0:	f512 0f80 	cmn.w	r2, #4194304	; 0x400000
 80003b4:	f080 809a 	bcs.w	80004ec <__adddf3+0x240>
 80003b8:	f1bc 4f00 	cmp.w	ip, #2147483648	; 0x80000000
 80003bc:	bf08      	it	eq
 80003be:	ea5f 0c50 	movseq.w	ip, r0, lsr #1
 80003c2:	f150 0000 	adcs.w	r0, r0, #0
 80003c6:	eb41 5104 	adc.w	r1, r1, r4, lsl #20
 80003ca:	ea41 0105 	orr.w	r1, r1, r5
 80003ce:	bd30      	pop	{r4, r5, pc}
 80003d0:	ea5f 0c4c 	movs.w	ip, ip, lsl #1
 80003d4:	4140      	adcs	r0, r0
 80003d6:	eb41 0101 	adc.w	r1, r1, r1
 80003da:	3c01      	subs	r4, #1
 80003dc:	bf28      	it	cs
 80003de:	f5b1 1f80 	cmpcs.w	r1, #1048576	; 0x100000
 80003e2:	d2e9      	bcs.n	80003b8 <__adddf3+0x10c>
 80003e4:	f091 0f00 	teq	r1, #0
 80003e8:	bf04      	itt	eq
 80003ea:	4601      	moveq	r1, r0
 80003ec:	2000      	moveq	r0, #0
 80003ee:	fab1 f381 	clz	r3, r1
 80003f2:	bf08      	it	eq
 80003f4:	3320      	addeq	r3, #32
 80003f6:	f1a3 030b 	sub.w	r3, r3, #11
 80003fa:	f1b3 0220 	subs.w	r2, r3, #32
 80003fe:	da0c      	bge.n	800041a <__adddf3+0x16e>
 8000400:	320c      	adds	r2, #12
 8000402:	dd08      	ble.n	8000416 <__adddf3+0x16a>
 8000404:	f102 0c14 	add.w	ip, r2, #20
 8000408:	f1c2 020c 	rsb	r2, r2, #12
 800040c:	fa01 f00c 	lsl.w	r0, r1, ip
 8000410:	fa21 f102 	lsr.w	r1, r1, r2
 8000414:	e00c      	b.n	8000430 <__adddf3+0x184>
 8000416:	f102 0214 	add.w	r2, r2, #20
 800041a:	bfd8      	it	le
 800041c:	f1c2 0c20 	rsble	ip, r2, #32
 8000420:	fa01 f102 	lsl.w	r1, r1, r2
 8000424:	fa20 fc0c 	lsr.w	ip, r0, ip
 8000428:	bfdc      	itt	le
 800042a:	ea41 010c 	orrle.w	r1, r1, ip
 800042e:	4090      	lslle	r0, r2
 8000430:	1ae4      	subs	r4, r4, r3
 8000432:	bfa2      	ittt	ge
 8000434:	eb01 5104 	addge.w	r1, r1, r4, lsl #20
 8000438:	4329      	orrge	r1, r5
 800043a:	bd30      	popge	{r4, r5, pc}
 800043c:	ea6f 0404 	mvn.w	r4, r4
 8000440:	3c1f      	subs	r4, #31
 8000442:	da1c      	bge.n	800047e <__adddf3+0x1d2>
 8000444:	340c      	adds	r4, #12
 8000446:	dc0e      	bgt.n	8000466 <__adddf3+0x1ba>
 8000448:	f104 0414 	add.w	r4, r4, #20
 800044c:	f1c4 0220 	rsb	r2, r4, #32
 8000450:	fa20 f004 	lsr.w	r0, r0, r4
 8000454:	fa01 f302 	lsl.w	r3, r1, r2
 8000458:	ea40 0003 	orr.w	r0, r0, r3
 800045c:	fa21 f304 	lsr.w	r3, r1, r4
 8000460:	ea45 0103 	orr.w	r1, r5, r3
 8000464:	bd30      	pop	{r4, r5, pc}
 8000466:	f1c4 040c 	rsb	r4, r4, #12
 800046a:	f1c4 0220 	rsb	r2, r4, #32
 800046e:	fa20 f002 	lsr.w	r0, r0, r2
 8000472:	fa01 f304 	lsl.w	r3, r1, r4
 8000476:	ea40 0003 	orr.w	r0, r0, r3
 800047a:	4629      	mov	r1, r5
 800047c:	bd30      	pop	{r4, r5, pc}
 800047e:	fa21 f004 	lsr.w	r0, r1, r4
 8000482:	4629      	mov	r1, r5
 8000484:	bd30      	pop	{r4, r5, pc}
 8000486:	f094 0f00 	teq	r4, #0
 800048a:	f483 1380 	eor.w	r3, r3, #1048576	; 0x100000
 800048e:	bf06      	itte	eq
 8000490:	f481 1180 	eoreq.w	r1, r1, #1048576	; 0x100000
 8000494:	3401      	addeq	r4, #1
 8000496:	3d01      	subne	r5, #1
 8000498:	e74e      	b.n	8000338 <__adddf3+0x8c>
 800049a:	ea7f 5c64 	mvns.w	ip, r4, asr #21
 800049e:	bf18      	it	ne
 80004a0:	ea7f 5c65 	mvnsne.w	ip, r5, asr #21
 80004a4:	d029      	beq.n	80004fa <__adddf3+0x24e>
 80004a6:	ea94 0f05 	teq	r4, r5
 80004aa:	bf08      	it	eq
 80004ac:	ea90 0f02 	teqeq	r0, r2
 80004b0:	d005      	beq.n	80004be <__adddf3+0x212>
 80004b2:	ea54 0c00 	orrs.w	ip, r4, r0
 80004b6:	bf04      	itt	eq
 80004b8:	4619      	moveq	r1, r3
 80004ba:	4610      	moveq	r0, r2
 80004bc:	bd30      	pop	{r4, r5, pc}
 80004be:	ea91 0f03 	teq	r1, r3
 80004c2:	bf1e      	ittt	ne
 80004c4:	2100      	movne	r1, #0
 80004c6:	2000      	movne	r0, #0
 80004c8:	bd30      	popne	{r4, r5, pc}
 80004ca:	ea5f 5c54 	movs.w	ip, r4, lsr #21
 80004ce:	d105      	bne.n	80004dc <__adddf3+0x230>
 80004d0:	0040      	lsls	r0, r0, #1
 80004d2:	4149      	adcs	r1, r1
 80004d4:	bf28      	it	cs
 80004d6:	f041 4100 	orrcs.w	r1, r1, #2147483648	; 0x80000000
 80004da:	bd30      	pop	{r4, r5, pc}
 80004dc:	f514 0480 	adds.w	r4, r4, #4194304	; 0x400000
 80004e0:	bf3c      	itt	cc
 80004e2:	f501 1180 	addcc.w	r1, r1, #1048576	; 0x100000
 80004e6:	bd30      	popcc	{r4, r5, pc}
 80004e8:	f001 4500 	and.w	r5, r1, #2147483648	; 0x80000000
 80004ec:	f045 41fe 	orr.w	r1, r5, #2130706432	; 0x7f000000
 80004f0:	f441 0170 	orr.w	r1, r1, #15728640	; 0xf00000
 80004f4:	f04f 0000 	mov.w	r0, #0
 80004f8:	bd30      	pop	{r4, r5, pc}
 80004fa:	ea7f 5c64 	mvns.w	ip, r4, asr #21
 80004fe:	bf1a      	itte	ne
 8000500:	4619      	movne	r1, r3
 8000502:	4610      	movne	r0, r2
 8000504:	ea7f 5c65 	mvnseq.w	ip, r5, asr #21
 8000508:	bf1c      	itt	ne
 800050a:	460b      	movne	r3, r1
 800050c:	4602      	movne	r2, r0
 800050e:	ea50 3401 	orrs.w	r4, r0, r1, lsl #12
 8000512:	bf06      	itte	eq
 8000514:	ea52 3503 	orrseq.w	r5, r2, r3, lsl #12
 8000518:	ea91 0f03 	teqeq	r1, r3
 800051c:	f441 2100 	orrne.w	r1, r1, #524288	; 0x80000
 8000520:	bd30      	pop	{r4, r5, pc}
 8000522:	bf00      	nop

08000524 <__aeabi_ui2d>:
 8000524:	f090 0f00 	teq	r0, #0
 8000528:	bf04      	itt	eq
 800052a:	2100      	moveq	r1, #0
 800052c:	4770      	bxeq	lr
 800052e:	b530      	push	{r4, r5, lr}
 8000530:	f44f 6480 	mov.w	r4, #1024	; 0x400
 8000534:	f104 0432 	add.w	r4, r4, #50	; 0x32
 8000538:	f04f 0500 	mov.w	r5, #0
 800053c:	f04f 0100 	mov.w	r1, #0
 8000540:	e750      	b.n	80003e4 <__adddf3+0x138>
 8000542:	bf00      	nop

08000544 <__aeabi_i2d>:
 8000544:	f090 0f00 	teq	r0, #0
 8000548:	bf04      	itt	eq
 800054a:	2100      	moveq	r1, #0
 800054c:	4770      	bxeq	lr
 800054e:	b530      	push	{r4, r5, lr}
 8000550:	f44f 6480 	mov.w	r4, #1024	; 0x400
 8000554:	f104 0432 	add.w	r4, r4, #50	; 0x32
 8000558:	f010 4500 	ands.w	r5, r0, #2147483648	; 0x80000000
 800055c:	bf48      	it	mi
 800055e:	4240      	negmi	r0, r0
 8000560:	f04f 0100 	mov.w	r1, #0
 8000564:	e73e      	b.n	80003e4 <__adddf3+0x138>
 8000566:	bf00      	nop

08000568 <__aeabi_f2d>:
 8000568:	0042      	lsls	r2, r0, #1
 800056a:	ea4f 01e2 	mov.w	r1, r2, asr #3
 800056e:	ea4f 0131 	mov.w	r1, r1, rrx
 8000572:	ea4f 7002 	mov.w	r0, r2, lsl #28
 8000576:	bf1f      	itttt	ne
 8000578:	f012 437f 	andsne.w	r3, r2, #4278190080	; 0xff000000
 800057c:	f093 4f7f 	teqne	r3, #4278190080	; 0xff000000
 8000580:	f081 5160 	eorne.w	r1, r1, #939524096	; 0x38000000
 8000584:	4770      	bxne	lr
 8000586:	f032 427f 	bics.w	r2, r2, #4278190080	; 0xff000000
 800058a:	bf08      	it	eq
 800058c:	4770      	bxeq	lr
 800058e:	f093 4f7f 	teq	r3, #4278190080	; 0xff000000
 8000592:	bf04      	itt	eq
 8000594:	f441 2100 	orreq.w	r1, r1, #524288	; 0x80000
 8000598:	4770      	bxeq	lr
 800059a:	b530      	push	{r4, r5, lr}
 800059c:	f44f 7460 	mov.w	r4, #896	; 0x380
 80005a0:	f001 4500 	and.w	r5, r1, #2147483648	; 0x80000000
 80005a4:	f021 4100 	bic.w	r1, r1, #2147483648	; 0x80000000
 80005a8:	e71c      	b.n	80003e4 <__adddf3+0x138>
 80005aa:	bf00      	nop

080005ac <__aeabi_ul2d>:
 80005ac:	ea50 0201 	orrs.w	r2, r0, r1
 80005b0:	bf08      	it	eq
 80005b2:	4770      	bxeq	lr
 80005b4:	b530      	push	{r4, r5, lr}
 80005b6:	f04f 0500 	mov.w	r5, #0
 80005ba:	e00a      	b.n	80005d2 <__aeabi_l2d+0x16>

080005bc <__aeabi_l2d>:
 80005bc:	ea50 0201 	orrs.w	r2, r0, r1
 80005c0:	bf08      	it	eq
 80005c2:	4770      	bxeq	lr
 80005c4:	b530      	push	{r4, r5, lr}
 80005c6:	f011 4500 	ands.w	r5, r1, #2147483648	; 0x80000000
 80005ca:	d502      	bpl.n	80005d2 <__aeabi_l2d+0x16>
 80005cc:	4240      	negs	r0, r0
 80005ce:	eb61 0141 	sbc.w	r1, r1, r1, lsl #1
 80005d2:	f44f 6480 	mov.w	r4, #1024	; 0x400
 80005d6:	f104 0432 	add.w	r4, r4, #50	; 0x32
 80005da:	ea5f 5c91 	movs.w	ip, r1, lsr #22
 80005de:	f43f aed8 	beq.w	8000392 <__adddf3+0xe6>
 80005e2:	f04f 0203 	mov.w	r2, #3
 80005e6:	ea5f 0cdc 	movs.w	ip, ip, lsr #3
 80005ea:	bf18      	it	ne
 80005ec:	3203      	addne	r2, #3
 80005ee:	ea5f 0cdc 	movs.w	ip, ip, lsr #3
 80005f2:	bf18      	it	ne
 80005f4:	3203      	addne	r2, #3
 80005f6:	eb02 02dc 	add.w	r2, r2, ip, lsr #3
 80005fa:	f1c2 0320 	rsb	r3, r2, #32
 80005fe:	fa00 fc03 	lsl.w	ip, r0, r3
 8000602:	fa20 f002 	lsr.w	r0, r0, r2
 8000606:	fa01 fe03 	lsl.w	lr, r1, r3
 800060a:	ea40 000e 	orr.w	r0, r0, lr
 800060e:	fa21 f102 	lsr.w	r1, r1, r2
 8000612:	4414      	add	r4, r2
 8000614:	e6bd      	b.n	8000392 <__adddf3+0xe6>
 8000616:	bf00      	nop

08000618 <__aeabi_dmul>:
 8000618:	b570      	push	{r4, r5, r6, lr}
 800061a:	f04f 0cff 	mov.w	ip, #255	; 0xff
 800061e:	f44c 6ce0 	orr.w	ip, ip, #1792	; 0x700
 8000622:	ea1c 5411 	ands.w	r4, ip, r1, lsr #20
 8000626:	bf1d      	ittte	ne
 8000628:	ea1c 5513 	andsne.w	r5, ip, r3, lsr #20
 800062c:	ea94 0f0c 	teqne	r4, ip
 8000630:	ea95 0f0c 	teqne	r5, ip
 8000634:	f000 f8de 	bleq	80007f4 <__aeabi_dmul+0x1dc>
 8000638:	442c      	add	r4, r5
 800063a:	ea81 0603 	eor.w	r6, r1, r3
 800063e:	ea21 514c 	bic.w	r1, r1, ip, lsl #21
 8000642:	ea23 534c 	bic.w	r3, r3, ip, lsl #21
 8000646:	ea50 3501 	orrs.w	r5, r0, r1, lsl #12
 800064a:	bf18      	it	ne
 800064c:	ea52 3503 	orrsne.w	r5, r2, r3, lsl #12
 8000650:	f441 1180 	orr.w	r1, r1, #1048576	; 0x100000
 8000654:	f443 1380 	orr.w	r3, r3, #1048576	; 0x100000
 8000658:	d038      	beq.n	80006cc <__aeabi_dmul+0xb4>
 800065a:	fba0 ce02 	umull	ip, lr, r0, r2
 800065e:	f04f 0500 	mov.w	r5, #0
 8000662:	fbe1 e502 	umlal	lr, r5, r1, r2
 8000666:	f006 4200 	and.w	r2, r6, #2147483648	; 0x80000000
 800066a:	fbe0 e503 	umlal	lr, r5, r0, r3
 800066e:	f04f 0600 	mov.w	r6, #0
 8000672:	fbe1 5603 	umlal	r5, r6, r1, r3
 8000676:	f09c 0f00 	teq	ip, #0
 800067a:	bf18      	it	ne
 800067c:	f04e 0e01 	orrne.w	lr, lr, #1
 8000680:	f1a4 04ff 	sub.w	r4, r4, #255	; 0xff
 8000684:	f5b6 7f00 	cmp.w	r6, #512	; 0x200
 8000688:	f564 7440 	sbc.w	r4, r4, #768	; 0x300
 800068c:	d204      	bcs.n	8000698 <__aeabi_dmul+0x80>
 800068e:	ea5f 0e4e 	movs.w	lr, lr, lsl #1
 8000692:	416d      	adcs	r5, r5
 8000694:	eb46 0606 	adc.w	r6, r6, r6
 8000698:	ea42 21c6 	orr.w	r1, r2, r6, lsl #11
 800069c:	ea41 5155 	orr.w	r1, r1, r5, lsr #21
 80006a0:	ea4f 20c5 	mov.w	r0, r5, lsl #11
 80006a4:	ea40 505e 	orr.w	r0, r0, lr, lsr #21
 80006a8:	ea4f 2ece 	mov.w	lr, lr, lsl #11
 80006ac:	f1b4 0cfd 	subs.w	ip, r4, #253	; 0xfd
 80006b0:	bf88      	it	hi
 80006b2:	f5bc 6fe0 	cmphi.w	ip, #1792	; 0x700
 80006b6:	d81e      	bhi.n	80006f6 <__aeabi_dmul+0xde>
 80006b8:	f1be 4f00 	cmp.w	lr, #2147483648	; 0x80000000
 80006bc:	bf08      	it	eq
 80006be:	ea5f 0e50 	movseq.w	lr, r0, lsr #1
 80006c2:	f150 0000 	adcs.w	r0, r0, #0
 80006c6:	eb41 5104 	adc.w	r1, r1, r4, lsl #20
 80006ca:	bd70      	pop	{r4, r5, r6, pc}
 80006cc:	f006 4600 	and.w	r6, r6, #2147483648	; 0x80000000
 80006d0:	ea46 0101 	orr.w	r1, r6, r1
 80006d4:	ea40 0002 	orr.w	r0, r0, r2
 80006d8:	ea81 0103 	eor.w	r1, r1, r3
 80006dc:	ebb4 045c 	subs.w	r4, r4, ip, lsr #1
 80006e0:	bfc2      	ittt	gt
 80006e2:	ebd4 050c 	rsbsgt	r5, r4, ip
 80006e6:	ea41 5104 	orrgt.w	r1, r1, r4, lsl #20
 80006ea:	bd70      	popgt	{r4, r5, r6, pc}
 80006ec:	f441 1180 	orr.w	r1, r1, #1048576	; 0x100000
 80006f0:	f04f 0e00 	mov.w	lr, #0
 80006f4:	3c01      	subs	r4, #1
 80006f6:	f300 80ab 	bgt.w	8000850 <__aeabi_dmul+0x238>
 80006fa:	f114 0f36 	cmn.w	r4, #54	; 0x36
 80006fe:	bfde      	ittt	le
 8000700:	2000      	movle	r0, #0
 8000702:	f001 4100 	andle.w	r1, r1, #2147483648	; 0x80000000
 8000706:	bd70      	pople	{r4, r5, r6, pc}
 8000708:	f1c4 0400 	rsb	r4, r4, #0
 800070c:	3c20      	subs	r4, #32
 800070e:	da35      	bge.n	800077c <__aeabi_dmul+0x164>
 8000710:	340c      	adds	r4, #12
 8000712:	dc1b      	bgt.n	800074c <__aeabi_dmul+0x134>
 8000714:	f104 0414 	add.w	r4, r4, #20
 8000718:	f1c4 0520 	rsb	r5, r4, #32
 800071c:	fa00 f305 	lsl.w	r3, r0, r5
 8000720:	fa20 f004 	lsr.w	r0, r0, r4
 8000724:	fa01 f205 	lsl.w	r2, r1, r5
 8000728:	ea40 0002 	orr.w	r0, r0, r2
 800072c:	f001 4200 	and.w	r2, r1, #2147483648	; 0x80000000
 8000730:	f021 4100 	bic.w	r1, r1, #2147483648	; 0x80000000
 8000734:	eb10 70d3 	adds.w	r0, r0, r3, lsr #31
 8000738:	fa21 f604 	lsr.w	r6, r1, r4
 800073c:	eb42 0106 	adc.w	r1, r2, r6
 8000740:	ea5e 0e43 	orrs.w	lr, lr, r3, lsl #1
 8000744:	bf08      	it	eq
 8000746:	ea20 70d3 	biceq.w	r0, r0, r3, lsr #31
 800074a:	bd70      	pop	{r4, r5, r6, pc}
 800074c:	f1c4 040c 	rsb	r4, r4, #12
 8000750:	f1c4 0520 	rsb	r5, r4, #32
 8000754:	fa00 f304 	lsl.w	r3, r0, r4
 8000758:	fa20 f005 	lsr.w	r0, r0, r5
 800075c:	fa01 f204 	lsl.w	r2, r1, r4
 8000760:	ea40 0002 	orr.w	r0, r0, r2
 8000764:	f001 4100 	and.w	r1, r1, #2147483648	; 0x80000000
 8000768:	eb10 70d3 	adds.w	r0, r0, r3, lsr #31
 800076c:	f141 0100 	adc.w	r1, r1, #0
 8000770:	ea5e 0e43 	orrs.w	lr, lr, r3, lsl #1
 8000774:	bf08      	it	eq
 8000776:	ea20 70d3 	biceq.w	r0, r0, r3, lsr #31
 800077a:	bd70      	pop	{r4, r5, r6, pc}
 800077c:	f1c4 0520 	rsb	r5, r4, #32
 8000780:	fa00 f205 	lsl.w	r2, r0, r5
 8000784:	ea4e 0e02 	orr.w	lr, lr, r2
 8000788:	fa20 f304 	lsr.w	r3, r0, r4
 800078c:	fa01 f205 	lsl.w	r2, r1, r5
 8000790:	ea43 0302 	orr.w	r3, r3, r2
 8000794:	fa21 f004 	lsr.w	r0, r1, r4
 8000798:	f001 4100 	and.w	r1, r1, #2147483648	; 0x80000000
 800079c:	fa21 f204 	lsr.w	r2, r1, r4
 80007a0:	ea20 0002 	bic.w	r0, r0, r2
 80007a4:	eb00 70d3 	add.w	r0, r0, r3, lsr #31
 80007a8:	ea5e 0e43 	orrs.w	lr, lr, r3, lsl #1
 80007ac:	bf08      	it	eq
 80007ae:	ea20 70d3 	biceq.w	r0, r0, r3, lsr #31
 80007b2:	bd70      	pop	{r4, r5, r6, pc}
 80007b4:	f094 0f00 	teq	r4, #0
 80007b8:	d10f      	bne.n	80007da <__aeabi_dmul+0x1c2>
 80007ba:	f001 4600 	and.w	r6, r1, #2147483648	; 0x80000000
 80007be:	0040      	lsls	r0, r0, #1
 80007c0:	eb41 0101 	adc.w	r1, r1, r1
 80007c4:	f411 1f80 	tst.w	r1, #1048576	; 0x100000
 80007c8:	bf08      	it	eq
 80007ca:	3c01      	subeq	r4, #1
 80007cc:	d0f7      	beq.n	80007be <__aeabi_dmul+0x1a6>
 80007ce:	ea41 0106 	orr.w	r1, r1, r6
 80007d2:	f095 0f00 	teq	r5, #0
 80007d6:	bf18      	it	ne
 80007d8:	4770      	bxne	lr
 80007da:	f003 4600 	and.w	r6, r3, #2147483648	; 0x80000000
 80007de:	0052      	lsls	r2, r2, #1
 80007e0:	eb43 0303 	adc.w	r3, r3, r3
 80007e4:	f413 1f80 	tst.w	r3, #1048576	; 0x100000
 80007e8:	bf08      	it	eq
 80007ea:	3d01      	subeq	r5, #1
 80007ec:	d0f7      	beq.n	80007de <__aeabi_dmul+0x1c6>
 80007ee:	ea43 0306 	orr.w	r3, r3, r6
 80007f2:	4770      	bx	lr
 80007f4:	ea94 0f0c 	teq	r4, ip
 80007f8:	ea0c 5513 	and.w	r5, ip, r3, lsr #20
 80007fc:	bf18      	it	ne
 80007fe:	ea95 0f0c 	teqne	r5, ip
 8000802:	d00c      	beq.n	800081e <__aeabi_dmul+0x206>
 8000804:	ea50 0641 	orrs.w	r6, r0, r1, lsl #1
 8000808:	bf18      	it	ne
 800080a:	ea52 0643 	orrsne.w	r6, r2, r3, lsl #1
 800080e:	d1d1      	bne.n	80007b4 <__aeabi_dmul+0x19c>
 8000810:	ea81 0103 	eor.w	r1, r1, r3
 8000814:	f001 4100 	and.w	r1, r1, #2147483648	; 0x80000000
 8000818:	f04f 0000 	mov.w	r0, #0
 800081c:	bd70      	pop	{r4, r5, r6, pc}
 800081e:	ea50 0641 	orrs.w	r6, r0, r1, lsl #1
 8000822:	bf06      	itte	eq
 8000824:	4610      	moveq	r0, r2
 8000826:	4619      	moveq	r1, r3
 8000828:	ea52 0643 	orrsne.w	r6, r2, r3, lsl #1
 800082c:	d019      	beq.n	8000862 <__aeabi_dmul+0x24a>
 800082e:	ea94 0f0c 	teq	r4, ip
 8000832:	d102      	bne.n	800083a <__aeabi_dmul+0x222>
 8000834:	ea50 3601 	orrs.w	r6, r0, r1, lsl #12
 8000838:	d113      	bne.n	8000862 <__aeabi_dmul+0x24a>
 800083a:	ea95 0f0c 	teq	r5, ip
 800083e:	d105      	bne.n	800084c <__aeabi_dmul+0x234>
 8000840:	ea52 3603 	orrs.w	r6, r2, r3, lsl #12
 8000844:	bf1c      	itt	ne
 8000846:	4610      	movne	r0, r2
 8000848:	4619      	movne	r1, r3
 800084a:	d10a      	bne.n	8000862 <__aeabi_dmul+0x24a>
 800084c:	ea81 0103 	eor.w	r1, r1, r3
 8000850:	f001 4100 	and.w	r1, r1, #2147483648	; 0x80000000
 8000854:	f041 41fe 	orr.w	r1, r1, #2130706432	; 0x7f000000
 8000858:	f441 0170 	orr.w	r1, r1, #15728640	; 0xf00000
 800085c:	f04f 0000 	mov.w	r0, #0
 8000860:	bd70      	pop	{r4, r5, r6, pc}
 8000862:	f041 41fe 	orr.w	r1, r1, #2130706432	; 0x7f000000
 8000866:	f441 0178 	orr.w	r1, r1, #16252928	; 0xf80000
 800086a:	bd70      	pop	{r4, r5, r6, pc}

0800086c <__aeabi_ddiv>:
 800086c:	b570      	push	{r4, r5, r6, lr}
 800086e:	f04f 0cff 	mov.w	ip, #255	; 0xff
 8000872:	f44c 6ce0 	orr.w	ip, ip, #1792	; 0x700
 8000876:	ea1c 5411 	ands.w	r4, ip, r1, lsr #20
 800087a:	bf1d      	ittte	ne
 800087c:	ea1c 5513 	andsne.w	r5, ip, r3, lsr #20
 8000880:	ea94 0f0c 	teqne	r4, ip
 8000884:	ea95 0f0c 	teqne	r5, ip
 8000888:	f000 f8a7 	bleq	80009da <__aeabi_ddiv+0x16e>
 800088c:	eba4 0405 	sub.w	r4, r4, r5
 8000890:	ea81 0e03 	eor.w	lr, r1, r3
 8000894:	ea52 3503 	orrs.w	r5, r2, r3, lsl #12
 8000898:	ea4f 3101 	mov.w	r1, r1, lsl #12
 800089c:	f000 8088 	beq.w	80009b0 <__aeabi_ddiv+0x144>
 80008a0:	ea4f 3303 	mov.w	r3, r3, lsl #12
 80008a4:	f04f 5580 	mov.w	r5, #268435456	; 0x10000000
 80008a8:	ea45 1313 	orr.w	r3, r5, r3, lsr #4
 80008ac:	ea43 6312 	orr.w	r3, r3, r2, lsr #24
 80008b0:	ea4f 2202 	mov.w	r2, r2, lsl #8
 80008b4:	ea45 1511 	orr.w	r5, r5, r1, lsr #4
 80008b8:	ea45 6510 	orr.w	r5, r5, r0, lsr #24
 80008bc:	ea4f 2600 	mov.w	r6, r0, lsl #8
 80008c0:	f00e 4100 	and.w	r1, lr, #2147483648	; 0x80000000
 80008c4:	429d      	cmp	r5, r3
 80008c6:	bf08      	it	eq
 80008c8:	4296      	cmpeq	r6, r2
 80008ca:	f144 04fd 	adc.w	r4, r4, #253	; 0xfd
 80008ce:	f504 7440 	add.w	r4, r4, #768	; 0x300
 80008d2:	d202      	bcs.n	80008da <__aeabi_ddiv+0x6e>
 80008d4:	085b      	lsrs	r3, r3, #1
 80008d6:	ea4f 0232 	mov.w	r2, r2, rrx
 80008da:	1ab6      	subs	r6, r6, r2
 80008dc:	eb65 0503 	sbc.w	r5, r5, r3
 80008e0:	085b      	lsrs	r3, r3, #1
 80008e2:	ea4f 0232 	mov.w	r2, r2, rrx
 80008e6:	f44f 1080 	mov.w	r0, #1048576	; 0x100000
 80008ea:	f44f 2c00 	mov.w	ip, #524288	; 0x80000
 80008ee:	ebb6 0e02 	subs.w	lr, r6, r2
 80008f2:	eb75 0e03 	sbcs.w	lr, r5, r3
 80008f6:	bf22      	ittt	cs
 80008f8:	1ab6      	subcs	r6, r6, r2
 80008fa:	4675      	movcs	r5, lr
 80008fc:	ea40 000c 	orrcs.w	r0, r0, ip
 8000900:	085b      	lsrs	r3, r3, #1
 8000902:	ea4f 0232 	mov.w	r2, r2, rrx
 8000906:	ebb6 0e02 	subs.w	lr, r6, r2
 800090a:	eb75 0e03 	sbcs.w	lr, r5, r3
 800090e:	bf22      	ittt	cs
 8000910:	1ab6      	subcs	r6, r6, r2
 8000912:	4675      	movcs	r5, lr
 8000914:	ea40 005c 	orrcs.w	r0, r0, ip, lsr #1
 8000918:	085b      	lsrs	r3, r3, #1
 800091a:	ea4f 0232 	mov.w	r2, r2, rrx
 800091e:	ebb6 0e02 	subs.w	lr, r6, r2
 8000922:	eb75 0e03 	sbcs.w	lr, r5, r3
 8000926:	bf22      	ittt	cs
 8000928:	1ab6      	subcs	r6, r6, r2
 800092a:	4675      	movcs	r5, lr
 800092c:	ea40 009c 	orrcs.w	r0, r0, ip, lsr #2
 8000930:	085b      	lsrs	r3, r3, #1
 8000932:	ea4f 0232 	mov.w	r2, r2, rrx
 8000936:	ebb6 0e02 	subs.w	lr, r6, r2
 800093a:	eb75 0e03 	sbcs.w	lr, r5, r3
 800093e:	bf22      	ittt	cs
 8000940:	1ab6      	subcs	r6, r6, r2
 8000942:	4675      	movcs	r5, lr
 8000944:	ea40 00dc 	orrcs.w	r0, r0, ip, lsr #3
 8000948:	ea55 0e06 	orrs.w	lr, r5, r6
 800094c:	d018      	beq.n	8000980 <__aeabi_ddiv+0x114>
 800094e:	ea4f 1505 	mov.w	r5, r5, lsl #4
 8000952:	ea45 7516 	orr.w	r5, r5, r6, lsr #28
 8000956:	ea4f 1606 	mov.w	r6, r6, lsl #4
 800095a:	ea4f 03c3 	mov.w	r3, r3, lsl #3
 800095e:	ea43 7352 	orr.w	r3, r3, r2, lsr #29
 8000962:	ea4f 02c2 	mov.w	r2, r2, lsl #3
 8000966:	ea5f 1c1c 	movs.w	ip, ip, lsr #4
 800096a:	d1c0      	bne.n	80008ee <__aeabi_ddiv+0x82>
 800096c:	f411 1f80 	tst.w	r1, #1048576	; 0x100000
 8000970:	d10b      	bne.n	800098a <__aeabi_ddiv+0x11e>
 8000972:	ea41 0100 	orr.w	r1, r1, r0
 8000976:	f04f 0000 	mov.w	r0, #0
 800097a:	f04f 4c00 	mov.w	ip, #2147483648	; 0x80000000
 800097e:	e7b6      	b.n	80008ee <__aeabi_ddiv+0x82>
 8000980:	f411 1f80 	tst.w	r1, #1048576	; 0x100000
 8000984:	bf04      	itt	eq
 8000986:	4301      	orreq	r1, r0
 8000988:	2000      	moveq	r0, #0
 800098a:	f1b4 0cfd 	subs.w	ip, r4, #253	; 0xfd
 800098e:	bf88      	it	hi
 8000990:	f5bc 6fe0 	cmphi.w	ip, #1792	; 0x700
 8000994:	f63f aeaf 	bhi.w	80006f6 <__aeabi_dmul+0xde>
 8000998:	ebb5 0c03 	subs.w	ip, r5, r3
 800099c:	bf04      	itt	eq
 800099e:	ebb6 0c02 	subseq.w	ip, r6, r2
 80009a2:	ea5f 0c50 	movseq.w	ip, r0, lsr #1
 80009a6:	f150 0000 	adcs.w	r0, r0, #0
 80009aa:	eb41 5104 	adc.w	r1, r1, r4, lsl #20
 80009ae:	bd70      	pop	{r4, r5, r6, pc}
 80009b0:	f00e 4e00 	and.w	lr, lr, #2147483648	; 0x80000000
 80009b4:	ea4e 3111 	orr.w	r1, lr, r1, lsr #12
 80009b8:	eb14 045c 	adds.w	r4, r4, ip, lsr #1
 80009bc:	bfc2      	ittt	gt
 80009be:	ebd4 050c 	rsbsgt	r5, r4, ip
 80009c2:	ea41 5104 	orrgt.w	r1, r1, r4, lsl #20
 80009c6:	bd70      	popgt	{r4, r5, r6, pc}
 80009c8:	f441 1180 	orr.w	r1, r1, #1048576	; 0x100000
 80009cc:	f04f 0e00 	mov.w	lr, #0
 80009d0:	3c01      	subs	r4, #1
 80009d2:	e690      	b.n	80006f6 <__aeabi_dmul+0xde>
 80009d4:	ea45 0e06 	orr.w	lr, r5, r6
 80009d8:	e68d      	b.n	80006f6 <__aeabi_dmul+0xde>
 80009da:	ea0c 5513 	and.w	r5, ip, r3, lsr #20
 80009de:	ea94 0f0c 	teq	r4, ip
 80009e2:	bf08      	it	eq
 80009e4:	ea95 0f0c 	teqeq	r5, ip
 80009e8:	f43f af3b 	beq.w	8000862 <__aeabi_dmul+0x24a>
 80009ec:	ea94 0f0c 	teq	r4, ip
 80009f0:	d10a      	bne.n	8000a08 <__aeabi_ddiv+0x19c>
 80009f2:	ea50 3401 	orrs.w	r4, r0, r1, lsl #12
 80009f6:	f47f af34 	bne.w	8000862 <__aeabi_dmul+0x24a>
 80009fa:	ea95 0f0c 	teq	r5, ip
 80009fe:	f47f af25 	bne.w	800084c <__aeabi_dmul+0x234>
 8000a02:	4610      	mov	r0, r2
 8000a04:	4619      	mov	r1, r3
 8000a06:	e72c      	b.n	8000862 <__aeabi_dmul+0x24a>
 8000a08:	ea95 0f0c 	teq	r5, ip
 8000a0c:	d106      	bne.n	8000a1c <__aeabi_ddiv+0x1b0>
 8000a0e:	ea52 3503 	orrs.w	r5, r2, r3, lsl #12
 8000a12:	f43f aefd 	beq.w	8000810 <__aeabi_dmul+0x1f8>
 8000a16:	4610      	mov	r0, r2
 8000a18:	4619      	mov	r1, r3
 8000a1a:	e722      	b.n	8000862 <__aeabi_dmul+0x24a>
 8000a1c:	ea50 0641 	orrs.w	r6, r0, r1, lsl #1
 8000a20:	bf18      	it	ne
 8000a22:	ea52 0643 	orrsne.w	r6, r2, r3, lsl #1
 8000a26:	f47f aec5 	bne.w	80007b4 <__aeabi_dmul+0x19c>
 8000a2a:	ea50 0441 	orrs.w	r4, r0, r1, lsl #1
 8000a2e:	f47f af0d 	bne.w	800084c <__aeabi_dmul+0x234>
 8000a32:	ea52 0543 	orrs.w	r5, r2, r3, lsl #1
 8000a36:	f47f aeeb 	bne.w	8000810 <__aeabi_dmul+0x1f8>
 8000a3a:	e712      	b.n	8000862 <__aeabi_dmul+0x24a>

08000a3c <__gedf2>:
 8000a3c:	f04f 3cff 	mov.w	ip, #4294967295
 8000a40:	e006      	b.n	8000a50 <__cmpdf2+0x4>
 8000a42:	bf00      	nop

08000a44 <__ledf2>:
 8000a44:	f04f 0c01 	mov.w	ip, #1
 8000a48:	e002      	b.n	8000a50 <__cmpdf2+0x4>
 8000a4a:	bf00      	nop

08000a4c <__cmpdf2>:
 8000a4c:	f04f 0c01 	mov.w	ip, #1
 8000a50:	f84d cd04 	str.w	ip, [sp, #-4]!
 8000a54:	ea4f 0c41 	mov.w	ip, r1, lsl #1
 8000a58:	ea7f 5c6c 	mvns.w	ip, ip, asr #21
 8000a5c:	ea4f 0c43 	mov.w	ip, r3, lsl #1
 8000a60:	bf18      	it	ne
 8000a62:	ea7f 5c6c 	mvnsne.w	ip, ip, asr #21
 8000a66:	d01b      	beq.n	8000aa0 <__cmpdf2+0x54>
 8000a68:	b001      	add	sp, #4
 8000a6a:	ea50 0c41 	orrs.w	ip, r0, r1, lsl #1
 8000a6e:	bf0c      	ite	eq
 8000a70:	ea52 0c43 	orrseq.w	ip, r2, r3, lsl #1
 8000a74:	ea91 0f03 	teqne	r1, r3
 8000a78:	bf02      	ittt	eq
 8000a7a:	ea90 0f02 	teqeq	r0, r2
 8000a7e:	2000      	moveq	r0, #0
 8000a80:	4770      	bxeq	lr
 8000a82:	f110 0f00 	cmn.w	r0, #0
 8000a86:	ea91 0f03 	teq	r1, r3
 8000a8a:	bf58      	it	pl
 8000a8c:	4299      	cmppl	r1, r3
 8000a8e:	bf08      	it	eq
 8000a90:	4290      	cmpeq	r0, r2
 8000a92:	bf2c      	ite	cs
 8000a94:	17d8      	asrcs	r0, r3, #31
 8000a96:	ea6f 70e3 	mvncc.w	r0, r3, asr #31
 8000a9a:	f040 0001 	orr.w	r0, r0, #1
 8000a9e:	4770      	bx	lr
 8000aa0:	ea4f 0c41 	mov.w	ip, r1, lsl #1
 8000aa4:	ea7f 5c6c 	mvns.w	ip, ip, asr #21
 8000aa8:	d102      	bne.n	8000ab0 <__cmpdf2+0x64>
 8000aaa:	ea50 3c01 	orrs.w	ip, r0, r1, lsl #12
 8000aae:	d107      	bne.n	8000ac0 <__cmpdf2+0x74>
 8000ab0:	ea4f 0c43 	mov.w	ip, r3, lsl #1
 8000ab4:	ea7f 5c6c 	mvns.w	ip, ip, asr #21
 8000ab8:	d1d6      	bne.n	8000a68 <__cmpdf2+0x1c>
 8000aba:	ea52 3c03 	orrs.w	ip, r2, r3, lsl #12
 8000abe:	d0d3      	beq.n	8000a68 <__cmpdf2+0x1c>
 8000ac0:	f85d 0b04 	ldr.w	r0, [sp], #4
 8000ac4:	4770      	bx	lr
 8000ac6:	bf00      	nop

08000ac8 <__aeabi_cdrcmple>:
 8000ac8:	4684      	mov	ip, r0
 8000aca:	4610      	mov	r0, r2
 8000acc:	4662      	mov	r2, ip
 8000ace:	468c      	mov	ip, r1
 8000ad0:	4619      	mov	r1, r3
 8000ad2:	4663      	mov	r3, ip
 8000ad4:	e000      	b.n	8000ad8 <__aeabi_cdcmpeq>
 8000ad6:	bf00      	nop

08000ad8 <__aeabi_cdcmpeq>:
 8000ad8:	b501      	push	{r0, lr}
 8000ada:	f7ff ffb7 	bl	8000a4c <__cmpdf2>
 8000ade:	2800      	cmp	r0, #0
 8000ae0:	bf48      	it	mi
 8000ae2:	f110 0f00 	cmnmi.w	r0, #0
 8000ae6:	bd01      	pop	{r0, pc}

08000ae8 <__aeabi_dcmpeq>:
 8000ae8:	f84d ed08 	str.w	lr, [sp, #-8]!
 8000aec:	f7ff fff4 	bl	8000ad8 <__aeabi_cdcmpeq>
 8000af0:	bf0c      	ite	eq
 8000af2:	2001      	moveq	r0, #1
 8000af4:	2000      	movne	r0, #0
 8000af6:	f85d fb08 	ldr.w	pc, [sp], #8
 8000afa:	bf00      	nop

08000afc <__aeabi_dcmplt>:
 8000afc:	f84d ed08 	str.w	lr, [sp, #-8]!
 8000b00:	f7ff ffea 	bl	8000ad8 <__aeabi_cdcmpeq>
 8000b04:	bf34      	ite	cc
 8000b06:	2001      	movcc	r0, #1
 8000b08:	2000      	movcs	r0, #0
 8000b0a:	f85d fb08 	ldr.w	pc, [sp], #8
 8000b0e:	bf00      	nop

08000b10 <__aeabi_dcmple>:
 8000b10:	f84d ed08 	str.w	lr, [sp, #-8]!
 8000b14:	f7ff ffe0 	bl	8000ad8 <__aeabi_cdcmpeq>
 8000b18:	bf94      	ite	ls
 8000b1a:	2001      	movls	r0, #1
 8000b1c:	2000      	movhi	r0, #0
 8000b1e:	f85d fb08 	ldr.w	pc, [sp], #8
 8000b22:	bf00      	nop

08000b24 <__aeabi_dcmpge>:
 8000b24:	f84d ed08 	str.w	lr, [sp, #-8]!
 8000b28:	f7ff ffce 	bl	8000ac8 <__aeabi_cdrcmple>
 8000b2c:	bf94      	ite	ls
 8000b2e:	2001      	movls	r0, #1
 8000b30:	2000      	movhi	r0, #0
 8000b32:	f85d fb08 	ldr.w	pc, [sp], #8
 8000b36:	bf00      	nop

08000b38 <__aeabi_dcmpgt>:
 8000b38:	f84d ed08 	str.w	lr, [sp, #-8]!
 8000b3c:	f7ff ffc4 	bl	8000ac8 <__aeabi_cdrcmple>
 8000b40:	bf34      	ite	cc
 8000b42:	2001      	movcc	r0, #1
 8000b44:	2000      	movcs	r0, #0
 8000b46:	f85d fb08 	ldr.w	pc, [sp], #8
 8000b4a:	bf00      	nop

08000b4c <__aeabi_dcmpun>:
 8000b4c:	ea4f 0c41 	mov.w	ip, r1, lsl #1
 8000b50:	ea7f 5c6c 	mvns.w	ip, ip, asr #21
 8000b54:	d102      	bne.n	8000b5c <__aeabi_dcmpun+0x10>
 8000b56:	ea50 3c01 	orrs.w	ip, r0, r1, lsl #12
 8000b5a:	d10a      	bne.n	8000b72 <__aeabi_dcmpun+0x26>
 8000b5c:	ea4f 0c43 	mov.w	ip, r3, lsl #1
 8000b60:	ea7f 5c6c 	mvns.w	ip, ip, asr #21
 8000b64:	d102      	bne.n	8000b6c <__aeabi_dcmpun+0x20>
 8000b66:	ea52 3c03 	orrs.w	ip, r2, r3, lsl #12
 8000b6a:	d102      	bne.n	8000b72 <__aeabi_dcmpun+0x26>
 8000b6c:	f04f 0000 	mov.w	r0, #0
 8000b70:	4770      	bx	lr
 8000b72:	f04f 0001 	mov.w	r0, #1
 8000b76:	4770      	bx	lr

08000b78 <__aeabi_d2iz>:
 8000b78:	ea4f 0241 	mov.w	r2, r1, lsl #1
 8000b7c:	f512 1200 	adds.w	r2, r2, #2097152	; 0x200000
 8000b80:	d215      	bcs.n	8000bae <__aeabi_d2iz+0x36>
 8000b82:	d511      	bpl.n	8000ba8 <__aeabi_d2iz+0x30>
 8000b84:	f46f 7378 	mvn.w	r3, #992	; 0x3e0
 8000b88:	ebb3 5262 	subs.w	r2, r3, r2, asr #21
 8000b8c:	d912      	bls.n	8000bb4 <__aeabi_d2iz+0x3c>
 8000b8e:	ea4f 23c1 	mov.w	r3, r1, lsl #11
 8000b92:	f043 4300 	orr.w	r3, r3, #2147483648	; 0x80000000
 8000b96:	ea43 5350 	orr.w	r3, r3, r0, lsr #21
 8000b9a:	f011 4f00 	tst.w	r1, #2147483648	; 0x80000000
 8000b9e:	fa23 f002 	lsr.w	r0, r3, r2
 8000ba2:	bf18      	it	ne
 8000ba4:	4240      	negne	r0, r0
 8000ba6:	4770      	bx	lr
 8000ba8:	f04f 0000 	mov.w	r0, #0
 8000bac:	4770      	bx	lr
 8000bae:	ea50 3001 	orrs.w	r0, r0, r1, lsl #12
 8000bb2:	d105      	bne.n	8000bc0 <__aeabi_d2iz+0x48>
 8000bb4:	f011 4000 	ands.w	r0, r1, #2147483648	; 0x80000000
 8000bb8:	bf08      	it	eq
 8000bba:	f06f 4000 	mvneq.w	r0, #2147483648	; 0x80000000
 8000bbe:	4770      	bx	lr
 8000bc0:	f04f 0000 	mov.w	r0, #0
 8000bc4:	4770      	bx	lr
 8000bc6:	bf00      	nop

08000bc8 <__aeabi_d2f>:
 8000bc8:	ea4f 0241 	mov.w	r2, r1, lsl #1
 8000bcc:	f1b2 43e0 	subs.w	r3, r2, #1879048192	; 0x70000000
 8000bd0:	bf24      	itt	cs
 8000bd2:	f5b3 1c00 	subscs.w	ip, r3, #2097152	; 0x200000
 8000bd6:	f1dc 5cfe 	rsbscs	ip, ip, #532676608	; 0x1fc00000
 8000bda:	d90d      	bls.n	8000bf8 <__aeabi_d2f+0x30>
 8000bdc:	f001 4c00 	and.w	ip, r1, #2147483648	; 0x80000000
 8000be0:	ea4f 02c0 	mov.w	r2, r0, lsl #3
 8000be4:	ea4c 7050 	orr.w	r0, ip, r0, lsr #29
 8000be8:	f1b2 4f00 	cmp.w	r2, #2147483648	; 0x80000000
 8000bec:	eb40 0083 	adc.w	r0, r0, r3, lsl #2
 8000bf0:	bf08      	it	eq
 8000bf2:	f020 0001 	biceq.w	r0, r0, #1
 8000bf6:	4770      	bx	lr
 8000bf8:	f011 4f80 	tst.w	r1, #1073741824	; 0x40000000
 8000bfc:	d121      	bne.n	8000c42 <__aeabi_d2f+0x7a>
 8000bfe:	f113 7238 	adds.w	r2, r3, #48234496	; 0x2e00000
 8000c02:	bfbc      	itt	lt
 8000c04:	f001 4000 	andlt.w	r0, r1, #2147483648	; 0x80000000
 8000c08:	4770      	bxlt	lr
 8000c0a:	f441 1180 	orr.w	r1, r1, #1048576	; 0x100000
 8000c0e:	ea4f 5252 	mov.w	r2, r2, lsr #21
 8000c12:	f1c2 0218 	rsb	r2, r2, #24
 8000c16:	f1c2 0c20 	rsb	ip, r2, #32
 8000c1a:	fa10 f30c 	lsls.w	r3, r0, ip
 8000c1e:	fa20 f002 	lsr.w	r0, r0, r2
 8000c22:	bf18      	it	ne
 8000c24:	f040 0001 	orrne.w	r0, r0, #1
 8000c28:	ea4f 23c1 	mov.w	r3, r1, lsl #11
 8000c2c:	ea4f 23d3 	mov.w	r3, r3, lsr #11
 8000c30:	fa03 fc0c 	lsl.w	ip, r3, ip
 8000c34:	ea40 000c 	orr.w	r0, r0, ip
 8000c38:	fa23 f302 	lsr.w	r3, r3, r2
 8000c3c:	ea4f 0343 	mov.w	r3, r3, lsl #1
 8000c40:	e7cc      	b.n	8000bdc <__aeabi_d2f+0x14>
 8000c42:	ea7f 5362 	mvns.w	r3, r2, asr #21
 8000c46:	d107      	bne.n	8000c58 <__aeabi_d2f+0x90>
 8000c48:	ea50 3301 	orrs.w	r3, r0, r1, lsl #12
 8000c4c:	bf1e      	ittt	ne
 8000c4e:	f04f 40fe 	movne.w	r0, #2130706432	; 0x7f000000
 8000c52:	f440 0040 	orrne.w	r0, r0, #12582912	; 0xc00000
 8000c56:	4770      	bxne	lr
 8000c58:	f001 4000 	and.w	r0, r1, #2147483648	; 0x80000000
 8000c5c:	f040 40fe 	orr.w	r0, r0, #2130706432	; 0x7f000000
 8000c60:	f440 0000 	orr.w	r0, r0, #8388608	; 0x800000
 8000c64:	4770      	bx	lr
 8000c66:	bf00      	nop

08000c68 <__aeabi_uldivmod>:
 8000c68:	b953      	cbnz	r3, 8000c80 <__aeabi_uldivmod+0x18>
 8000c6a:	b94a      	cbnz	r2, 8000c80 <__aeabi_uldivmod+0x18>
 8000c6c:	2900      	cmp	r1, #0
 8000c6e:	bf08      	it	eq
 8000c70:	2800      	cmpeq	r0, #0
 8000c72:	bf1c      	itt	ne
 8000c74:	f04f 31ff 	movne.w	r1, #4294967295
 8000c78:	f04f 30ff 	movne.w	r0, #4294967295
 8000c7c:	f000 b9a4 	b.w	8000fc8 <__aeabi_idiv0>
 8000c80:	f1ad 0c08 	sub.w	ip, sp, #8
 8000c84:	e96d ce04 	strd	ip, lr, [sp, #-16]!
 8000c88:	f000 f83c 	bl	8000d04 <__udivmoddi4>
 8000c8c:	f8dd e004 	ldr.w	lr, [sp, #4]
 8000c90:	e9dd 2302 	ldrd	r2, r3, [sp, #8]
 8000c94:	b004      	add	sp, #16
 8000c96:	4770      	bx	lr

08000c98 <__aeabi_d2lz>:
 8000c98:	b538      	push	{r3, r4, r5, lr}
 8000c9a:	2200      	movs	r2, #0
 8000c9c:	2300      	movs	r3, #0
 8000c9e:	4604      	mov	r4, r0
 8000ca0:	460d      	mov	r5, r1
 8000ca2:	f7ff ff2b 	bl	8000afc <__aeabi_dcmplt>
 8000ca6:	b928      	cbnz	r0, 8000cb4 <__aeabi_d2lz+0x1c>
 8000ca8:	4620      	mov	r0, r4
 8000caa:	4629      	mov	r1, r5
 8000cac:	e8bd 4038 	ldmia.w	sp!, {r3, r4, r5, lr}
 8000cb0:	f000 b80a 	b.w	8000cc8 <__aeabi_d2ulz>
 8000cb4:	4620      	mov	r0, r4
 8000cb6:	f105 4100 	add.w	r1, r5, #2147483648	; 0x80000000
 8000cba:	f000 f805 	bl	8000cc8 <__aeabi_d2ulz>
 8000cbe:	4240      	negs	r0, r0
 8000cc0:	eb61 0141 	sbc.w	r1, r1, r1, lsl #1
 8000cc4:	bd38      	pop	{r3, r4, r5, pc}
 8000cc6:	bf00      	nop

08000cc8 <__aeabi_d2ulz>:
 8000cc8:	b5d0      	push	{r4, r6, r7, lr}
 8000cca:	4b0c      	ldr	r3, [pc, #48]	; (8000cfc <__aeabi_d2ulz+0x34>)
 8000ccc:	2200      	movs	r2, #0
 8000cce:	4606      	mov	r6, r0
 8000cd0:	460f      	mov	r7, r1
 8000cd2:	f7ff fca1 	bl	8000618 <__aeabi_dmul>
 8000cd6:	f000 f979 	bl	8000fcc <__aeabi_d2uiz>
 8000cda:	4604      	mov	r4, r0
 8000cdc:	f7ff fc22 	bl	8000524 <__aeabi_ui2d>
 8000ce0:	4b07      	ldr	r3, [pc, #28]	; (8000d00 <__aeabi_d2ulz+0x38>)
 8000ce2:	2200      	movs	r2, #0
 8000ce4:	f7ff fc98 	bl	8000618 <__aeabi_dmul>
 8000ce8:	4602      	mov	r2, r0
 8000cea:	460b      	mov	r3, r1
 8000cec:	4630      	mov	r0, r6
 8000cee:	4639      	mov	r1, r7
 8000cf0:	f7ff fada 	bl	80002a8 <__aeabi_dsub>
 8000cf4:	f000 f96a 	bl	8000fcc <__aeabi_d2uiz>
 8000cf8:	4621      	mov	r1, r4
 8000cfa:	bdd0      	pop	{r4, r6, r7, pc}
 8000cfc:	3df00000 	.word	0x3df00000
 8000d00:	41f00000 	.word	0x41f00000

08000d04 <__udivmoddi4>:
 8000d04:	e92d 47f0 	stmdb	sp!, {r4, r5, r6, r7, r8, r9, sl, lr}
 8000d08:	9d08      	ldr	r5, [sp, #32]
 8000d0a:	4604      	mov	r4, r0
 8000d0c:	468c      	mov	ip, r1
 8000d0e:	2b00      	cmp	r3, #0
 8000d10:	f040 8083 	bne.w	8000e1a <__udivmoddi4+0x116>
 8000d14:	428a      	cmp	r2, r1
 8000d16:	4617      	mov	r7, r2
 8000d18:	d947      	bls.n	8000daa <__udivmoddi4+0xa6>
 8000d1a:	fab2 f282 	clz	r2, r2
 8000d1e:	b142      	cbz	r2, 8000d32 <__udivmoddi4+0x2e>
 8000d20:	f1c2 0020 	rsb	r0, r2, #32
 8000d24:	fa24 f000 	lsr.w	r0, r4, r0
 8000d28:	4091      	lsls	r1, r2
 8000d2a:	4097      	lsls	r7, r2
 8000d2c:	ea40 0c01 	orr.w	ip, r0, r1
 8000d30:	4094      	lsls	r4, r2
 8000d32:	ea4f 4817 	mov.w	r8, r7, lsr #16
 8000d36:	0c23      	lsrs	r3, r4, #16
 8000d38:	fbbc f6f8 	udiv	r6, ip, r8
 8000d3c:	fa1f fe87 	uxth.w	lr, r7
 8000d40:	fb08 c116 	mls	r1, r8, r6, ip
 8000d44:	ea43 4301 	orr.w	r3, r3, r1, lsl #16
 8000d48:	fb06 f10e 	mul.w	r1, r6, lr
 8000d4c:	4299      	cmp	r1, r3
 8000d4e:	d909      	bls.n	8000d64 <__udivmoddi4+0x60>
 8000d50:	18fb      	adds	r3, r7, r3
 8000d52:	f106 30ff 	add.w	r0, r6, #4294967295
 8000d56:	f080 8119 	bcs.w	8000f8c <__udivmoddi4+0x288>
 8000d5a:	4299      	cmp	r1, r3
 8000d5c:	f240 8116 	bls.w	8000f8c <__udivmoddi4+0x288>
 8000d60:	3e02      	subs	r6, #2
 8000d62:	443b      	add	r3, r7
 8000d64:	1a5b      	subs	r3, r3, r1
 8000d66:	b2a4      	uxth	r4, r4
 8000d68:	fbb3 f0f8 	udiv	r0, r3, r8
 8000d6c:	fb08 3310 	mls	r3, r8, r0, r3
 8000d70:	ea44 4403 	orr.w	r4, r4, r3, lsl #16
 8000d74:	fb00 fe0e 	mul.w	lr, r0, lr
 8000d78:	45a6      	cmp	lr, r4
 8000d7a:	d909      	bls.n	8000d90 <__udivmoddi4+0x8c>
 8000d7c:	193c      	adds	r4, r7, r4
 8000d7e:	f100 33ff 	add.w	r3, r0, #4294967295
 8000d82:	f080 8105 	bcs.w	8000f90 <__udivmoddi4+0x28c>
 8000d86:	45a6      	cmp	lr, r4
 8000d88:	f240 8102 	bls.w	8000f90 <__udivmoddi4+0x28c>
 8000d8c:	3802      	subs	r0, #2
 8000d8e:	443c      	add	r4, r7
 8000d90:	ea40 4006 	orr.w	r0, r0, r6, lsl #16
 8000d94:	eba4 040e 	sub.w	r4, r4, lr
 8000d98:	2600      	movs	r6, #0
 8000d9a:	b11d      	cbz	r5, 8000da4 <__udivmoddi4+0xa0>
 8000d9c:	40d4      	lsrs	r4, r2
 8000d9e:	2300      	movs	r3, #0
 8000da0:	e9c5 4300 	strd	r4, r3, [r5]
 8000da4:	4631      	mov	r1, r6
 8000da6:	e8bd 87f0 	ldmia.w	sp!, {r4, r5, r6, r7, r8, r9, sl, pc}
 8000daa:	b902      	cbnz	r2, 8000dae <__udivmoddi4+0xaa>
 8000dac:	deff      	udf	#255	; 0xff
 8000dae:	fab2 f282 	clz	r2, r2
 8000db2:	2a00      	cmp	r2, #0
 8000db4:	d150      	bne.n	8000e58 <__udivmoddi4+0x154>
 8000db6:	1bcb      	subs	r3, r1, r7
 8000db8:	ea4f 4e17 	mov.w	lr, r7, lsr #16
 8000dbc:	fa1f f887 	uxth.w	r8, r7
 8000dc0:	2601      	movs	r6, #1
 8000dc2:	fbb3 fcfe 	udiv	ip, r3, lr
 8000dc6:	0c21      	lsrs	r1, r4, #16
 8000dc8:	fb0e 331c 	mls	r3, lr, ip, r3
 8000dcc:	ea41 4103 	orr.w	r1, r1, r3, lsl #16
 8000dd0:	fb08 f30c 	mul.w	r3, r8, ip
 8000dd4:	428b      	cmp	r3, r1
 8000dd6:	d907      	bls.n	8000de8 <__udivmoddi4+0xe4>
 8000dd8:	1879      	adds	r1, r7, r1
 8000dda:	f10c 30ff 	add.w	r0, ip, #4294967295
 8000dde:	d202      	bcs.n	8000de6 <__udivmoddi4+0xe2>
 8000de0:	428b      	cmp	r3, r1
 8000de2:	f200 80e9 	bhi.w	8000fb8 <__udivmoddi4+0x2b4>
 8000de6:	4684      	mov	ip, r0
 8000de8:	1ac9      	subs	r1, r1, r3
 8000dea:	b2a3      	uxth	r3, r4
 8000dec:	fbb1 f0fe 	udiv	r0, r1, lr
 8000df0:	fb0e 1110 	mls	r1, lr, r0, r1
 8000df4:	ea43 4401 	orr.w	r4, r3, r1, lsl #16
 8000df8:	fb08 f800 	mul.w	r8, r8, r0
 8000dfc:	45a0      	cmp	r8, r4
 8000dfe:	d907      	bls.n	8000e10 <__udivmoddi4+0x10c>
 8000e00:	193c      	adds	r4, r7, r4
 8000e02:	f100 33ff 	add.w	r3, r0, #4294967295
 8000e06:	d202      	bcs.n	8000e0e <__udivmoddi4+0x10a>
 8000e08:	45a0      	cmp	r8, r4
 8000e0a:	f200 80d9 	bhi.w	8000fc0 <__udivmoddi4+0x2bc>
 8000e0e:	4618      	mov	r0, r3
 8000e10:	eba4 0408 	sub.w	r4, r4, r8
 8000e14:	ea40 400c 	orr.w	r0, r0, ip, lsl #16
 8000e18:	e7bf      	b.n	8000d9a <__udivmoddi4+0x96>
 8000e1a:	428b      	cmp	r3, r1
 8000e1c:	d909      	bls.n	8000e32 <__udivmoddi4+0x12e>
 8000e1e:	2d00      	cmp	r5, #0
 8000e20:	f000 80b1 	beq.w	8000f86 <__udivmoddi4+0x282>
 8000e24:	2600      	movs	r6, #0
 8000e26:	e9c5 0100 	strd	r0, r1, [r5]
 8000e2a:	4630      	mov	r0, r6
 8000e2c:	4631      	mov	r1, r6
 8000e2e:	e8bd 87f0 	ldmia.w	sp!, {r4, r5, r6, r7, r8, r9, sl, pc}
 8000e32:	fab3 f683 	clz	r6, r3
 8000e36:	2e00      	cmp	r6, #0
 8000e38:	d14a      	bne.n	8000ed0 <__udivmoddi4+0x1cc>
 8000e3a:	428b      	cmp	r3, r1
 8000e3c:	d302      	bcc.n	8000e44 <__udivmoddi4+0x140>
 8000e3e:	4282      	cmp	r2, r0
 8000e40:	f200 80b8 	bhi.w	8000fb4 <__udivmoddi4+0x2b0>
 8000e44:	1a84      	subs	r4, r0, r2
 8000e46:	eb61 0103 	sbc.w	r1, r1, r3
 8000e4a:	2001      	movs	r0, #1
 8000e4c:	468c      	mov	ip, r1
 8000e4e:	2d00      	cmp	r5, #0
 8000e50:	d0a8      	beq.n	8000da4 <__udivmoddi4+0xa0>
 8000e52:	e9c5 4c00 	strd	r4, ip, [r5]
 8000e56:	e7a5      	b.n	8000da4 <__udivmoddi4+0xa0>
 8000e58:	f1c2 0320 	rsb	r3, r2, #32
 8000e5c:	fa20 f603 	lsr.w	r6, r0, r3
 8000e60:	4097      	lsls	r7, r2
 8000e62:	fa01 f002 	lsl.w	r0, r1, r2
 8000e66:	ea4f 4e17 	mov.w	lr, r7, lsr #16
 8000e6a:	40d9      	lsrs	r1, r3
 8000e6c:	4330      	orrs	r0, r6
 8000e6e:	0c03      	lsrs	r3, r0, #16
 8000e70:	fbb1 f6fe 	udiv	r6, r1, lr
 8000e74:	fa1f f887 	uxth.w	r8, r7
 8000e78:	fb0e 1116 	mls	r1, lr, r6, r1
 8000e7c:	ea43 4301 	orr.w	r3, r3, r1, lsl #16
 8000e80:	fb06 f108 	mul.w	r1, r6, r8
 8000e84:	4299      	cmp	r1, r3
 8000e86:	fa04 f402 	lsl.w	r4, r4, r2
 8000e8a:	d909      	bls.n	8000ea0 <__udivmoddi4+0x19c>
 8000e8c:	18fb      	adds	r3, r7, r3
 8000e8e:	f106 3cff 	add.w	ip, r6, #4294967295
 8000e92:	f080 808d 	bcs.w	8000fb0 <__udivmoddi4+0x2ac>
 8000e96:	4299      	cmp	r1, r3
 8000e98:	f240 808a 	bls.w	8000fb0 <__udivmoddi4+0x2ac>
 8000e9c:	3e02      	subs	r6, #2
 8000e9e:	443b      	add	r3, r7
 8000ea0:	1a5b      	subs	r3, r3, r1
 8000ea2:	b281      	uxth	r1, r0
 8000ea4:	fbb3 f0fe 	udiv	r0, r3, lr
 8000ea8:	fb0e 3310 	mls	r3, lr, r0, r3
 8000eac:	ea41 4103 	orr.w	r1, r1, r3, lsl #16
 8000eb0:	fb00 f308 	mul.w	r3, r0, r8
 8000eb4:	428b      	cmp	r3, r1
 8000eb6:	d907      	bls.n	8000ec8 <__udivmoddi4+0x1c4>
 8000eb8:	1879      	adds	r1, r7, r1
 8000eba:	f100 3cff 	add.w	ip, r0, #4294967295
 8000ebe:	d273      	bcs.n	8000fa8 <__udivmoddi4+0x2a4>
 8000ec0:	428b      	cmp	r3, r1
 8000ec2:	d971      	bls.n	8000fa8 <__udivmoddi4+0x2a4>
 8000ec4:	3802      	subs	r0, #2
 8000ec6:	4439      	add	r1, r7
 8000ec8:	1acb      	subs	r3, r1, r3
 8000eca:	ea40 4606 	orr.w	r6, r0, r6, lsl #16
 8000ece:	e778      	b.n	8000dc2 <__udivmoddi4+0xbe>
 8000ed0:	f1c6 0c20 	rsb	ip, r6, #32
 8000ed4:	fa03 f406 	lsl.w	r4, r3, r6
 8000ed8:	fa22 f30c 	lsr.w	r3, r2, ip
 8000edc:	431c      	orrs	r4, r3
 8000ede:	fa20 f70c 	lsr.w	r7, r0, ip
 8000ee2:	fa01 f306 	lsl.w	r3, r1, r6
 8000ee6:	ea4f 4e14 	mov.w	lr, r4, lsr #16
 8000eea:	fa21 f10c 	lsr.w	r1, r1, ip
 8000eee:	431f      	orrs	r7, r3
 8000ef0:	0c3b      	lsrs	r3, r7, #16
 8000ef2:	fbb1 f9fe 	udiv	r9, r1, lr
 8000ef6:	fa1f f884 	uxth.w	r8, r4
 8000efa:	fb0e 1119 	mls	r1, lr, r9, r1
 8000efe:	ea43 4101 	orr.w	r1, r3, r1, lsl #16
 8000f02:	fb09 fa08 	mul.w	sl, r9, r8
 8000f06:	458a      	cmp	sl, r1
 8000f08:	fa02 f206 	lsl.w	r2, r2, r6
 8000f0c:	fa00 f306 	lsl.w	r3, r0, r6
 8000f10:	d908      	bls.n	8000f24 <__udivmoddi4+0x220>
 8000f12:	1861      	adds	r1, r4, r1
 8000f14:	f109 30ff 	add.w	r0, r9, #4294967295
 8000f18:	d248      	bcs.n	8000fac <__udivmoddi4+0x2a8>
 8000f1a:	458a      	cmp	sl, r1
 8000f1c:	d946      	bls.n	8000fac <__udivmoddi4+0x2a8>
 8000f1e:	f1a9 0902 	sub.w	r9, r9, #2
 8000f22:	4421      	add	r1, r4
 8000f24:	eba1 010a 	sub.w	r1, r1, sl
 8000f28:	b2bf      	uxth	r7, r7
 8000f2a:	fbb1 f0fe 	udiv	r0, r1, lr
 8000f2e:	fb0e 1110 	mls	r1, lr, r0, r1
 8000f32:	ea47 4701 	orr.w	r7, r7, r1, lsl #16
 8000f36:	fb00 f808 	mul.w	r8, r0, r8
 8000f3a:	45b8      	cmp	r8, r7
 8000f3c:	d907      	bls.n	8000f4e <__udivmoddi4+0x24a>
 8000f3e:	19e7      	adds	r7, r4, r7
 8000f40:	f100 31ff 	add.w	r1, r0, #4294967295
 8000f44:	d22e      	bcs.n	8000fa4 <__udivmoddi4+0x2a0>
 8000f46:	45b8      	cmp	r8, r7
 8000f48:	d92c      	bls.n	8000fa4 <__udivmoddi4+0x2a0>
 8000f4a:	3802      	subs	r0, #2
 8000f4c:	4427      	add	r7, r4
 8000f4e:	ea40 4009 	orr.w	r0, r0, r9, lsl #16
 8000f52:	eba7 0708 	sub.w	r7, r7, r8
 8000f56:	fba0 8902 	umull	r8, r9, r0, r2
 8000f5a:	454f      	cmp	r7, r9
 8000f5c:	46c6      	mov	lr, r8
 8000f5e:	4649      	mov	r1, r9
 8000f60:	d31a      	bcc.n	8000f98 <__udivmoddi4+0x294>
 8000f62:	d017      	beq.n	8000f94 <__udivmoddi4+0x290>
 8000f64:	b15d      	cbz	r5, 8000f7e <__udivmoddi4+0x27a>
 8000f66:	ebb3 020e 	subs.w	r2, r3, lr
 8000f6a:	eb67 0701 	sbc.w	r7, r7, r1
 8000f6e:	fa07 fc0c 	lsl.w	ip, r7, ip
 8000f72:	40f2      	lsrs	r2, r6
 8000f74:	ea4c 0202 	orr.w	r2, ip, r2
 8000f78:	40f7      	lsrs	r7, r6
 8000f7a:	e9c5 2700 	strd	r2, r7, [r5]
 8000f7e:	2600      	movs	r6, #0
 8000f80:	4631      	mov	r1, r6
 8000f82:	e8bd 87f0 	ldmia.w	sp!, {r4, r5, r6, r7, r8, r9, sl, pc}
 8000f86:	462e      	mov	r6, r5
 8000f88:	4628      	mov	r0, r5
 8000f8a:	e70b      	b.n	8000da4 <__udivmoddi4+0xa0>
 8000f8c:	4606      	mov	r6, r0
 8000f8e:	e6e9      	b.n	8000d64 <__udivmoddi4+0x60>
 8000f90:	4618      	mov	r0, r3
 8000f92:	e6fd      	b.n	8000d90 <__udivmoddi4+0x8c>
 8000f94:	4543      	cmp	r3, r8
 8000f96:	d2e5      	bcs.n	8000f64 <__udivmoddi4+0x260>
 8000f98:	ebb8 0e02 	subs.w	lr, r8, r2
 8000f9c:	eb69 0104 	sbc.w	r1, r9, r4
 8000fa0:	3801      	subs	r0, #1
 8000fa2:	e7df      	b.n	8000f64 <__udivmoddi4+0x260>
 8000fa4:	4608      	mov	r0, r1
 8000fa6:	e7d2      	b.n	8000f4e <__udivmoddi4+0x24a>
 8000fa8:	4660      	mov	r0, ip
 8000faa:	e78d      	b.n	8000ec8 <__udivmoddi4+0x1c4>
 8000fac:	4681      	mov	r9, r0
 8000fae:	e7b9      	b.n	8000f24 <__udivmoddi4+0x220>
 8000fb0:	4666      	mov	r6, ip
 8000fb2:	e775      	b.n	8000ea0 <__udivmoddi4+0x19c>
 8000fb4:	4630      	mov	r0, r6
 8000fb6:	e74a      	b.n	8000e4e <__udivmoddi4+0x14a>
 8000fb8:	f1ac 0c02 	sub.w	ip, ip, #2
 8000fbc:	4439      	add	r1, r7
 8000fbe:	e713      	b.n	8000de8 <__udivmoddi4+0xe4>
 8000fc0:	3802      	subs	r0, #2
 8000fc2:	443c      	add	r4, r7
 8000fc4:	e724      	b.n	8000e10 <__udivmoddi4+0x10c>
 8000fc6:	bf00      	nop

08000fc8 <__aeabi_idiv0>:
 8000fc8:	4770      	bx	lr
 8000fca:	bf00      	nop

08000fcc <__aeabi_d2uiz>:
 8000fcc:	004a      	lsls	r2, r1, #1
 8000fce:	d211      	bcs.n	8000ff4 <__aeabi_d2uiz+0x28>
 8000fd0:	f512 1200 	adds.w	r2, r2, #2097152	; 0x200000
 8000fd4:	d211      	bcs.n	8000ffa <__aeabi_d2uiz+0x2e>
 8000fd6:	d50d      	bpl.n	8000ff4 <__aeabi_d2uiz+0x28>
 8000fd8:	f46f 7378 	mvn.w	r3, #992	; 0x3e0
 8000fdc:	ebb3 5262 	subs.w	r2, r3, r2, asr #21
 8000fe0:	d40e      	bmi.n	8001000 <__aeabi_d2uiz+0x34>
 8000fe2:	ea4f 23c1 	mov.w	r3, r1, lsl #11
 8000fe6:	f043 4300 	orr.w	r3, r3, #2147483648	; 0x80000000
 8000fea:	ea43 5350 	orr.w	r3, r3, r0, lsr #21
 8000fee:	fa23 f002 	lsr.w	r0, r3, r2
 8000ff2:	4770      	bx	lr
 8000ff4:	f04f 0000 	mov.w	r0, #0
 8000ff8:	4770      	bx	lr
 8000ffa:	ea50 3001 	orrs.w	r0, r0, r1, lsl #12
 8000ffe:	d102      	bne.n	8001006 <__aeabi_d2uiz+0x3a>
 8001000:	f04f 30ff 	mov.w	r0, #4294967295
 8001004:	4770      	bx	lr
 8001006:	f04f 0000 	mov.w	r0, #0
 800100a:	4770      	bx	lr

0800100c <_ZNK6tflite15MicroOpResolver6FindOpENS_15BuiltinOperatorEi>:
 800100c:	6803      	ldr	r3, [r0, #0]
 800100e:	691b      	ldr	r3, [r3, #16]
 8001010:	4718      	bx	r3

08001012 <_ZNK6tflite15MicroOpResolver6FindOpEPKci>:
 8001012:	6803      	ldr	r3, [r0, #0]
 8001014:	695b      	ldr	r3, [r3, #20]
 8001016:	4718      	bx	r3

08001018 <__tcf_0>:
 8001018:	4770      	bx	lr

0800101a <_ZNK6tflite22MicroMutableOpResolverILj1EE6FindOpENS_15BuiltinOperatorE>:
 800101a:	2920      	cmp	r1, #32
 800101c:	d006      	beq.n	800102c <_ZNK6tflite22MicroMutableOpResolverILj1EE6FindOpENS_15BuiltinOperatorE+0x12>
 800101e:	6a43      	ldr	r3, [r0, #36]	; 0x24
 8001020:	b123      	cbz	r3, 800102c <_ZNK6tflite22MicroMutableOpResolverILj1EE6FindOpENS_15BuiltinOperatorE+0x12>
 8001022:	6983      	ldr	r3, [r0, #24]
 8001024:	428b      	cmp	r3, r1
 8001026:	d101      	bne.n	800102c <_ZNK6tflite22MicroMutableOpResolverILj1EE6FindOpENS_15BuiltinOperatorE+0x12>
 8001028:	3004      	adds	r0, #4
 800102a:	4770      	bx	lr
 800102c:	2000      	movs	r0, #0
 800102e:	4770      	bx	lr

08001030 <_ZN6tflite22MicroMutableOpResolverILj1EED1Ev>:
 8001030:	4770      	bx	lr
	...

08001034 <__tcf_2>:
 8001034:	4801      	ldr	r0, [pc, #4]	; (800103c <__tcf_2+0x8>)
 8001036:	f003 b9b7 	b.w	80043a8 <_ZN6tflite16MicroInterpreterD1Ev>
 800103a:	bf00      	nop
 800103c:	20001620 	.word	0x20001620

08001040 <_ZNK6tflite22MicroMutableOpResolverILj1EE15GetOpDataParserENS_15BuiltinOperatorE>:
 8001040:	b508      	push	{r3, lr}
 8001042:	6b03      	ldr	r3, [r0, #48]	; 0x30
 8001044:	2b01      	cmp	r3, #1
 8001046:	d901      	bls.n	800104c <_ZNK6tflite22MicroMutableOpResolverILj1EE15GetOpDataParserENS_15BuiltinOperatorE+0xc>
 8001048:	f004 fbe2 	bl	8005810 <abort>
 800104c:	b12b      	cbz	r3, 800105a <_ZNK6tflite22MicroMutableOpResolverILj1EE15GetOpDataParserENS_15BuiltinOperatorE+0x1a>
 800104e:	f890 3028 	ldrb.w	r3, [r0, #40]	; 0x28
 8001052:	428b      	cmp	r3, r1
 8001054:	d101      	bne.n	800105a <_ZNK6tflite22MicroMutableOpResolverILj1EE15GetOpDataParserENS_15BuiltinOperatorE+0x1a>
 8001056:	6ac0      	ldr	r0, [r0, #44]	; 0x2c
 8001058:	bd08      	pop	{r3, pc}
 800105a:	2000      	movs	r0, #0
 800105c:	e7fc      	b.n	8001058 <_ZNK6tflite22MicroMutableOpResolverILj1EE15GetOpDataParserENS_15BuiltinOperatorE+0x18>

0800105e <_ZNK6tflite22MicroMutableOpResolverILj1EE6FindOpEPKc>:
 800105e:	e92d 41f0 	stmdb	sp!, {r4, r5, r6, r7, r8, lr}
 8001062:	6a47      	ldr	r7, [r0, #36]	; 0x24
 8001064:	4604      	mov	r4, r0
 8001066:	4688      	mov	r8, r1
 8001068:	4605      	mov	r5, r0
 800106a:	2600      	movs	r6, #0
 800106c:	42b7      	cmp	r7, r6
 800106e:	d00f      	beq.n	8001090 <_ZNK6tflite22MicroMutableOpResolverILj1EE6FindOpEPKc+0x32>
 8001070:	69ab      	ldr	r3, [r5, #24]
 8001072:	2b20      	cmp	r3, #32
 8001074:	d109      	bne.n	800108a <_ZNK6tflite22MicroMutableOpResolverILj1EE6FindOpEPKc+0x2c>
 8001076:	69e8      	ldr	r0, [r5, #28]
 8001078:	4641      	mov	r1, r8
 800107a:	f7ff f8a9 	bl	80001d0 <strcmp>
 800107e:	b920      	cbnz	r0, 800108a <_ZNK6tflite22MicroMutableOpResolverILj1EE6FindOpEPKc+0x2c>
 8001080:	eb04 1046 	add.w	r0, r4, r6, lsl #5
 8001084:	3004      	adds	r0, #4
 8001086:	e8bd 81f0 	ldmia.w	sp!, {r4, r5, r6, r7, r8, pc}
 800108a:	3601      	adds	r6, #1
 800108c:	3520      	adds	r5, #32
 800108e:	e7ed      	b.n	800106c <_ZNK6tflite22MicroMutableOpResolverILj1EE6FindOpEPKc+0xe>
 8001090:	2000      	movs	r0, #0
 8001092:	e7f8      	b.n	8001086 <_ZNK6tflite22MicroMutableOpResolverILj1EE6FindOpEPKc+0x28>

08001094 <_ZN6tflite22MicroMutableOpResolverILj1EED0Ev>:
 8001094:	b510      	push	{r4, lr}
 8001096:	2138      	movs	r1, #56	; 0x38
 8001098:	4604      	mov	r4, r0
 800109a:	f004 fae7 	bl	800566c <_ZdlPvj>
 800109e:	4620      	mov	r0, r4
 80010a0:	bd10      	pop	{r4, pc}

080010a2 <__tcf_1>:
 80010a2:	4770      	bx	lr

080010a4 <_Z18SystemClock_Configv>:
 80010a4:	b500      	push	{lr}
 80010a6:	b097      	sub	sp, #92	; 0x5c
 80010a8:	2244      	movs	r2, #68	; 0x44
 80010aa:	2100      	movs	r1, #0
 80010ac:	a805      	add	r0, sp, #20
 80010ae:	f004 fc53 	bl	8005958 <memset>
 80010b2:	2214      	movs	r2, #20
 80010b4:	2100      	movs	r1, #0
 80010b6:	4668      	mov	r0, sp
 80010b8:	f004 fc4e 	bl	8005958 <memset>
 80010bc:	f44f 7000 	mov.w	r0, #512	; 0x200
 80010c0:	f000 fc80 	bl	80019c4 <HAL_PWREx_ControlVoltageScaling>
 80010c4:	b108      	cbz	r0, 80010ca <_Z18SystemClock_Configv+0x26>
 80010c6:	b672      	cpsid	i
 80010c8:	e7fe      	b.n	80010c8 <_Z18SystemClock_Configv+0x24>
 80010ca:	2210      	movs	r2, #16
 80010cc:	f44f 7180 	mov.w	r1, #256	; 0x100
 80010d0:	2001      	movs	r0, #1
 80010d2:	e9cd 1208 	strd	r1, r2, [sp, #32]
 80010d6:	220a      	movs	r2, #10
 80010d8:	2302      	movs	r3, #2
 80010da:	e9cd 0211 	strd	r0, r2, [sp, #68]	; 0x44
 80010de:	2207      	movs	r2, #7
 80010e0:	a805      	add	r0, sp, #20
 80010e2:	e9cd 330f 	strd	r3, r3, [sp, #60]	; 0x3c
 80010e6:	e9cd 2313 	strd	r2, r3, [sp, #76]	; 0x4c
 80010ea:	9305      	str	r3, [sp, #20]
 80010ec:	9315      	str	r3, [sp, #84]	; 0x54
 80010ee:	f000 fd2f 	bl	8001b50 <HAL_RCC_OscConfig>
 80010f2:	b108      	cbz	r0, 80010f8 <_Z18SystemClock_Configv+0x54>
 80010f4:	b672      	cpsid	i
 80010f6:	e7fe      	b.n	80010f6 <_Z18SystemClock_Configv+0x52>
 80010f8:	e9cd 0002 	strd	r0, r0, [sp, #8]
 80010fc:	220f      	movs	r2, #15
 80010fe:	2303      	movs	r3, #3
 8001100:	9004      	str	r0, [sp, #16]
 8001102:	2104      	movs	r1, #4
 8001104:	4668      	mov	r0, sp
 8001106:	e9cd 2300 	strd	r2, r3, [sp]
 800110a:	f000 ffcb 	bl	80020a4 <HAL_RCC_ClockConfig>
 800110e:	b108      	cbz	r0, 8001114 <_Z18SystemClock_Configv+0x70>
 8001110:	b672      	cpsid	i
 8001112:	e7fe      	b.n	8001112 <_Z18SystemClock_Configv+0x6e>
 8001114:	b017      	add	sp, #92	; 0x5c
 8001116:	f85d fb04 	ldr.w	pc, [sp], #4
	...

0800111c <main>:
 800111c:	e92d 4ff0 	stmdb	sp!, {r4, r5, r6, r7, r8, r9, sl, fp, lr}
 8001120:	ed2d 8b02 	vpush	{d8}
 8001124:	b097      	sub	sp, #92	; 0x5c
 8001126:	f000 faf9 	bl	800171c <HAL_Init>
 800112a:	f7ff ffbb 	bl	80010a4 <_Z18SystemClock_Configv>
 800112e:	2214      	movs	r2, #20
 8001130:	2100      	movs	r1, #0
 8001132:	a809      	add	r0, sp, #36	; 0x24
 8001134:	f004 fc10 	bl	8005958 <memset>
 8001138:	4ba6      	ldr	r3, [pc, #664]	; (80013d4 <main+0x2b8>)
 800113a:	48a7      	ldr	r0, [pc, #668]	; (80013d8 <main+0x2bc>)
 800113c:	6cda      	ldr	r2, [r3, #76]	; 0x4c
 800113e:	4da7      	ldr	r5, [pc, #668]	; (80013dc <main+0x2c0>)
 8001140:	f042 0204 	orr.w	r2, r2, #4
 8001144:	64da      	str	r2, [r3, #76]	; 0x4c
 8001146:	6cda      	ldr	r2, [r3, #76]	; 0x4c
 8001148:	f002 0204 	and.w	r2, r2, #4
 800114c:	9206      	str	r2, [sp, #24]
 800114e:	9a06      	ldr	r2, [sp, #24]
 8001150:	6cda      	ldr	r2, [r3, #76]	; 0x4c
 8001152:	f042 0201 	orr.w	r2, r2, #1
 8001156:	64da      	str	r2, [r3, #76]	; 0x4c
 8001158:	6cda      	ldr	r2, [r3, #76]	; 0x4c
 800115a:	f002 0201 	and.w	r2, r2, #1
 800115e:	9207      	str	r2, [sp, #28]
 8001160:	9a07      	ldr	r2, [sp, #28]
 8001162:	6cda      	ldr	r2, [r3, #76]	; 0x4c
 8001164:	f042 0202 	orr.w	r2, r2, #2
 8001168:	64da      	str	r2, [r3, #76]	; 0x4c
 800116a:	6cdb      	ldr	r3, [r3, #76]	; 0x4c
 800116c:	f003 0302 	and.w	r3, r3, #2
 8001170:	9308      	str	r3, [sp, #32]
 8001172:	2200      	movs	r2, #0
 8001174:	2108      	movs	r1, #8
 8001176:	9b08      	ldr	r3, [sp, #32]
 8001178:	f000 fc16 	bl	80019a8 <HAL_GPIO_WritePin>
 800117c:	2301      	movs	r3, #1
 800117e:	2108      	movs	r1, #8
 8001180:	2400      	movs	r4, #0
 8001182:	e9cd 1309 	strd	r1, r3, [sp, #36]	; 0x24
 8001186:	4894      	ldr	r0, [pc, #592]	; (80013d8 <main+0x2bc>)
 8001188:	a909      	add	r1, sp, #36	; 0x24
 800118a:	e9cd 440b 	strd	r4, r4, [sp, #44]	; 0x2c
 800118e:	f000 fb55 	bl	800183c <HAL_GPIO_Init>
 8001192:	4893      	ldr	r0, [pc, #588]	; (80013e0 <main+0x2c4>)
 8001194:	f44f 33e1 	mov.w	r3, #115200	; 0x1c200
 8001198:	e9c0 5300 	strd	r5, r3, [r0]
 800119c:	230c      	movs	r3, #12
 800119e:	e9c0 4402 	strd	r4, r4, [r0, #8]
 80011a2:	e9c0 3405 	strd	r3, r4, [r0, #20]
 80011a6:	e9c0 4407 	strd	r4, r4, [r0, #28]
 80011aa:	6104      	str	r4, [r0, #16]
 80011ac:	6244      	str	r4, [r0, #36]	; 0x24
 80011ae:	f001 fca4 	bl	8002afa <HAL_UART_Init>
 80011b2:	b108      	cbz	r0, 80011b8 <main+0x9c>
 80011b4:	b672      	cpsid	i
 80011b6:	e7fe      	b.n	80011b6 <main+0x9a>
 80011b8:	4f8a      	ldr	r7, [pc, #552]	; (80013e4 <main+0x2c8>)
 80011ba:	4a8b      	ldr	r2, [pc, #556]	; (80013e8 <main+0x2cc>)
 80011bc:	60b8      	str	r0, [r7, #8]
 80011be:	234f      	movs	r3, #79	; 0x4f
 80011c0:	e9c7 2300 	strd	r2, r3, [r7]
 80011c4:	f64f 73ff 	movw	r3, #65535	; 0xffff
 80011c8:	e9c7 3003 	strd	r3, r0, [r7, #12]
 80011cc:	e9c7 0005 	strd	r0, r0, [r7, #20]
 80011d0:	4638      	mov	r0, r7
 80011d2:	f001 fa4b 	bl	800266c <HAL_TIM_Base_Init>
 80011d6:	b108      	cbz	r0, 80011dc <main+0xc0>
 80011d8:	b672      	cpsid	i
 80011da:	e7fe      	b.n	80011da <main+0xbe>
 80011dc:	4c83      	ldr	r4, [pc, #524]	; (80013ec <main+0x2d0>)
 80011de:	4638      	mov	r0, r7
 80011e0:	f001 f9e4 	bl	80025ac <HAL_TIM_Base_Start>
 80011e4:	7823      	ldrb	r3, [r4, #0]
 80011e6:	f3bf 8f5b 	dmb	ish
 80011ea:	07db      	lsls	r3, r3, #31
 80011ec:	d409      	bmi.n	8001202 <main+0xe6>
 80011ee:	4620      	mov	r0, r4
 80011f0:	f004 fa40 	bl	8005674 <__cxa_guard_acquire>
 80011f4:	b128      	cbz	r0, 8001202 <main+0xe6>
 80011f6:	4620      	mov	r0, r4
 80011f8:	f004 fa48 	bl	800568c <__cxa_guard_release>
 80011fc:	487c      	ldr	r0, [pc, #496]	; (80013f0 <main+0x2d4>)
 80011fe:	f004 fb2d 	bl	800585c <atexit>
 8001202:	4c7c      	ldr	r4, [pc, #496]	; (80013f4 <main+0x2d8>)
 8001204:	487c      	ldr	r0, [pc, #496]	; (80013f8 <main+0x2dc>)
 8001206:	497d      	ldr	r1, [pc, #500]	; (80013fc <main+0x2e0>)
 8001208:	6020      	str	r0, [r4, #0]
 800120a:	f001 fcb3 	bl	8002b74 <_ZN6tflite13ErrorReporter6ReportEPKcz>
 800120e:	4b7c      	ldr	r3, [pc, #496]	; (8001400 <main+0x2e4>)
 8001210:	497c      	ldr	r1, [pc, #496]	; (8001404 <main+0x2e8>)
 8001212:	6818      	ldr	r0, [r3, #0]
 8001214:	181a      	adds	r2, r3, r0
 8001216:	581b      	ldr	r3, [r3, r0]
 8001218:	600a      	str	r2, [r1, #0]
 800121a:	1ad3      	subs	r3, r2, r3
 800121c:	46a0      	mov	r8, r4
 800121e:	8818      	ldrh	r0, [r3, #0]
 8001220:	2804      	cmp	r0, #4
 8001222:	4689      	mov	r9, r1
 8001224:	d904      	bls.n	8001230 <main+0x114>
 8001226:	889b      	ldrh	r3, [r3, #4]
 8001228:	b113      	cbz	r3, 8001230 <main+0x114>
 800122a:	58d3      	ldr	r3, [r2, r3]
 800122c:	2b03      	cmp	r3, #3
 800122e:	d005      	beq.n	800123c <main+0x120>
 8001230:	4975      	ldr	r1, [pc, #468]	; (8001408 <main+0x2ec>)
 8001232:	f8d8 0000 	ldr.w	r0, [r8]
 8001236:	f001 fc9d 	bl	8002b74 <_ZN6tflite13ErrorReporter6ReportEPKcz>
 800123a:	e7fe      	b.n	800123a <main+0x11e>
 800123c:	4e73      	ldr	r6, [pc, #460]	; (800140c <main+0x2f0>)
 800123e:	4c74      	ldr	r4, [pc, #464]	; (8001410 <main+0x2f4>)
 8001240:	7835      	ldrb	r5, [r6, #0]
 8001242:	f3bf 8f5b 	dmb	ish
 8001246:	f015 0501 	ands.w	r5, r5, #1
 800124a:	d10e      	bne.n	800126a <main+0x14e>
 800124c:	4630      	mov	r0, r6
 800124e:	f004 fa11 	bl	8005674 <__cxa_guard_acquire>
 8001252:	b150      	cbz	r0, 800126a <main+0x14e>
 8001254:	4b6f      	ldr	r3, [pc, #444]	; (8001414 <main+0x2f8>)
 8001256:	6023      	str	r3, [r4, #0]
 8001258:	4630      	mov	r0, r6
 800125a:	e9c4 550c 	strd	r5, r5, [r4, #48]	; 0x30
 800125e:	6265      	str	r5, [r4, #36]	; 0x24
 8001260:	f004 fa14 	bl	800568c <__cxa_guard_release>
 8001264:	486c      	ldr	r0, [pc, #432]	; (8001418 <main+0x2fc>)
 8001266:	f004 faf9 	bl	800585c <atexit>
 800126a:	a809      	add	r0, sp, #36	; 0x24
 800126c:	f004 f816 	bl	800529c <_ZN6tflite3ops5micro24Register_FULLY_CONNECTEDEv>
 8001270:	4867      	ldr	r0, [pc, #412]	; (8001410 <main+0x2f4>)
 8001272:	2109      	movs	r1, #9
 8001274:	f7ff fed1 	bl	800101a <_ZNK6tflite22MicroMutableOpResolverILj1EE6FindOpENS_15BuiltinOperatorE>
 8001278:	b158      	cbz	r0, 8001292 <main+0x176>
 800127a:	6b60      	ldr	r0, [r4, #52]	; 0x34
 800127c:	b118      	cbz	r0, 8001286 <main+0x16a>
 800127e:	4967      	ldr	r1, [pc, #412]	; (800141c <main+0x300>)
 8001280:	2209      	movs	r2, #9
 8001282:	f001 fc77 	bl	8002b74 <_ZN6tflite13ErrorReporter6ReportEPKcz>
 8001286:	4966      	ldr	r1, [pc, #408]	; (8001420 <main+0x304>)
 8001288:	f8d8 0000 	ldr.w	r0, [r8]
 800128c:	f001 fc72 	bl	8002b74 <_ZN6tflite13ErrorReporter6ReportEPKcz>
 8001290:	e7fe      	b.n	8001290 <main+0x174>
 8001292:	6a63      	ldr	r3, [r4, #36]	; 0x24
 8001294:	b143      	cbz	r3, 80012a8 <main+0x18c>
 8001296:	6b60      	ldr	r0, [r4, #52]	; 0x34
 8001298:	2800      	cmp	r0, #0
 800129a:	d0f4      	beq.n	8001286 <main+0x16a>
 800129c:	4961      	ldr	r1, [pc, #388]	; (8001424 <main+0x308>)
 800129e:	2301      	movs	r3, #1
 80012a0:	2209      	movs	r2, #9
 80012a2:	f001 fc67 	bl	8002b74 <_ZN6tflite13ErrorReporter6ReportEPKcz>
 80012a6:	e7ee      	b.n	8001286 <main+0x16a>
 80012a8:	ae09      	add	r6, sp, #36	; 0x24
 80012aa:	ce0f      	ldmia	r6!, {r0, r1, r2, r3}
 80012ac:	4d5e      	ldr	r5, [pc, #376]	; (8001428 <main+0x30c>)
 80012ae:	c50f      	stmia	r5!, {r0, r1, r2, r3}
 80012b0:	e896 000f 	ldmia.w	r6, {r0, r1, r2, r3}
 80012b4:	e885 000f 	stmia.w	r5, {r0, r1, r2, r3}
 80012b8:	2301      	movs	r3, #1
 80012ba:	6263      	str	r3, [r4, #36]	; 0x24
 80012bc:	6b23      	ldr	r3, [r4, #48]	; 0x30
 80012be:	4e5b      	ldr	r6, [pc, #364]	; (800142c <main+0x310>)
 80012c0:	18e1      	adds	r1, r4, r3
 80012c2:	2209      	movs	r2, #9
 80012c4:	61a2      	str	r2, [r4, #24]
 80012c6:	f881 2028 	strb.w	r2, [r1, #40]	; 0x28
 80012ca:	eb04 0283 	add.w	r2, r4, r3, lsl #2
 80012ce:	4958      	ldr	r1, [pc, #352]	; (8001430 <main+0x314>)
 80012d0:	62d1      	str	r1, [r2, #44]	; 0x2c
 80012d2:	3301      	adds	r3, #1
 80012d4:	6323      	str	r3, [r4, #48]	; 0x30
 80012d6:	7833      	ldrb	r3, [r6, #0]
 80012d8:	f3bf 8f5b 	dmb	ish
 80012dc:	f013 0401 	ands.w	r4, r3, #1
 80012e0:	d118      	bne.n	8001314 <main+0x1f8>
 80012e2:	4630      	mov	r0, r6
 80012e4:	f004 f9c6 	bl	8005674 <__cxa_guard_acquire>
 80012e8:	b1a0      	cbz	r0, 8001314 <main+0x1f8>
 80012ea:	9402      	str	r4, [sp, #8]
 80012ec:	f8d8 3000 	ldr.w	r3, [r8]
 80012f0:	9301      	str	r3, [sp, #4]
 80012f2:	f44f 6300 	mov.w	r3, #2048	; 0x800
 80012f6:	9300      	str	r3, [sp, #0]
 80012f8:	f8d9 1000 	ldr.w	r1, [r9]
 80012fc:	4b4d      	ldr	r3, [pc, #308]	; (8001434 <main+0x318>)
 80012fe:	484e      	ldr	r0, [pc, #312]	; (8001438 <main+0x31c>)
 8001300:	f1a5 0214 	sub.w	r2, r5, #20
 8001304:	f002 ff3e 	bl	8004184 <_ZN6tflite16MicroInterpreterC1EPKNS_5ModelERKNS_15MicroOpResolverEPhjPNS_13ErrorReporterEPNS_8ProfilerE>
 8001308:	4630      	mov	r0, r6
 800130a:	f004 f9bf 	bl	800568c <__cxa_guard_release>
 800130e:	484b      	ldr	r0, [pc, #300]	; (800143c <main+0x320>)
 8001310:	f004 faa4 	bl	800585c <atexit>
 8001314:	4c4a      	ldr	r4, [pc, #296]	; (8001440 <main+0x324>)
 8001316:	4848      	ldr	r0, [pc, #288]	; (8001438 <main+0x31c>)
 8001318:	6020      	str	r0, [r4, #0]
 800131a:	f003 f863 	bl	80043e4 <_ZN6tflite16MicroInterpreter15AllocateTensorsEv>
 800131e:	4601      	mov	r1, r0
 8001320:	b128      	cbz	r0, 800132e <main+0x212>
 8001322:	4948      	ldr	r1, [pc, #288]	; (8001444 <main+0x328>)
 8001324:	f8d8 0000 	ldr.w	r0, [r8]
 8001328:	f001 fc24 	bl	8002b74 <_ZN6tflite13ErrorReporter6ReportEPKcz>
 800132c:	e7fe      	b.n	800132c <main+0x210>
 800132e:	9005      	str	r0, [sp, #20]
 8001330:	6820      	ldr	r0, [r4, #0]
 8001332:	4d45      	ldr	r5, [pc, #276]	; (8001448 <main+0x32c>)
 8001334:	4e45      	ldr	r6, [pc, #276]	; (800144c <main+0x330>)
 8001336:	f8df a120 	ldr.w	sl, [pc, #288]	; 8001458 <main+0x33c>
 800133a:	f002 ffb9 	bl	80042b0 <_ZN6tflite16MicroInterpreter5inputEj>
 800133e:	9905      	ldr	r1, [sp, #20]
 8001340:	6028      	str	r0, [r5, #0]
 8001342:	6820      	ldr	r0, [r4, #0]
 8001344:	f002 fff2 	bl	800432c <_ZN6tflite16MicroInterpreter6outputEj>
 8001348:	682b      	ldr	r3, [r5, #0]
 800134a:	4941      	ldr	r1, [pc, #260]	; (8001450 <main+0x334>)
 800134c:	699b      	ldr	r3, [r3, #24]
 800134e:	6030      	str	r0, [r6, #0]
 8001350:	ea4f 0993 	mov.w	r9, r3, lsr #2
 8001354:	464a      	mov	r2, r9
 8001356:	a809      	add	r0, sp, #36	; 0x24
 8001358:	f005 f9c8 	bl	80066ec <siprintf>
 800135c:	2364      	movs	r3, #100	; 0x64
 800135e:	b282      	uxth	r2, r0
 8001360:	a909      	add	r1, sp, #36	; 0x24
 8001362:	481f      	ldr	r0, [pc, #124]	; (80013e0 <main+0x2c4>)
 8001364:	f001 fb3c 	bl	80029e0 <HAL_UART_Transmit>
 8001368:	eeb0 8a00 	vmov.f32	s16, #0	; 0x40000000  2.0
 800136c:	6829      	ldr	r1, [r5, #0]
 800136e:	2300      	movs	r3, #0
 8001370:	454b      	cmp	r3, r9
 8001372:	d006      	beq.n	8001382 <main+0x266>
 8001374:	684a      	ldr	r2, [r1, #4]
 8001376:	eb02 0283 	add.w	r2, r2, r3, lsl #2
 800137a:	ed82 8a00 	vstr	s16, [r2]
 800137e:	3301      	adds	r3, #1
 8001380:	e7f6      	b.n	8001370 <main+0x254>
 8001382:	683b      	ldr	r3, [r7, #0]
 8001384:	6820      	ldr	r0, [r4, #0]
 8001386:	f8d3 b024 	ldr.w	fp, [r3, #36]	; 0x24
 800138a:	f003 f8bb 	bl	8004504 <_ZN6tflite16MicroInterpreter6InvokeEv>
 800138e:	b120      	cbz	r0, 800139a <main+0x27e>
 8001390:	f8d8 0000 	ldr.w	r0, [r8]
 8001394:	4651      	mov	r1, sl
 8001396:	f001 fbed 	bl	8002b74 <_ZN6tflite13ErrorReporter6ReportEPKcz>
 800139a:	6832      	ldr	r2, [r6, #0]
 800139c:	683b      	ldr	r3, [r7, #0]
 800139e:	6852      	ldr	r2, [r2, #4]
 80013a0:	6a5b      	ldr	r3, [r3, #36]	; 0x24
 80013a2:	6810      	ldr	r0, [r2, #0]
 80013a4:	9305      	str	r3, [sp, #20]
 80013a6:	f7ff f8df 	bl	8000568 <__aeabi_f2d>
 80013aa:	9b05      	ldr	r3, [sp, #20]
 80013ac:	eba3 030b 	sub.w	r3, r3, fp
 80013b0:	9300      	str	r3, [sp, #0]
 80013b2:	4602      	mov	r2, r0
 80013b4:	460b      	mov	r3, r1
 80013b6:	a809      	add	r0, sp, #36	; 0x24
 80013b8:	4926      	ldr	r1, [pc, #152]	; (8001454 <main+0x338>)
 80013ba:	f005 f997 	bl	80066ec <siprintf>
 80013be:	2364      	movs	r3, #100	; 0x64
 80013c0:	b282      	uxth	r2, r0
 80013c2:	a909      	add	r1, sp, #36	; 0x24
 80013c4:	4806      	ldr	r0, [pc, #24]	; (80013e0 <main+0x2c4>)
 80013c6:	f001 fb0b 	bl	80029e0 <HAL_UART_Transmit>
 80013ca:	f44f 70fa 	mov.w	r0, #500	; 0x1f4
 80013ce:	f000 f9c7 	bl	8001760 <HAL_Delay>
 80013d2:	e7cb      	b.n	800136c <main+0x250>
 80013d4:	40021000 	.word	0x40021000
 80013d8:	48000400 	.word	0x48000400
 80013dc:	40004400 	.word	0x40004400
 80013e0:	20001700 	.word	0x20001700
 80013e4:	200016b4 	.word	0x200016b4
 80013e8:	40014400 	.word	0x40014400
 80013ec:	20000dc4 	.word	0x20000dc4
 80013f0:	08001019 	.word	0x08001019
 80013f4:	200015e0 	.word	0x200015e0
 80013f8:	20000000 	.word	0x20000000
 80013fc:	080086e0 	.word	0x080086e0
 8001400:	20000004 	.word	0x20000004
 8001404:	200015e4 	.word	0x200015e4
 8001408:	080086fb 	.word	0x080086fb
 800140c:	20000dbc 	.word	0x20000dbc
 8001410:	200015e8 	.word	0x200015e8
 8001414:	08008840 	.word	0x08008840
 8001418:	080010a3 	.word	0x080010a3
 800141c:	0800871f 	.word	0x0800871f
 8001420:	080087b1 	.word	0x080087b1
 8001424:	0800876e 	.word	0x0800876e
 8001428:	200015ec 	.word	0x200015ec
 800142c:	20000dc0 	.word	0x20000dc0
 8001430:	08002c85 	.word	0x08002c85
 8001434:	20000de0 	.word	0x20000de0
 8001438:	20001620 	.word	0x20001620
 800143c:	08001035 	.word	0x08001035
 8001440:	20000dc8 	.word	0x20000dc8
 8001444:	080087d2 	.word	0x080087d2
 8001448:	20000dcc 	.word	0x20000dcc
 800144c:	20000dd0 	.word	0x20000dd0
 8001450:	080087eb 	.word	0x080087eb
 8001454:	08008819 	.word	0x08008819
 8001458:	0800880b 	.word	0x0800880b

0800145c <DebugLog>:
 800145c:	b507      	push	{r0, r1, r2, lr}
 800145e:	9001      	str	r0, [sp, #4]
 8001460:	f7fe fec0 	bl	80001e4 <strlen>
 8001464:	9901      	ldr	r1, [sp, #4]
 8001466:	b282      	uxth	r2, r0
 8001468:	4803      	ldr	r0, [pc, #12]	; (8001478 <DebugLog+0x1c>)
 800146a:	2364      	movs	r3, #100	; 0x64
 800146c:	b003      	add	sp, #12
 800146e:	f85d eb04 	ldr.w	lr, [sp], #4
 8001472:	f001 bab5 	b.w	80029e0 <HAL_UART_Transmit>
 8001476:	bf00      	nop
 8001478:	20001700 	.word	0x20001700

0800147c <Error_Handler>:
 800147c:	b672      	cpsid	i
 800147e:	e7fe      	b.n	800147e <Error_Handler+0x2>

08001480 <HAL_MspInit>:
 8001480:	4b0a      	ldr	r3, [pc, #40]	; (80014ac <HAL_MspInit+0x2c>)
 8001482:	6e1a      	ldr	r2, [r3, #96]	; 0x60
 8001484:	f042 0201 	orr.w	r2, r2, #1
 8001488:	661a      	str	r2, [r3, #96]	; 0x60
 800148a:	6e1a      	ldr	r2, [r3, #96]	; 0x60
 800148c:	b082      	sub	sp, #8
 800148e:	f002 0201 	and.w	r2, r2, #1
 8001492:	9200      	str	r2, [sp, #0]
 8001494:	9a00      	ldr	r2, [sp, #0]
 8001496:	6d9a      	ldr	r2, [r3, #88]	; 0x58
 8001498:	f042 5280 	orr.w	r2, r2, #268435456	; 0x10000000
 800149c:	659a      	str	r2, [r3, #88]	; 0x58
 800149e:	6d9b      	ldr	r3, [r3, #88]	; 0x58
 80014a0:	f003 5380 	and.w	r3, r3, #268435456	; 0x10000000
 80014a4:	9301      	str	r3, [sp, #4]
 80014a6:	9b01      	ldr	r3, [sp, #4]
 80014a8:	b002      	add	sp, #8
 80014aa:	4770      	bx	lr
 80014ac:	40021000 	.word	0x40021000

080014b0 <HAL_TIM_Base_MspInit>:
 80014b0:	6802      	ldr	r2, [r0, #0]
 80014b2:	4b08      	ldr	r3, [pc, #32]	; (80014d4 <HAL_TIM_Base_MspInit+0x24>)
 80014b4:	429a      	cmp	r2, r3
 80014b6:	b082      	sub	sp, #8
 80014b8:	d10a      	bne.n	80014d0 <HAL_TIM_Base_MspInit+0x20>
 80014ba:	f503 434c 	add.w	r3, r3, #52224	; 0xcc00
 80014be:	6e1a      	ldr	r2, [r3, #96]	; 0x60
 80014c0:	f442 3200 	orr.w	r2, r2, #131072	; 0x20000
 80014c4:	661a      	str	r2, [r3, #96]	; 0x60
 80014c6:	6e1b      	ldr	r3, [r3, #96]	; 0x60
 80014c8:	f403 3300 	and.w	r3, r3, #131072	; 0x20000
 80014cc:	9301      	str	r3, [sp, #4]
 80014ce:	9b01      	ldr	r3, [sp, #4]
 80014d0:	b002      	add	sp, #8
 80014d2:	4770      	bx	lr
 80014d4:	40014400 	.word	0x40014400

080014d8 <HAL_UART_MspInit>:
 80014d8:	b570      	push	{r4, r5, r6, lr}
 80014da:	b09c      	sub	sp, #112	; 0x70
 80014dc:	4604      	mov	r4, r0
 80014de:	2214      	movs	r2, #20
 80014e0:	2100      	movs	r1, #0
 80014e2:	a802      	add	r0, sp, #8
 80014e4:	f004 fa38 	bl	8005958 <memset>
 80014e8:	2254      	movs	r2, #84	; 0x54
 80014ea:	2100      	movs	r1, #0
 80014ec:	a807      	add	r0, sp, #28
 80014ee:	f004 fa33 	bl	8005958 <memset>
 80014f2:	6822      	ldr	r2, [r4, #0]
 80014f4:	4b1e      	ldr	r3, [pc, #120]	; (8001570 <HAL_UART_MspInit+0x98>)
 80014f6:	429a      	cmp	r2, r3
 80014f8:	d137      	bne.n	800156a <HAL_UART_MspInit+0x92>
 80014fa:	2302      	movs	r3, #2
 80014fc:	9307      	str	r3, [sp, #28]
 80014fe:	a807      	add	r0, sp, #28
 8001500:	2300      	movs	r3, #0
 8001502:	9310      	str	r3, [sp, #64]	; 0x40
 8001504:	f000 ff10 	bl	8002328 <HAL_RCCEx_PeriphCLKConfig>
 8001508:	b108      	cbz	r0, 800150e <HAL_UART_MspInit+0x36>
 800150a:	f7ff ffb7 	bl	800147c <Error_Handler>
 800150e:	4b19      	ldr	r3, [pc, #100]	; (8001574 <HAL_UART_MspInit+0x9c>)
 8001510:	6d9a      	ldr	r2, [r3, #88]	; 0x58
 8001512:	f442 3200 	orr.w	r2, r2, #131072	; 0x20000
 8001516:	659a      	str	r2, [r3, #88]	; 0x58
 8001518:	6d9a      	ldr	r2, [r3, #88]	; 0x58
 800151a:	f402 3200 	and.w	r2, r2, #131072	; 0x20000
 800151e:	9200      	str	r2, [sp, #0]
 8001520:	9a00      	ldr	r2, [sp, #0]
 8001522:	6cda      	ldr	r2, [r3, #76]	; 0x4c
 8001524:	f042 0201 	orr.w	r2, r2, #1
 8001528:	64da      	str	r2, [r3, #76]	; 0x4c
 800152a:	6cdb      	ldr	r3, [r3, #76]	; 0x4c
 800152c:	f003 0301 	and.w	r3, r3, #1
 8001530:	9301      	str	r3, [sp, #4]
 8001532:	9b01      	ldr	r3, [sp, #4]
 8001534:	2602      	movs	r6, #2
 8001536:	2304      	movs	r3, #4
 8001538:	2403      	movs	r4, #3
 800153a:	e9cd 3602 	strd	r3, r6, [sp, #8]
 800153e:	2500      	movs	r5, #0
 8001540:	2307      	movs	r3, #7
 8001542:	a902      	add	r1, sp, #8
 8001544:	f04f 4090 	mov.w	r0, #1207959552	; 0x48000000
 8001548:	9306      	str	r3, [sp, #24]
 800154a:	e9cd 5404 	strd	r5, r4, [sp, #16]
 800154e:	f000 f975 	bl	800183c <HAL_GPIO_Init>
 8001552:	f44f 4300 	mov.w	r3, #32768	; 0x8000
 8001556:	a902      	add	r1, sp, #8
 8001558:	f04f 4090 	mov.w	r0, #1207959552	; 0x48000000
 800155c:	e9cd 3602 	strd	r3, r6, [sp, #8]
 8001560:	e9cd 5404 	strd	r5, r4, [sp, #16]
 8001564:	9406      	str	r4, [sp, #24]
 8001566:	f000 f969 	bl	800183c <HAL_GPIO_Init>
 800156a:	b01c      	add	sp, #112	; 0x70
 800156c:	bd70      	pop	{r4, r5, r6, pc}
 800156e:	bf00      	nop
 8001570:	40004400 	.word	0x40004400
 8001574:	40021000 	.word	0x40021000

08001578 <NMI_Handler>:
 8001578:	e7fe      	b.n	8001578 <NMI_Handler>

0800157a <HardFault_Handler>:
 800157a:	e7fe      	b.n	800157a <HardFault_Handler>

0800157c <MemManage_Handler>:
 800157c:	e7fe      	b.n	800157c <MemManage_Handler>

0800157e <BusFault_Handler>:
 800157e:	e7fe      	b.n	800157e <BusFault_Handler>

08001580 <UsageFault_Handler>:
 8001580:	e7fe      	b.n	8001580 <UsageFault_Handler>

08001582 <SVC_Handler>:
 8001582:	4770      	bx	lr

08001584 <DebugMon_Handler>:
 8001584:	4770      	bx	lr

08001586 <PendSV_Handler>:
 8001586:	4770      	bx	lr

08001588 <SysTick_Handler>:
 8001588:	f000 b8d8 	b.w	800173c <HAL_IncTick>

0800158c <_getpid>:
 800158c:	2001      	movs	r0, #1
 800158e:	4770      	bx	lr

08001590 <_kill>:
 8001590:	b508      	push	{r3, lr}
 8001592:	f004 f969 	bl	8005868 <__errno>
 8001596:	2316      	movs	r3, #22
 8001598:	6003      	str	r3, [r0, #0]
 800159a:	f04f 30ff 	mov.w	r0, #4294967295
 800159e:	bd08      	pop	{r3, pc}

080015a0 <_exit>:
 80015a0:	b508      	push	{r3, lr}
 80015a2:	f004 f961 	bl	8005868 <__errno>
 80015a6:	2316      	movs	r3, #22
 80015a8:	6003      	str	r3, [r0, #0]
 80015aa:	e7fe      	b.n	80015aa <_exit+0xa>

080015ac <_read>:
 80015ac:	b570      	push	{r4, r5, r6, lr}
 80015ae:	460e      	mov	r6, r1
 80015b0:	4614      	mov	r4, r2
 80015b2:	2500      	movs	r5, #0
 80015b4:	42a5      	cmp	r5, r4
 80015b6:	db01      	blt.n	80015bc <_read+0x10>
 80015b8:	4620      	mov	r0, r4
 80015ba:	bd70      	pop	{r4, r5, r6, pc}
 80015bc:	f3af 8000 	nop.w
 80015c0:	5570      	strb	r0, [r6, r5]
 80015c2:	3501      	adds	r5, #1
 80015c4:	e7f6      	b.n	80015b4 <_read+0x8>

080015c6 <_write>:
 80015c6:	b570      	push	{r4, r5, r6, lr}
 80015c8:	460e      	mov	r6, r1
 80015ca:	4614      	mov	r4, r2
 80015cc:	2500      	movs	r5, #0
 80015ce:	42a5      	cmp	r5, r4
 80015d0:	db01      	blt.n	80015d6 <_write+0x10>
 80015d2:	4620      	mov	r0, r4
 80015d4:	bd70      	pop	{r4, r5, r6, pc}
 80015d6:	5d70      	ldrb	r0, [r6, r5]
 80015d8:	f3af 8000 	nop.w
 80015dc:	3501      	adds	r5, #1
 80015de:	e7f6      	b.n	80015ce <_write+0x8>

080015e0 <_close>:
 80015e0:	f04f 30ff 	mov.w	r0, #4294967295
 80015e4:	4770      	bx	lr

080015e6 <_fstat>:
 80015e6:	f44f 5300 	mov.w	r3, #8192	; 0x2000
 80015ea:	604b      	str	r3, [r1, #4]
 80015ec:	2000      	movs	r0, #0
 80015ee:	4770      	bx	lr

080015f0 <_isatty>:
 80015f0:	2001      	movs	r0, #1
 80015f2:	4770      	bx	lr

080015f4 <_lseek>:
 80015f4:	2000      	movs	r0, #0
 80015f6:	4770      	bx	lr

080015f8 <_sbrk>:
 80015f8:	4b0b      	ldr	r3, [pc, #44]	; (8001628 <_sbrk+0x30>)
 80015fa:	6819      	ldr	r1, [r3, #0]
 80015fc:	b510      	push	{r4, lr}
 80015fe:	4602      	mov	r2, r0
 8001600:	b909      	cbnz	r1, 8001606 <_sbrk+0xe>
 8001602:	490a      	ldr	r1, [pc, #40]	; (800162c <_sbrk+0x34>)
 8001604:	6019      	str	r1, [r3, #0]
 8001606:	6818      	ldr	r0, [r3, #0]
 8001608:	4909      	ldr	r1, [pc, #36]	; (8001630 <_sbrk+0x38>)
 800160a:	4c0a      	ldr	r4, [pc, #40]	; (8001634 <_sbrk+0x3c>)
 800160c:	4402      	add	r2, r0
 800160e:	1b09      	subs	r1, r1, r4
 8001610:	428a      	cmp	r2, r1
 8001612:	d906      	bls.n	8001622 <_sbrk+0x2a>
 8001614:	f004 f928 	bl	8005868 <__errno>
 8001618:	230c      	movs	r3, #12
 800161a:	6003      	str	r3, [r0, #0]
 800161c:	f04f 30ff 	mov.w	r0, #4294967295
 8001620:	bd10      	pop	{r4, pc}
 8001622:	601a      	str	r2, [r3, #0]
 8001624:	e7fc      	b.n	8001620 <_sbrk+0x28>
 8001626:	bf00      	nop
 8001628:	20001784 	.word	0x20001784
 800162c:	20001838 	.word	0x20001838
 8001630:	2000c000 	.word	0x2000c000
 8001634:	00000400 	.word	0x00000400

08001638 <SystemInit>:
 8001638:	4a0e      	ldr	r2, [pc, #56]	; (8001674 <SystemInit+0x3c>)
 800163a:	f8d2 3088 	ldr.w	r3, [r2, #136]	; 0x88
 800163e:	f443 0370 	orr.w	r3, r3, #15728640	; 0xf00000
 8001642:	f8c2 3088 	str.w	r3, [r2, #136]	; 0x88
 8001646:	4b0c      	ldr	r3, [pc, #48]	; (8001678 <SystemInit+0x40>)
 8001648:	681a      	ldr	r2, [r3, #0]
 800164a:	2100      	movs	r1, #0
 800164c:	f042 0201 	orr.w	r2, r2, #1
 8001650:	601a      	str	r2, [r3, #0]
 8001652:	6099      	str	r1, [r3, #8]
 8001654:	681a      	ldr	r2, [r3, #0]
 8001656:	f022 52a8 	bic.w	r2, r2, #352321536	; 0x15000000
 800165a:	f422 2210 	bic.w	r2, r2, #589824	; 0x90000
 800165e:	601a      	str	r2, [r3, #0]
 8001660:	f44f 5280 	mov.w	r2, #4096	; 0x1000
 8001664:	60da      	str	r2, [r3, #12]
 8001666:	681a      	ldr	r2, [r3, #0]
 8001668:	f422 2280 	bic.w	r2, r2, #262144	; 0x40000
 800166c:	601a      	str	r2, [r3, #0]
 800166e:	6199      	str	r1, [r3, #24]
 8001670:	4770      	bx	lr
 8001672:	bf00      	nop
 8001674:	e000ed00 	.word	0xe000ed00
 8001678:	40021000 	.word	0x40021000

0800167c <Reset_Handler>:
 800167c:	f8df d034 	ldr.w	sp, [pc, #52]	; 80016b4 <LoopForever+0x2>
 8001680:	f7ff ffda 	bl	8001638 <SystemInit>
 8001684:	2100      	movs	r1, #0
 8001686:	e003      	b.n	8001690 <LoopCopyDataInit>

08001688 <CopyDataInit>:
 8001688:	4b0b      	ldr	r3, [pc, #44]	; (80016b8 <LoopForever+0x6>)
 800168a:	585b      	ldr	r3, [r3, r1]
 800168c:	5043      	str	r3, [r0, r1]
 800168e:	3104      	adds	r1, #4

08001690 <LoopCopyDataInit>:
 8001690:	480a      	ldr	r0, [pc, #40]	; (80016bc <LoopForever+0xa>)
 8001692:	4b0b      	ldr	r3, [pc, #44]	; (80016c0 <LoopForever+0xe>)
 8001694:	1842      	adds	r2, r0, r1
 8001696:	429a      	cmp	r2, r3
 8001698:	d3f6      	bcc.n	8001688 <CopyDataInit>
 800169a:	4a0a      	ldr	r2, [pc, #40]	; (80016c4 <LoopForever+0x12>)
 800169c:	e002      	b.n	80016a4 <LoopFillZerobss>

0800169e <FillZerobss>:
 800169e:	2300      	movs	r3, #0
 80016a0:	f842 3b04 	str.w	r3, [r2], #4

080016a4 <LoopFillZerobss>:
 80016a4:	4b08      	ldr	r3, [pc, #32]	; (80016c8 <LoopForever+0x16>)
 80016a6:	429a      	cmp	r2, r3
 80016a8:	d3f9      	bcc.n	800169e <FillZerobss>
 80016aa:	f004 f8f5 	bl	8005898 <__libc_init_array>
 80016ae:	f7ff fd35 	bl	800111c <main>

080016b2 <LoopForever>:
 80016b2:	e7fe      	b.n	80016b2 <LoopForever>
 80016b4:	2000c000 	.word	0x2000c000
 80016b8:	0800a754 	.word	0x0800a754
 80016bc:	20000000 	.word	0x20000000
 80016c0:	20000d94 	.word	0x20000d94
 80016c4:	20000da0 	.word	0x20000da0
 80016c8:	20001838 	.word	0x20001838

080016cc <ADC1_IRQHandler>:
 80016cc:	e7fe      	b.n	80016cc <ADC1_IRQHandler>
	...

080016d0 <HAL_InitTick>:
 80016d0:	b538      	push	{r3, r4, r5, lr}
 80016d2:	4b0f      	ldr	r3, [pc, #60]	; (8001710 <HAL_InitTick+0x40>)
 80016d4:	4605      	mov	r5, r0
 80016d6:	7818      	ldrb	r0, [r3, #0]
 80016d8:	b908      	cbnz	r0, 80016de <HAL_InitTick+0xe>
 80016da:	2001      	movs	r0, #1
 80016dc:	bd38      	pop	{r3, r4, r5, pc}
 80016de:	4a0d      	ldr	r2, [pc, #52]	; (8001714 <HAL_InitTick+0x44>)
 80016e0:	f44f 737a 	mov.w	r3, #1000	; 0x3e8
 80016e4:	fbb3 f3f0 	udiv	r3, r3, r0
 80016e8:	6810      	ldr	r0, [r2, #0]
 80016ea:	fbb0 f0f3 	udiv	r0, r0, r3
 80016ee:	f000 f88f 	bl	8001810 <HAL_SYSTICK_Config>
 80016f2:	4604      	mov	r4, r0
 80016f4:	2800      	cmp	r0, #0
 80016f6:	d1f0      	bne.n	80016da <HAL_InitTick+0xa>
 80016f8:	2d0f      	cmp	r5, #15
 80016fa:	d8ee      	bhi.n	80016da <HAL_InitTick+0xa>
 80016fc:	4602      	mov	r2, r0
 80016fe:	4629      	mov	r1, r5
 8001700:	f04f 30ff 	mov.w	r0, #4294967295
 8001704:	f000 f852 	bl	80017ac <HAL_NVIC_SetPriority>
 8001708:	4b03      	ldr	r3, [pc, #12]	; (8001718 <HAL_InitTick+0x48>)
 800170a:	4620      	mov	r0, r4
 800170c:	601d      	str	r5, [r3, #0]
 800170e:	e7e5      	b.n	80016dc <HAL_InitTick+0xc>
 8001710:	20000bb8 	.word	0x20000bb8
 8001714:	20000bb4 	.word	0x20000bb4
 8001718:	20000bbc 	.word	0x20000bbc

0800171c <HAL_Init>:
 800171c:	b510      	push	{r4, lr}
 800171e:	2003      	movs	r0, #3
 8001720:	f000 f832 	bl	8001788 <HAL_NVIC_SetPriorityGrouping>
 8001724:	2000      	movs	r0, #0
 8001726:	f7ff ffd3 	bl	80016d0 <HAL_InitTick>
 800172a:	4604      	mov	r4, r0
 800172c:	b918      	cbnz	r0, 8001736 <HAL_Init+0x1a>
 800172e:	f7ff fea7 	bl	8001480 <HAL_MspInit>
 8001732:	4620      	mov	r0, r4
 8001734:	bd10      	pop	{r4, pc}
 8001736:	2401      	movs	r4, #1
 8001738:	e7fb      	b.n	8001732 <HAL_Init+0x16>
	...

0800173c <HAL_IncTick>:
 800173c:	4a03      	ldr	r2, [pc, #12]	; (800174c <HAL_IncTick+0x10>)
 800173e:	4b04      	ldr	r3, [pc, #16]	; (8001750 <HAL_IncTick+0x14>)
 8001740:	6811      	ldr	r1, [r2, #0]
 8001742:	781b      	ldrb	r3, [r3, #0]
 8001744:	440b      	add	r3, r1
 8001746:	6013      	str	r3, [r2, #0]
 8001748:	4770      	bx	lr
 800174a:	bf00      	nop
 800174c:	20001824 	.word	0x20001824
 8001750:	20000bb8 	.word	0x20000bb8

08001754 <HAL_GetTick>:
 8001754:	4b01      	ldr	r3, [pc, #4]	; (800175c <HAL_GetTick+0x8>)
 8001756:	6818      	ldr	r0, [r3, #0]
 8001758:	4770      	bx	lr
 800175a:	bf00      	nop
 800175c:	20001824 	.word	0x20001824

08001760 <HAL_Delay>:
 8001760:	b538      	push	{r3, r4, r5, lr}
 8001762:	4604      	mov	r4, r0
 8001764:	f7ff fff6 	bl	8001754 <HAL_GetTick>
 8001768:	1c63      	adds	r3, r4, #1
 800176a:	bf1c      	itt	ne
 800176c:	4b05      	ldrne	r3, [pc, #20]	; (8001784 <HAL_Delay+0x24>)
 800176e:	781b      	ldrbne	r3, [r3, #0]
 8001770:	4605      	mov	r5, r0
 8001772:	bf18      	it	ne
 8001774:	18e4      	addne	r4, r4, r3
 8001776:	f7ff ffed 	bl	8001754 <HAL_GetTick>
 800177a:	1b43      	subs	r3, r0, r5
 800177c:	42a3      	cmp	r3, r4
 800177e:	d3fa      	bcc.n	8001776 <HAL_Delay+0x16>
 8001780:	bd38      	pop	{r3, r4, r5, pc}
 8001782:	bf00      	nop
 8001784:	20000bb8 	.word	0x20000bb8

08001788 <HAL_NVIC_SetPriorityGrouping>:
 8001788:	4907      	ldr	r1, [pc, #28]	; (80017a8 <HAL_NVIC_SetPriorityGrouping+0x20>)
 800178a:	68ca      	ldr	r2, [r1, #12]
 800178c:	f422 62e0 	bic.w	r2, r2, #1792	; 0x700
 8001790:	0203      	lsls	r3, r0, #8
 8001792:	0412      	lsls	r2, r2, #16
 8001794:	f403 63e0 	and.w	r3, r3, #1792	; 0x700
 8001798:	0c12      	lsrs	r2, r2, #16
 800179a:	4313      	orrs	r3, r2
 800179c:	f043 63bf 	orr.w	r3, r3, #100139008	; 0x5f80000
 80017a0:	f443 3300 	orr.w	r3, r3, #131072	; 0x20000
 80017a4:	60cb      	str	r3, [r1, #12]
 80017a6:	4770      	bx	lr
 80017a8:	e000ed00 	.word	0xe000ed00

080017ac <HAL_NVIC_SetPriority>:
 80017ac:	4b16      	ldr	r3, [pc, #88]	; (8001808 <HAL_NVIC_SetPriority+0x5c>)
 80017ae:	b530      	push	{r4, r5, lr}
 80017b0:	68dc      	ldr	r4, [r3, #12]
 80017b2:	f3c4 2402 	ubfx	r4, r4, #8, #3
 80017b6:	f1c4 0507 	rsb	r5, r4, #7
 80017ba:	1d23      	adds	r3, r4, #4
 80017bc:	2d04      	cmp	r5, #4
 80017be:	bf28      	it	cs
 80017c0:	2504      	movcs	r5, #4
 80017c2:	2b06      	cmp	r3, #6
 80017c4:	f04f 33ff 	mov.w	r3, #4294967295
 80017c8:	bf8c      	ite	hi
 80017ca:	3c03      	subhi	r4, #3
 80017cc:	2400      	movls	r4, #0
 80017ce:	fa03 f505 	lsl.w	r5, r3, r5
 80017d2:	ea21 0105 	bic.w	r1, r1, r5
 80017d6:	40a3      	lsls	r3, r4
 80017d8:	ea22 0203 	bic.w	r2, r2, r3
 80017dc:	40a1      	lsls	r1, r4
 80017de:	2800      	cmp	r0, #0
 80017e0:	ea41 0302 	orr.w	r3, r1, r2
 80017e4:	bfac      	ite	ge
 80017e6:	f100 4060 	addge.w	r0, r0, #3758096384	; 0xe0000000
 80017ea:	4a08      	ldrlt	r2, [pc, #32]	; (800180c <HAL_NVIC_SetPriority+0x60>)
 80017ec:	ea4f 1303 	mov.w	r3, r3, lsl #4
 80017f0:	bfb8      	it	lt
 80017f2:	f000 000f 	andlt.w	r0, r0, #15
 80017f6:	b2db      	uxtb	r3, r3
 80017f8:	bfaa      	itet	ge
 80017fa:	f500 4061 	addge.w	r0, r0, #57600	; 0xe100
 80017fe:	5413      	strblt	r3, [r2, r0]
 8001800:	f880 3300 	strbge.w	r3, [r0, #768]	; 0x300
 8001804:	bd30      	pop	{r4, r5, pc}
 8001806:	bf00      	nop
 8001808:	e000ed00 	.word	0xe000ed00
 800180c:	e000ed14 	.word	0xe000ed14

08001810 <HAL_SYSTICK_Config>:
 8001810:	3801      	subs	r0, #1
 8001812:	f1b0 7f80 	cmp.w	r0, #16777216	; 0x1000000
 8001816:	d20a      	bcs.n	800182e <HAL_SYSTICK_Config+0x1e>
 8001818:	4b06      	ldr	r3, [pc, #24]	; (8001834 <HAL_SYSTICK_Config+0x24>)
 800181a:	4a07      	ldr	r2, [pc, #28]	; (8001838 <HAL_SYSTICK_Config+0x28>)
 800181c:	6058      	str	r0, [r3, #4]
 800181e:	21f0      	movs	r1, #240	; 0xf0
 8001820:	f882 1023 	strb.w	r1, [r2, #35]	; 0x23
 8001824:	2000      	movs	r0, #0
 8001826:	2207      	movs	r2, #7
 8001828:	6098      	str	r0, [r3, #8]
 800182a:	601a      	str	r2, [r3, #0]
 800182c:	4770      	bx	lr
 800182e:	2001      	movs	r0, #1
 8001830:	4770      	bx	lr
 8001832:	bf00      	nop
 8001834:	e000e010 	.word	0xe000e010
 8001838:	e000ed00 	.word	0xe000ed00

0800183c <HAL_GPIO_Init>:
 800183c:	e92d 4ff7 	stmdb	sp!, {r0, r1, r2, r4, r5, r6, r7, r8, r9, sl, fp, lr}
 8001840:	f8df e160 	ldr.w	lr, [pc, #352]	; 80019a4 <HAL_GPIO_Init+0x168>
 8001844:	4c55      	ldr	r4, [pc, #340]	; (800199c <HAL_GPIO_Init+0x160>)
 8001846:	2300      	movs	r3, #0
 8001848:	f04f 090f 	mov.w	r9, #15
 800184c:	680a      	ldr	r2, [r1, #0]
 800184e:	fa32 f503 	lsrs.w	r5, r2, r3
 8001852:	d102      	bne.n	800185a <HAL_GPIO_Init+0x1e>
 8001854:	b003      	add	sp, #12
 8001856:	e8bd 8ff0 	ldmia.w	sp!, {r4, r5, r6, r7, r8, r9, sl, fp, pc}
 800185a:	2501      	movs	r5, #1
 800185c:	fa05 f803 	lsl.w	r8, r5, r3
 8001860:	ea18 0202 	ands.w	r2, r8, r2
 8001864:	f000 8094 	beq.w	8001990 <HAL_GPIO_Init+0x154>
 8001868:	684d      	ldr	r5, [r1, #4]
 800186a:	f025 0a10 	bic.w	sl, r5, #16
 800186e:	ea4f 0c43 	mov.w	ip, r3, lsl #1
 8001872:	2603      	movs	r6, #3
 8001874:	f10a 37ff 	add.w	r7, sl, #4294967295
 8001878:	fa06 f60c 	lsl.w	r6, r6, ip
 800187c:	2f01      	cmp	r7, #1
 800187e:	ea6f 0606 	mvn.w	r6, r6
 8001882:	d811      	bhi.n	80018a8 <HAL_GPIO_Init+0x6c>
 8001884:	6887      	ldr	r7, [r0, #8]
 8001886:	ea07 0b06 	and.w	fp, r7, r6
 800188a:	68cf      	ldr	r7, [r1, #12]
 800188c:	fa07 f70c 	lsl.w	r7, r7, ip
 8001890:	ea47 070b 	orr.w	r7, r7, fp
 8001894:	6087      	str	r7, [r0, #8]
 8001896:	6847      	ldr	r7, [r0, #4]
 8001898:	ea27 0808 	bic.w	r8, r7, r8
 800189c:	f3c5 1700 	ubfx	r7, r5, #4, #1
 80018a0:	409f      	lsls	r7, r3
 80018a2:	ea47 0708 	orr.w	r7, r7, r8
 80018a6:	6047      	str	r7, [r0, #4]
 80018a8:	68c7      	ldr	r7, [r0, #12]
 80018aa:	ea07 0806 	and.w	r8, r7, r6
 80018ae:	688f      	ldr	r7, [r1, #8]
 80018b0:	fa07 f70c 	lsl.w	r7, r7, ip
 80018b4:	ea47 0708 	orr.w	r7, r7, r8
 80018b8:	f1ba 0f02 	cmp.w	sl, #2
 80018bc:	60c7      	str	r7, [r0, #12]
 80018be:	d114      	bne.n	80018ea <HAL_GPIO_Init+0xae>
 80018c0:	ea4f 08d3 	mov.w	r8, r3, lsr #3
 80018c4:	eb00 0888 	add.w	r8, r0, r8, lsl #2
 80018c8:	f003 0a07 	and.w	sl, r3, #7
 80018cc:	f8d8 7020 	ldr.w	r7, [r8, #32]
 80018d0:	ea4f 0a8a 	mov.w	sl, sl, lsl #2
 80018d4:	fa09 fb0a 	lsl.w	fp, r9, sl
 80018d8:	ea27 0b0b 	bic.w	fp, r7, fp
 80018dc:	690f      	ldr	r7, [r1, #16]
 80018de:	fa07 f70a 	lsl.w	r7, r7, sl
 80018e2:	ea47 070b 	orr.w	r7, r7, fp
 80018e6:	f8c8 7020 	str.w	r7, [r8, #32]
 80018ea:	6807      	ldr	r7, [r0, #0]
 80018ec:	403e      	ands	r6, r7
 80018ee:	f005 0703 	and.w	r7, r5, #3
 80018f2:	fa07 fc0c 	lsl.w	ip, r7, ip
 80018f6:	ea4c 0606 	orr.w	r6, ip, r6
 80018fa:	6006      	str	r6, [r0, #0]
 80018fc:	00ee      	lsls	r6, r5, #3
 80018fe:	d547      	bpl.n	8001990 <HAL_GPIO_Init+0x154>
 8001900:	f8de 6060 	ldr.w	r6, [lr, #96]	; 0x60
 8001904:	f046 0601 	orr.w	r6, r6, #1
 8001908:	f8ce 6060 	str.w	r6, [lr, #96]	; 0x60
 800190c:	f8de 6060 	ldr.w	r6, [lr, #96]	; 0x60
 8001910:	f023 0703 	bic.w	r7, r3, #3
 8001914:	f107 4780 	add.w	r7, r7, #1073741824	; 0x40000000
 8001918:	f006 0601 	and.w	r6, r6, #1
 800191c:	f507 3780 	add.w	r7, r7, #65536	; 0x10000
 8001920:	9601      	str	r6, [sp, #4]
 8001922:	f003 0c03 	and.w	ip, r3, #3
 8001926:	9e01      	ldr	r6, [sp, #4]
 8001928:	68be      	ldr	r6, [r7, #8]
 800192a:	ea4f 0c8c 	mov.w	ip, ip, lsl #2
 800192e:	fa09 f80c 	lsl.w	r8, r9, ip
 8001932:	f1b0 4f90 	cmp.w	r0, #1207959552	; 0x48000000
 8001936:	ea26 0808 	bic.w	r8, r6, r8
 800193a:	d02b      	beq.n	8001994 <HAL_GPIO_Init+0x158>
 800193c:	4e18      	ldr	r6, [pc, #96]	; (80019a0 <HAL_GPIO_Init+0x164>)
 800193e:	42b0      	cmp	r0, r6
 8001940:	d02a      	beq.n	8001998 <HAL_GPIO_Init+0x15c>
 8001942:	f506 6680 	add.w	r6, r6, #1024	; 0x400
 8001946:	42b0      	cmp	r0, r6
 8001948:	bf0c      	ite	eq
 800194a:	2602      	moveq	r6, #2
 800194c:	2607      	movne	r6, #7
 800194e:	fa06 f60c 	lsl.w	r6, r6, ip
 8001952:	ea46 0608 	orr.w	r6, r6, r8
 8001956:	60be      	str	r6, [r7, #8]
 8001958:	6826      	ldr	r6, [r4, #0]
 800195a:	43d7      	mvns	r7, r2
 800195c:	f415 3f80 	tst.w	r5, #65536	; 0x10000
 8001960:	bf0c      	ite	eq
 8001962:	403e      	andeq	r6, r7
 8001964:	4316      	orrne	r6, r2
 8001966:	6026      	str	r6, [r4, #0]
 8001968:	6866      	ldr	r6, [r4, #4]
 800196a:	f415 3f00 	tst.w	r5, #131072	; 0x20000
 800196e:	bf0c      	ite	eq
 8001970:	403e      	andeq	r6, r7
 8001972:	4316      	orrne	r6, r2
 8001974:	6066      	str	r6, [r4, #4]
 8001976:	68a6      	ldr	r6, [r4, #8]
 8001978:	f415 1f80 	tst.w	r5, #1048576	; 0x100000
 800197c:	bf0c      	ite	eq
 800197e:	403e      	andeq	r6, r7
 8001980:	4316      	orrne	r6, r2
 8001982:	60a6      	str	r6, [r4, #8]
 8001984:	68e6      	ldr	r6, [r4, #12]
 8001986:	02ad      	lsls	r5, r5, #10
 8001988:	bf54      	ite	pl
 800198a:	403e      	andpl	r6, r7
 800198c:	4316      	orrmi	r6, r2
 800198e:	60e6      	str	r6, [r4, #12]
 8001990:	3301      	adds	r3, #1
 8001992:	e75b      	b.n	800184c <HAL_GPIO_Init+0x10>
 8001994:	2600      	movs	r6, #0
 8001996:	e7da      	b.n	800194e <HAL_GPIO_Init+0x112>
 8001998:	2601      	movs	r6, #1
 800199a:	e7d8      	b.n	800194e <HAL_GPIO_Init+0x112>
 800199c:	40010400 	.word	0x40010400
 80019a0:	48000400 	.word	0x48000400
 80019a4:	40021000 	.word	0x40021000

080019a8 <HAL_GPIO_WritePin>:
 80019a8:	b10a      	cbz	r2, 80019ae <HAL_GPIO_WritePin+0x6>
 80019aa:	6181      	str	r1, [r0, #24]
 80019ac:	4770      	bx	lr
 80019ae:	6281      	str	r1, [r0, #40]	; 0x28
 80019b0:	4770      	bx	lr
	...

080019b4 <HAL_PWREx_GetVoltageRange>:
 80019b4:	4b02      	ldr	r3, [pc, #8]	; (80019c0 <HAL_PWREx_GetVoltageRange+0xc>)
 80019b6:	6818      	ldr	r0, [r3, #0]
 80019b8:	f400 60c0 	and.w	r0, r0, #1536	; 0x600
 80019bc:	4770      	bx	lr
 80019be:	bf00      	nop
 80019c0:	40007000 	.word	0x40007000

080019c4 <HAL_PWREx_ControlVoltageScaling>:
 80019c4:	4b17      	ldr	r3, [pc, #92]	; (8001a24 <HAL_PWREx_ControlVoltageScaling+0x60>)
 80019c6:	681a      	ldr	r2, [r3, #0]
 80019c8:	f5b0 7f00 	cmp.w	r0, #512	; 0x200
 80019cc:	f402 62c0 	and.w	r2, r2, #1536	; 0x600
 80019d0:	d11e      	bne.n	8001a10 <HAL_PWREx_ControlVoltageScaling+0x4c>
 80019d2:	f5b2 7f00 	cmp.w	r2, #512	; 0x200
 80019d6:	d101      	bne.n	80019dc <HAL_PWREx_ControlVoltageScaling+0x18>
 80019d8:	2000      	movs	r0, #0
 80019da:	4770      	bx	lr
 80019dc:	681a      	ldr	r2, [r3, #0]
 80019de:	f422 62c0 	bic.w	r2, r2, #1536	; 0x600
 80019e2:	f442 7200 	orr.w	r2, r2, #512	; 0x200
 80019e6:	601a      	str	r2, [r3, #0]
 80019e8:	4a0f      	ldr	r2, [pc, #60]	; (8001a28 <HAL_PWREx_ControlVoltageScaling+0x64>)
 80019ea:	6811      	ldr	r1, [r2, #0]
 80019ec:	2232      	movs	r2, #50	; 0x32
 80019ee:	434a      	muls	r2, r1
 80019f0:	490e      	ldr	r1, [pc, #56]	; (8001a2c <HAL_PWREx_ControlVoltageScaling+0x68>)
 80019f2:	fbb2 f2f1 	udiv	r2, r2, r1
 80019f6:	4619      	mov	r1, r3
 80019f8:	3201      	adds	r2, #1
 80019fa:	6958      	ldr	r0, [r3, #20]
 80019fc:	0540      	lsls	r0, r0, #21
 80019fe:	d500      	bpl.n	8001a02 <HAL_PWREx_ControlVoltageScaling+0x3e>
 8001a00:	b922      	cbnz	r2, 8001a0c <HAL_PWREx_ControlVoltageScaling+0x48>
 8001a02:	694b      	ldr	r3, [r1, #20]
 8001a04:	055b      	lsls	r3, r3, #21
 8001a06:	d5e7      	bpl.n	80019d8 <HAL_PWREx_ControlVoltageScaling+0x14>
 8001a08:	2003      	movs	r0, #3
 8001a0a:	4770      	bx	lr
 8001a0c:	3a01      	subs	r2, #1
 8001a0e:	e7f4      	b.n	80019fa <HAL_PWREx_ControlVoltageScaling+0x36>
 8001a10:	f5b2 6f80 	cmp.w	r2, #1024	; 0x400
 8001a14:	bf1f      	itttt	ne
 8001a16:	681a      	ldrne	r2, [r3, #0]
 8001a18:	f422 62c0 	bicne.w	r2, r2, #1536	; 0x600
 8001a1c:	f442 6280 	orrne.w	r2, r2, #1024	; 0x400
 8001a20:	601a      	strne	r2, [r3, #0]
 8001a22:	e7d9      	b.n	80019d8 <HAL_PWREx_ControlVoltageScaling+0x14>
 8001a24:	40007000 	.word	0x40007000
 8001a28:	20000bb4 	.word	0x20000bb4
 8001a2c:	000f4240 	.word	0x000f4240

08001a30 <RCC_SetFlashLatencyFromMSIRange>:
 8001a30:	b537      	push	{r0, r1, r2, r4, r5, lr}
 8001a32:	4d1e      	ldr	r5, [pc, #120]	; (8001aac <RCC_SetFlashLatencyFromMSIRange+0x7c>)
 8001a34:	6dab      	ldr	r3, [r5, #88]	; 0x58
 8001a36:	00da      	lsls	r2, r3, #3
 8001a38:	4604      	mov	r4, r0
 8001a3a:	d518      	bpl.n	8001a6e <RCC_SetFlashLatencyFromMSIRange+0x3e>
 8001a3c:	f7ff ffba 	bl	80019b4 <HAL_PWREx_GetVoltageRange>
 8001a40:	f5b0 7f00 	cmp.w	r0, #512	; 0x200
 8001a44:	d123      	bne.n	8001a8e <RCC_SetFlashLatencyFromMSIRange+0x5e>
 8001a46:	2c80      	cmp	r4, #128	; 0x80
 8001a48:	d929      	bls.n	8001a9e <RCC_SetFlashLatencyFromMSIRange+0x6e>
 8001a4a:	2ca0      	cmp	r4, #160	; 0xa0
 8001a4c:	bf8c      	ite	hi
 8001a4e:	2402      	movhi	r4, #2
 8001a50:	2401      	movls	r4, #1
 8001a52:	4917      	ldr	r1, [pc, #92]	; (8001ab0 <RCC_SetFlashLatencyFromMSIRange+0x80>)
 8001a54:	680a      	ldr	r2, [r1, #0]
 8001a56:	f022 0207 	bic.w	r2, r2, #7
 8001a5a:	4322      	orrs	r2, r4
 8001a5c:	600a      	str	r2, [r1, #0]
 8001a5e:	6808      	ldr	r0, [r1, #0]
 8001a60:	f000 0007 	and.w	r0, r0, #7
 8001a64:	1b00      	subs	r0, r0, r4
 8001a66:	bf18      	it	ne
 8001a68:	2001      	movne	r0, #1
 8001a6a:	b003      	add	sp, #12
 8001a6c:	bd30      	pop	{r4, r5, pc}
 8001a6e:	6dab      	ldr	r3, [r5, #88]	; 0x58
 8001a70:	f043 5380 	orr.w	r3, r3, #268435456	; 0x10000000
 8001a74:	65ab      	str	r3, [r5, #88]	; 0x58
 8001a76:	6dab      	ldr	r3, [r5, #88]	; 0x58
 8001a78:	f003 5380 	and.w	r3, r3, #268435456	; 0x10000000
 8001a7c:	9301      	str	r3, [sp, #4]
 8001a7e:	9b01      	ldr	r3, [sp, #4]
 8001a80:	f7ff ff98 	bl	80019b4 <HAL_PWREx_GetVoltageRange>
 8001a84:	6dab      	ldr	r3, [r5, #88]	; 0x58
 8001a86:	f023 5380 	bic.w	r3, r3, #268435456	; 0x10000000
 8001a8a:	65ab      	str	r3, [r5, #88]	; 0x58
 8001a8c:	e7d8      	b.n	8001a40 <RCC_SetFlashLatencyFromMSIRange+0x10>
 8001a8e:	2c80      	cmp	r4, #128	; 0x80
 8001a90:	d807      	bhi.n	8001aa2 <RCC_SetFlashLatencyFromMSIRange+0x72>
 8001a92:	d008      	beq.n	8001aa6 <RCC_SetFlashLatencyFromMSIRange+0x76>
 8001a94:	f1a4 0370 	sub.w	r3, r4, #112	; 0x70
 8001a98:	425c      	negs	r4, r3
 8001a9a:	415c      	adcs	r4, r3
 8001a9c:	e7d9      	b.n	8001a52 <RCC_SetFlashLatencyFromMSIRange+0x22>
 8001a9e:	2400      	movs	r4, #0
 8001aa0:	e7d7      	b.n	8001a52 <RCC_SetFlashLatencyFromMSIRange+0x22>
 8001aa2:	2403      	movs	r4, #3
 8001aa4:	e7d5      	b.n	8001a52 <RCC_SetFlashLatencyFromMSIRange+0x22>
 8001aa6:	2402      	movs	r4, #2
 8001aa8:	e7d3      	b.n	8001a52 <RCC_SetFlashLatencyFromMSIRange+0x22>
 8001aaa:	bf00      	nop
 8001aac:	40021000 	.word	0x40021000
 8001ab0:	40022000 	.word	0x40022000

08001ab4 <HAL_RCC_GetSysClockFreq>:
 8001ab4:	4b22      	ldr	r3, [pc, #136]	; (8001b40 <HAL_RCC_GetSysClockFreq+0x8c>)
 8001ab6:	689a      	ldr	r2, [r3, #8]
 8001ab8:	68d9      	ldr	r1, [r3, #12]
 8001aba:	f012 020c 	ands.w	r2, r2, #12
 8001abe:	d005      	beq.n	8001acc <HAL_RCC_GetSysClockFreq+0x18>
 8001ac0:	2a0c      	cmp	r2, #12
 8001ac2:	d115      	bne.n	8001af0 <HAL_RCC_GetSysClockFreq+0x3c>
 8001ac4:	f001 0103 	and.w	r1, r1, #3
 8001ac8:	2901      	cmp	r1, #1
 8001aca:	d118      	bne.n	8001afe <HAL_RCC_GetSysClockFreq+0x4a>
 8001acc:	6819      	ldr	r1, [r3, #0]
 8001ace:	481d      	ldr	r0, [pc, #116]	; (8001b44 <HAL_RCC_GetSysClockFreq+0x90>)
 8001ad0:	0709      	lsls	r1, r1, #28
 8001ad2:	bf55      	itete	pl
 8001ad4:	f8d3 1094 	ldrpl.w	r1, [r3, #148]	; 0x94
 8001ad8:	6819      	ldrmi	r1, [r3, #0]
 8001ada:	f3c1 2103 	ubfxpl	r1, r1, #8, #4
 8001ade:	f3c1 1103 	ubfxmi	r1, r1, #4, #4
 8001ae2:	f850 0021 	ldr.w	r0, [r0, r1, lsl #2]
 8001ae6:	b34a      	cbz	r2, 8001b3c <HAL_RCC_GetSysClockFreq+0x88>
 8001ae8:	2a0c      	cmp	r2, #12
 8001aea:	d009      	beq.n	8001b00 <HAL_RCC_GetSysClockFreq+0x4c>
 8001aec:	2000      	movs	r0, #0
 8001aee:	4770      	bx	lr
 8001af0:	2a04      	cmp	r2, #4
 8001af2:	d022      	beq.n	8001b3a <HAL_RCC_GetSysClockFreq+0x86>
 8001af4:	2a08      	cmp	r2, #8
 8001af6:	4814      	ldr	r0, [pc, #80]	; (8001b48 <HAL_RCC_GetSysClockFreq+0x94>)
 8001af8:	bf18      	it	ne
 8001afa:	2000      	movne	r0, #0
 8001afc:	4770      	bx	lr
 8001afe:	2000      	movs	r0, #0
 8001b00:	68da      	ldr	r2, [r3, #12]
 8001b02:	f002 0203 	and.w	r2, r2, #3
 8001b06:	2a02      	cmp	r2, #2
 8001b08:	d015      	beq.n	8001b36 <HAL_RCC_GetSysClockFreq+0x82>
 8001b0a:	490f      	ldr	r1, [pc, #60]	; (8001b48 <HAL_RCC_GetSysClockFreq+0x94>)
 8001b0c:	2a03      	cmp	r2, #3
 8001b0e:	bf08      	it	eq
 8001b10:	4608      	moveq	r0, r1
 8001b12:	68da      	ldr	r2, [r3, #12]
 8001b14:	68d9      	ldr	r1, [r3, #12]
 8001b16:	68db      	ldr	r3, [r3, #12]
 8001b18:	f3c3 6341 	ubfx	r3, r3, #25, #2
 8001b1c:	f3c1 2106 	ubfx	r1, r1, #8, #7
 8001b20:	f3c2 1202 	ubfx	r2, r2, #4, #3
 8001b24:	3301      	adds	r3, #1
 8001b26:	4348      	muls	r0, r1
 8001b28:	3201      	adds	r2, #1
 8001b2a:	005b      	lsls	r3, r3, #1
 8001b2c:	fbb0 f0f2 	udiv	r0, r0, r2
 8001b30:	fbb0 f0f3 	udiv	r0, r0, r3
 8001b34:	4770      	bx	lr
 8001b36:	4805      	ldr	r0, [pc, #20]	; (8001b4c <HAL_RCC_GetSysClockFreq+0x98>)
 8001b38:	e7eb      	b.n	8001b12 <HAL_RCC_GetSysClockFreq+0x5e>
 8001b3a:	4804      	ldr	r0, [pc, #16]	; (8001b4c <HAL_RCC_GetSysClockFreq+0x98>)
 8001b3c:	4770      	bx	lr
 8001b3e:	bf00      	nop
 8001b40:	40021000 	.word	0x40021000
 8001b44:	08008874 	.word	0x08008874
 8001b48:	007a1200 	.word	0x007a1200
 8001b4c:	00f42400 	.word	0x00f42400

08001b50 <HAL_RCC_OscConfig>:
 8001b50:	e92d 43f7 	stmdb	sp!, {r0, r1, r2, r4, r5, r6, r7, r8, r9, lr}
 8001b54:	4605      	mov	r5, r0
 8001b56:	b908      	cbnz	r0, 8001b5c <HAL_RCC_OscConfig+0xc>
 8001b58:	2001      	movs	r0, #1
 8001b5a:	e047      	b.n	8001bec <HAL_RCC_OscConfig+0x9c>
 8001b5c:	4c9f      	ldr	r4, [pc, #636]	; (8001ddc <HAL_RCC_OscConfig+0x28c>)
 8001b5e:	6803      	ldr	r3, [r0, #0]
 8001b60:	68a6      	ldr	r6, [r4, #8]
 8001b62:	68e7      	ldr	r7, [r4, #12]
 8001b64:	06db      	lsls	r3, r3, #27
 8001b66:	f006 060c 	and.w	r6, r6, #12
 8001b6a:	f007 0703 	and.w	r7, r7, #3
 8001b6e:	d575      	bpl.n	8001c5c <HAL_RCC_OscConfig+0x10c>
 8001b70:	b11e      	cbz	r6, 8001b7a <HAL_RCC_OscConfig+0x2a>
 8001b72:	2e0c      	cmp	r6, #12
 8001b74:	d154      	bne.n	8001c20 <HAL_RCC_OscConfig+0xd0>
 8001b76:	2f01      	cmp	r7, #1
 8001b78:	d152      	bne.n	8001c20 <HAL_RCC_OscConfig+0xd0>
 8001b7a:	6823      	ldr	r3, [r4, #0]
 8001b7c:	0798      	lsls	r0, r3, #30
 8001b7e:	d502      	bpl.n	8001b86 <HAL_RCC_OscConfig+0x36>
 8001b80:	69ab      	ldr	r3, [r5, #24]
 8001b82:	2b00      	cmp	r3, #0
 8001b84:	d0e8      	beq.n	8001b58 <HAL_RCC_OscConfig+0x8>
 8001b86:	6823      	ldr	r3, [r4, #0]
 8001b88:	6a28      	ldr	r0, [r5, #32]
 8001b8a:	0719      	lsls	r1, r3, #28
 8001b8c:	bf56      	itet	pl
 8001b8e:	f8d4 3094 	ldrpl.w	r3, [r4, #148]	; 0x94
 8001b92:	6823      	ldrmi	r3, [r4, #0]
 8001b94:	091b      	lsrpl	r3, r3, #4
 8001b96:	f003 03f0 	and.w	r3, r3, #240	; 0xf0
 8001b9a:	4298      	cmp	r0, r3
 8001b9c:	d929      	bls.n	8001bf2 <HAL_RCC_OscConfig+0xa2>
 8001b9e:	f7ff ff47 	bl	8001a30 <RCC_SetFlashLatencyFromMSIRange>
 8001ba2:	2800      	cmp	r0, #0
 8001ba4:	d1d8      	bne.n	8001b58 <HAL_RCC_OscConfig+0x8>
 8001ba6:	6823      	ldr	r3, [r4, #0]
 8001ba8:	f043 0308 	orr.w	r3, r3, #8
 8001bac:	6023      	str	r3, [r4, #0]
 8001bae:	6823      	ldr	r3, [r4, #0]
 8001bb0:	6a2a      	ldr	r2, [r5, #32]
 8001bb2:	f023 03f0 	bic.w	r3, r3, #240	; 0xf0
 8001bb6:	4313      	orrs	r3, r2
 8001bb8:	6023      	str	r3, [r4, #0]
 8001bba:	6863      	ldr	r3, [r4, #4]
 8001bbc:	69ea      	ldr	r2, [r5, #28]
 8001bbe:	f423 437f 	bic.w	r3, r3, #65280	; 0xff00
 8001bc2:	ea43 2302 	orr.w	r3, r3, r2, lsl #8
 8001bc6:	6063      	str	r3, [r4, #4]
 8001bc8:	f7ff ff74 	bl	8001ab4 <HAL_RCC_GetSysClockFreq>
 8001bcc:	68a3      	ldr	r3, [r4, #8]
 8001bce:	4a84      	ldr	r2, [pc, #528]	; (8001de0 <HAL_RCC_OscConfig+0x290>)
 8001bd0:	f3c3 1303 	ubfx	r3, r3, #4, #4
 8001bd4:	5cd3      	ldrb	r3, [r2, r3]
 8001bd6:	f003 031f 	and.w	r3, r3, #31
 8001bda:	40d8      	lsrs	r0, r3
 8001bdc:	4b81      	ldr	r3, [pc, #516]	; (8001de4 <HAL_RCC_OscConfig+0x294>)
 8001bde:	6018      	str	r0, [r3, #0]
 8001be0:	4b81      	ldr	r3, [pc, #516]	; (8001de8 <HAL_RCC_OscConfig+0x298>)
 8001be2:	6818      	ldr	r0, [r3, #0]
 8001be4:	f7ff fd74 	bl	80016d0 <HAL_InitTick>
 8001be8:	2800      	cmp	r0, #0
 8001bea:	d037      	beq.n	8001c5c <HAL_RCC_OscConfig+0x10c>
 8001bec:	b003      	add	sp, #12
 8001bee:	e8bd 83f0 	ldmia.w	sp!, {r4, r5, r6, r7, r8, r9, pc}
 8001bf2:	6823      	ldr	r3, [r4, #0]
 8001bf4:	f043 0308 	orr.w	r3, r3, #8
 8001bf8:	6023      	str	r3, [r4, #0]
 8001bfa:	6823      	ldr	r3, [r4, #0]
 8001bfc:	f023 03f0 	bic.w	r3, r3, #240	; 0xf0
 8001c00:	4303      	orrs	r3, r0
 8001c02:	6023      	str	r3, [r4, #0]
 8001c04:	6863      	ldr	r3, [r4, #4]
 8001c06:	69ea      	ldr	r2, [r5, #28]
 8001c08:	f423 437f 	bic.w	r3, r3, #65280	; 0xff00
 8001c0c:	ea43 2302 	orr.w	r3, r3, r2, lsl #8
 8001c10:	6063      	str	r3, [r4, #4]
 8001c12:	2e00      	cmp	r6, #0
 8001c14:	d1d8      	bne.n	8001bc8 <HAL_RCC_OscConfig+0x78>
 8001c16:	f7ff ff0b 	bl	8001a30 <RCC_SetFlashLatencyFromMSIRange>
 8001c1a:	2800      	cmp	r0, #0
 8001c1c:	d0d4      	beq.n	8001bc8 <HAL_RCC_OscConfig+0x78>
 8001c1e:	e79b      	b.n	8001b58 <HAL_RCC_OscConfig+0x8>
 8001c20:	69ab      	ldr	r3, [r5, #24]
 8001c22:	2b00      	cmp	r3, #0
 8001c24:	d03a      	beq.n	8001c9c <HAL_RCC_OscConfig+0x14c>
 8001c26:	6823      	ldr	r3, [r4, #0]
 8001c28:	f043 0301 	orr.w	r3, r3, #1
 8001c2c:	6023      	str	r3, [r4, #0]
 8001c2e:	f7ff fd91 	bl	8001754 <HAL_GetTick>
 8001c32:	4680      	mov	r8, r0
 8001c34:	6823      	ldr	r3, [r4, #0]
 8001c36:	079a      	lsls	r2, r3, #30
 8001c38:	d528      	bpl.n	8001c8c <HAL_RCC_OscConfig+0x13c>
 8001c3a:	6823      	ldr	r3, [r4, #0]
 8001c3c:	f043 0308 	orr.w	r3, r3, #8
 8001c40:	6023      	str	r3, [r4, #0]
 8001c42:	6823      	ldr	r3, [r4, #0]
 8001c44:	6a2a      	ldr	r2, [r5, #32]
 8001c46:	f023 03f0 	bic.w	r3, r3, #240	; 0xf0
 8001c4a:	4313      	orrs	r3, r2
 8001c4c:	6023      	str	r3, [r4, #0]
 8001c4e:	6863      	ldr	r3, [r4, #4]
 8001c50:	69ea      	ldr	r2, [r5, #28]
 8001c52:	f423 437f 	bic.w	r3, r3, #65280	; 0xff00
 8001c56:	ea43 2302 	orr.w	r3, r3, r2, lsl #8
 8001c5a:	6063      	str	r3, [r4, #4]
 8001c5c:	682b      	ldr	r3, [r5, #0]
 8001c5e:	07d8      	lsls	r0, r3, #31
 8001c60:	d42d      	bmi.n	8001cbe <HAL_RCC_OscConfig+0x16e>
 8001c62:	682b      	ldr	r3, [r5, #0]
 8001c64:	0799      	lsls	r1, r3, #30
 8001c66:	d46b      	bmi.n	8001d40 <HAL_RCC_OscConfig+0x1f0>
 8001c68:	682b      	ldr	r3, [r5, #0]
 8001c6a:	0718      	lsls	r0, r3, #28
 8001c6c:	f100 80a0 	bmi.w	8001db0 <HAL_RCC_OscConfig+0x260>
 8001c70:	682b      	ldr	r3, [r5, #0]
 8001c72:	0759      	lsls	r1, r3, #29
 8001c74:	f100 80ce 	bmi.w	8001e14 <HAL_RCC_OscConfig+0x2c4>
 8001c78:	682b      	ldr	r3, [r5, #0]
 8001c7a:	0698      	lsls	r0, r3, #26
 8001c7c:	f100 8137 	bmi.w	8001eee <HAL_RCC_OscConfig+0x39e>
 8001c80:	6aab      	ldr	r3, [r5, #40]	; 0x28
 8001c82:	2b00      	cmp	r3, #0
 8001c84:	f040 815d 	bne.w	8001f42 <HAL_RCC_OscConfig+0x3f2>
 8001c88:	2000      	movs	r0, #0
 8001c8a:	e7af      	b.n	8001bec <HAL_RCC_OscConfig+0x9c>
 8001c8c:	f7ff fd62 	bl	8001754 <HAL_GetTick>
 8001c90:	eba0 0008 	sub.w	r0, r0, r8
 8001c94:	2802      	cmp	r0, #2
 8001c96:	d9cd      	bls.n	8001c34 <HAL_RCC_OscConfig+0xe4>
 8001c98:	2003      	movs	r0, #3
 8001c9a:	e7a7      	b.n	8001bec <HAL_RCC_OscConfig+0x9c>
 8001c9c:	6823      	ldr	r3, [r4, #0]
 8001c9e:	f023 0301 	bic.w	r3, r3, #1
 8001ca2:	6023      	str	r3, [r4, #0]
 8001ca4:	f7ff fd56 	bl	8001754 <HAL_GetTick>
 8001ca8:	4680      	mov	r8, r0
 8001caa:	6823      	ldr	r3, [r4, #0]
 8001cac:	079b      	lsls	r3, r3, #30
 8001cae:	d5d5      	bpl.n	8001c5c <HAL_RCC_OscConfig+0x10c>
 8001cb0:	f7ff fd50 	bl	8001754 <HAL_GetTick>
 8001cb4:	eba0 0008 	sub.w	r0, r0, r8
 8001cb8:	2802      	cmp	r0, #2
 8001cba:	d9f6      	bls.n	8001caa <HAL_RCC_OscConfig+0x15a>
 8001cbc:	e7ec      	b.n	8001c98 <HAL_RCC_OscConfig+0x148>
 8001cbe:	2e08      	cmp	r6, #8
 8001cc0:	d003      	beq.n	8001cca <HAL_RCC_OscConfig+0x17a>
 8001cc2:	2e0c      	cmp	r6, #12
 8001cc4:	d108      	bne.n	8001cd8 <HAL_RCC_OscConfig+0x188>
 8001cc6:	2f03      	cmp	r7, #3
 8001cc8:	d106      	bne.n	8001cd8 <HAL_RCC_OscConfig+0x188>
 8001cca:	6823      	ldr	r3, [r4, #0]
 8001ccc:	039a      	lsls	r2, r3, #14
 8001cce:	d5c8      	bpl.n	8001c62 <HAL_RCC_OscConfig+0x112>
 8001cd0:	686b      	ldr	r3, [r5, #4]
 8001cd2:	2b00      	cmp	r3, #0
 8001cd4:	d1c5      	bne.n	8001c62 <HAL_RCC_OscConfig+0x112>
 8001cd6:	e73f      	b.n	8001b58 <HAL_RCC_OscConfig+0x8>
 8001cd8:	686b      	ldr	r3, [r5, #4]
 8001cda:	f5b3 3f80 	cmp.w	r3, #65536	; 0x10000
 8001cde:	d110      	bne.n	8001d02 <HAL_RCC_OscConfig+0x1b2>
 8001ce0:	6823      	ldr	r3, [r4, #0]
 8001ce2:	f443 3380 	orr.w	r3, r3, #65536	; 0x10000
 8001ce6:	6023      	str	r3, [r4, #0]
 8001ce8:	f7ff fd34 	bl	8001754 <HAL_GetTick>
 8001cec:	4680      	mov	r8, r0
 8001cee:	6823      	ldr	r3, [r4, #0]
 8001cf0:	039b      	lsls	r3, r3, #14
 8001cf2:	d4b6      	bmi.n	8001c62 <HAL_RCC_OscConfig+0x112>
 8001cf4:	f7ff fd2e 	bl	8001754 <HAL_GetTick>
 8001cf8:	eba0 0008 	sub.w	r0, r0, r8
 8001cfc:	2864      	cmp	r0, #100	; 0x64
 8001cfe:	d9f6      	bls.n	8001cee <HAL_RCC_OscConfig+0x19e>
 8001d00:	e7ca      	b.n	8001c98 <HAL_RCC_OscConfig+0x148>
 8001d02:	f5b3 2fa0 	cmp.w	r3, #327680	; 0x50000
 8001d06:	d104      	bne.n	8001d12 <HAL_RCC_OscConfig+0x1c2>
 8001d08:	6823      	ldr	r3, [r4, #0]
 8001d0a:	f443 2380 	orr.w	r3, r3, #262144	; 0x40000
 8001d0e:	6023      	str	r3, [r4, #0]
 8001d10:	e7e6      	b.n	8001ce0 <HAL_RCC_OscConfig+0x190>
 8001d12:	6822      	ldr	r2, [r4, #0]
 8001d14:	f422 3280 	bic.w	r2, r2, #65536	; 0x10000
 8001d18:	6022      	str	r2, [r4, #0]
 8001d1a:	6822      	ldr	r2, [r4, #0]
 8001d1c:	f422 2280 	bic.w	r2, r2, #262144	; 0x40000
 8001d20:	6022      	str	r2, [r4, #0]
 8001d22:	2b00      	cmp	r3, #0
 8001d24:	d1e0      	bne.n	8001ce8 <HAL_RCC_OscConfig+0x198>
 8001d26:	f7ff fd15 	bl	8001754 <HAL_GetTick>
 8001d2a:	4680      	mov	r8, r0
 8001d2c:	6823      	ldr	r3, [r4, #0]
 8001d2e:	0398      	lsls	r0, r3, #14
 8001d30:	d597      	bpl.n	8001c62 <HAL_RCC_OscConfig+0x112>
 8001d32:	f7ff fd0f 	bl	8001754 <HAL_GetTick>
 8001d36:	eba0 0008 	sub.w	r0, r0, r8
 8001d3a:	2864      	cmp	r0, #100	; 0x64
 8001d3c:	d9f6      	bls.n	8001d2c <HAL_RCC_OscConfig+0x1dc>
 8001d3e:	e7ab      	b.n	8001c98 <HAL_RCC_OscConfig+0x148>
 8001d40:	2e04      	cmp	r6, #4
 8001d42:	d003      	beq.n	8001d4c <HAL_RCC_OscConfig+0x1fc>
 8001d44:	2e0c      	cmp	r6, #12
 8001d46:	d110      	bne.n	8001d6a <HAL_RCC_OscConfig+0x21a>
 8001d48:	2f02      	cmp	r7, #2
 8001d4a:	d10e      	bne.n	8001d6a <HAL_RCC_OscConfig+0x21a>
 8001d4c:	6823      	ldr	r3, [r4, #0]
 8001d4e:	0559      	lsls	r1, r3, #21
 8001d50:	d503      	bpl.n	8001d5a <HAL_RCC_OscConfig+0x20a>
 8001d52:	68eb      	ldr	r3, [r5, #12]
 8001d54:	2b00      	cmp	r3, #0
 8001d56:	f43f aeff 	beq.w	8001b58 <HAL_RCC_OscConfig+0x8>
 8001d5a:	6863      	ldr	r3, [r4, #4]
 8001d5c:	692a      	ldr	r2, [r5, #16]
 8001d5e:	f023 53f8 	bic.w	r3, r3, #520093696	; 0x1f000000
 8001d62:	ea43 6302 	orr.w	r3, r3, r2, lsl #24
 8001d66:	6063      	str	r3, [r4, #4]
 8001d68:	e77e      	b.n	8001c68 <HAL_RCC_OscConfig+0x118>
 8001d6a:	68eb      	ldr	r3, [r5, #12]
 8001d6c:	b17b      	cbz	r3, 8001d8e <HAL_RCC_OscConfig+0x23e>
 8001d6e:	6823      	ldr	r3, [r4, #0]
 8001d70:	f443 7380 	orr.w	r3, r3, #256	; 0x100
 8001d74:	6023      	str	r3, [r4, #0]
 8001d76:	f7ff fced 	bl	8001754 <HAL_GetTick>
 8001d7a:	4607      	mov	r7, r0
 8001d7c:	6823      	ldr	r3, [r4, #0]
 8001d7e:	055a      	lsls	r2, r3, #21
 8001d80:	d4eb      	bmi.n	8001d5a <HAL_RCC_OscConfig+0x20a>
 8001d82:	f7ff fce7 	bl	8001754 <HAL_GetTick>
 8001d86:	1bc0      	subs	r0, r0, r7
 8001d88:	2802      	cmp	r0, #2
 8001d8a:	d9f7      	bls.n	8001d7c <HAL_RCC_OscConfig+0x22c>
 8001d8c:	e784      	b.n	8001c98 <HAL_RCC_OscConfig+0x148>
 8001d8e:	6823      	ldr	r3, [r4, #0]
 8001d90:	f423 7380 	bic.w	r3, r3, #256	; 0x100
 8001d94:	6023      	str	r3, [r4, #0]
 8001d96:	f7ff fcdd 	bl	8001754 <HAL_GetTick>
 8001d9a:	4607      	mov	r7, r0
 8001d9c:	6823      	ldr	r3, [r4, #0]
 8001d9e:	055b      	lsls	r3, r3, #21
 8001da0:	f57f af62 	bpl.w	8001c68 <HAL_RCC_OscConfig+0x118>
 8001da4:	f7ff fcd6 	bl	8001754 <HAL_GetTick>
 8001da8:	1bc0      	subs	r0, r0, r7
 8001daa:	2802      	cmp	r0, #2
 8001dac:	d9f6      	bls.n	8001d9c <HAL_RCC_OscConfig+0x24c>
 8001dae:	e773      	b.n	8001c98 <HAL_RCC_OscConfig+0x148>
 8001db0:	696b      	ldr	r3, [r5, #20]
 8001db2:	b1db      	cbz	r3, 8001dec <HAL_RCC_OscConfig+0x29c>
 8001db4:	f8d4 3094 	ldr.w	r3, [r4, #148]	; 0x94
 8001db8:	f043 0301 	orr.w	r3, r3, #1
 8001dbc:	f8c4 3094 	str.w	r3, [r4, #148]	; 0x94
 8001dc0:	f7ff fcc8 	bl	8001754 <HAL_GetTick>
 8001dc4:	4607      	mov	r7, r0
 8001dc6:	f8d4 3094 	ldr.w	r3, [r4, #148]	; 0x94
 8001dca:	079a      	lsls	r2, r3, #30
 8001dcc:	f53f af50 	bmi.w	8001c70 <HAL_RCC_OscConfig+0x120>
 8001dd0:	f7ff fcc0 	bl	8001754 <HAL_GetTick>
 8001dd4:	1bc0      	subs	r0, r0, r7
 8001dd6:	2802      	cmp	r0, #2
 8001dd8:	d9f5      	bls.n	8001dc6 <HAL_RCC_OscConfig+0x276>
 8001dda:	e75d      	b.n	8001c98 <HAL_RCC_OscConfig+0x148>
 8001ddc:	40021000 	.word	0x40021000
 8001de0:	0800885c 	.word	0x0800885c
 8001de4:	20000bb4 	.word	0x20000bb4
 8001de8:	20000bbc 	.word	0x20000bbc
 8001dec:	f8d4 3094 	ldr.w	r3, [r4, #148]	; 0x94
 8001df0:	f023 0301 	bic.w	r3, r3, #1
 8001df4:	f8c4 3094 	str.w	r3, [r4, #148]	; 0x94
 8001df8:	f7ff fcac 	bl	8001754 <HAL_GetTick>
 8001dfc:	4607      	mov	r7, r0
 8001dfe:	f8d4 3094 	ldr.w	r3, [r4, #148]	; 0x94
 8001e02:	079b      	lsls	r3, r3, #30
 8001e04:	f57f af34 	bpl.w	8001c70 <HAL_RCC_OscConfig+0x120>
 8001e08:	f7ff fca4 	bl	8001754 <HAL_GetTick>
 8001e0c:	1bc0      	subs	r0, r0, r7
 8001e0e:	2802      	cmp	r0, #2
 8001e10:	d9f5      	bls.n	8001dfe <HAL_RCC_OscConfig+0x2ae>
 8001e12:	e741      	b.n	8001c98 <HAL_RCC_OscConfig+0x148>
 8001e14:	6da3      	ldr	r3, [r4, #88]	; 0x58
 8001e16:	00df      	lsls	r7, r3, #3
 8001e18:	d429      	bmi.n	8001e6e <HAL_RCC_OscConfig+0x31e>
 8001e1a:	6da3      	ldr	r3, [r4, #88]	; 0x58
 8001e1c:	f043 5380 	orr.w	r3, r3, #268435456	; 0x10000000
 8001e20:	65a3      	str	r3, [r4, #88]	; 0x58
 8001e22:	6da3      	ldr	r3, [r4, #88]	; 0x58
 8001e24:	f003 5380 	and.w	r3, r3, #268435456	; 0x10000000
 8001e28:	9301      	str	r3, [sp, #4]
 8001e2a:	9b01      	ldr	r3, [sp, #4]
 8001e2c:	f04f 0801 	mov.w	r8, #1
 8001e30:	4f9a      	ldr	r7, [pc, #616]	; (800209c <HAL_RCC_OscConfig+0x54c>)
 8001e32:	683b      	ldr	r3, [r7, #0]
 8001e34:	05d8      	lsls	r0, r3, #23
 8001e36:	d51d      	bpl.n	8001e74 <HAL_RCC_OscConfig+0x324>
 8001e38:	68ab      	ldr	r3, [r5, #8]
 8001e3a:	2b01      	cmp	r3, #1
 8001e3c:	d12b      	bne.n	8001e96 <HAL_RCC_OscConfig+0x346>
 8001e3e:	f8d4 3090 	ldr.w	r3, [r4, #144]	; 0x90
 8001e42:	f043 0301 	orr.w	r3, r3, #1
 8001e46:	f8c4 3090 	str.w	r3, [r4, #144]	; 0x90
 8001e4a:	f7ff fc83 	bl	8001754 <HAL_GetTick>
 8001e4e:	f241 3988 	movw	r9, #5000	; 0x1388
 8001e52:	4607      	mov	r7, r0
 8001e54:	f8d4 3090 	ldr.w	r3, [r4, #144]	; 0x90
 8001e58:	079a      	lsls	r2, r3, #30
 8001e5a:	d542      	bpl.n	8001ee2 <HAL_RCC_OscConfig+0x392>
 8001e5c:	f1b8 0f00 	cmp.w	r8, #0
 8001e60:	f43f af0a 	beq.w	8001c78 <HAL_RCC_OscConfig+0x128>
 8001e64:	6da3      	ldr	r3, [r4, #88]	; 0x58
 8001e66:	f023 5380 	bic.w	r3, r3, #268435456	; 0x10000000
 8001e6a:	65a3      	str	r3, [r4, #88]	; 0x58
 8001e6c:	e704      	b.n	8001c78 <HAL_RCC_OscConfig+0x128>
 8001e6e:	f04f 0800 	mov.w	r8, #0
 8001e72:	e7dd      	b.n	8001e30 <HAL_RCC_OscConfig+0x2e0>
 8001e74:	683b      	ldr	r3, [r7, #0]
 8001e76:	f443 7380 	orr.w	r3, r3, #256	; 0x100
 8001e7a:	603b      	str	r3, [r7, #0]
 8001e7c:	f7ff fc6a 	bl	8001754 <HAL_GetTick>
 8001e80:	4681      	mov	r9, r0
 8001e82:	683b      	ldr	r3, [r7, #0]
 8001e84:	05d9      	lsls	r1, r3, #23
 8001e86:	d4d7      	bmi.n	8001e38 <HAL_RCC_OscConfig+0x2e8>
 8001e88:	f7ff fc64 	bl	8001754 <HAL_GetTick>
 8001e8c:	eba0 0009 	sub.w	r0, r0, r9
 8001e90:	2802      	cmp	r0, #2
 8001e92:	d9f6      	bls.n	8001e82 <HAL_RCC_OscConfig+0x332>
 8001e94:	e700      	b.n	8001c98 <HAL_RCC_OscConfig+0x148>
 8001e96:	2b05      	cmp	r3, #5
 8001e98:	d106      	bne.n	8001ea8 <HAL_RCC_OscConfig+0x358>
 8001e9a:	f8d4 3090 	ldr.w	r3, [r4, #144]	; 0x90
 8001e9e:	f043 0304 	orr.w	r3, r3, #4
 8001ea2:	f8c4 3090 	str.w	r3, [r4, #144]	; 0x90
 8001ea6:	e7ca      	b.n	8001e3e <HAL_RCC_OscConfig+0x2ee>
 8001ea8:	f8d4 2090 	ldr.w	r2, [r4, #144]	; 0x90
 8001eac:	f022 0201 	bic.w	r2, r2, #1
 8001eb0:	f8c4 2090 	str.w	r2, [r4, #144]	; 0x90
 8001eb4:	f8d4 2090 	ldr.w	r2, [r4, #144]	; 0x90
 8001eb8:	f022 0204 	bic.w	r2, r2, #4
 8001ebc:	f8c4 2090 	str.w	r2, [r4, #144]	; 0x90
 8001ec0:	2b00      	cmp	r3, #0
 8001ec2:	d1c2      	bne.n	8001e4a <HAL_RCC_OscConfig+0x2fa>
 8001ec4:	f7ff fc46 	bl	8001754 <HAL_GetTick>
 8001ec8:	f241 3988 	movw	r9, #5000	; 0x1388
 8001ecc:	4607      	mov	r7, r0
 8001ece:	f8d4 3090 	ldr.w	r3, [r4, #144]	; 0x90
 8001ed2:	079b      	lsls	r3, r3, #30
 8001ed4:	d5c2      	bpl.n	8001e5c <HAL_RCC_OscConfig+0x30c>
 8001ed6:	f7ff fc3d 	bl	8001754 <HAL_GetTick>
 8001eda:	1bc0      	subs	r0, r0, r7
 8001edc:	4548      	cmp	r0, r9
 8001ede:	d9f6      	bls.n	8001ece <HAL_RCC_OscConfig+0x37e>
 8001ee0:	e6da      	b.n	8001c98 <HAL_RCC_OscConfig+0x148>
 8001ee2:	f7ff fc37 	bl	8001754 <HAL_GetTick>
 8001ee6:	1bc0      	subs	r0, r0, r7
 8001ee8:	4548      	cmp	r0, r9
 8001eea:	d9b3      	bls.n	8001e54 <HAL_RCC_OscConfig+0x304>
 8001eec:	e6d4      	b.n	8001c98 <HAL_RCC_OscConfig+0x148>
 8001eee:	6a6b      	ldr	r3, [r5, #36]	; 0x24
 8001ef0:	b19b      	cbz	r3, 8001f1a <HAL_RCC_OscConfig+0x3ca>
 8001ef2:	f8d4 3098 	ldr.w	r3, [r4, #152]	; 0x98
 8001ef6:	f043 0301 	orr.w	r3, r3, #1
 8001efa:	f8c4 3098 	str.w	r3, [r4, #152]	; 0x98
 8001efe:	f7ff fc29 	bl	8001754 <HAL_GetTick>
 8001f02:	4607      	mov	r7, r0
 8001f04:	f8d4 3098 	ldr.w	r3, [r4, #152]	; 0x98
 8001f08:	0799      	lsls	r1, r3, #30
 8001f0a:	f53f aeb9 	bmi.w	8001c80 <HAL_RCC_OscConfig+0x130>
 8001f0e:	f7ff fc21 	bl	8001754 <HAL_GetTick>
 8001f12:	1bc0      	subs	r0, r0, r7
 8001f14:	2802      	cmp	r0, #2
 8001f16:	d9f5      	bls.n	8001f04 <HAL_RCC_OscConfig+0x3b4>
 8001f18:	e6be      	b.n	8001c98 <HAL_RCC_OscConfig+0x148>
 8001f1a:	f8d4 3098 	ldr.w	r3, [r4, #152]	; 0x98
 8001f1e:	f023 0301 	bic.w	r3, r3, #1
 8001f22:	f8c4 3098 	str.w	r3, [r4, #152]	; 0x98
 8001f26:	f7ff fc15 	bl	8001754 <HAL_GetTick>
 8001f2a:	4607      	mov	r7, r0
 8001f2c:	f8d4 3098 	ldr.w	r3, [r4, #152]	; 0x98
 8001f30:	079a      	lsls	r2, r3, #30
 8001f32:	f57f aea5 	bpl.w	8001c80 <HAL_RCC_OscConfig+0x130>
 8001f36:	f7ff fc0d 	bl	8001754 <HAL_GetTick>
 8001f3a:	1bc0      	subs	r0, r0, r7
 8001f3c:	2802      	cmp	r0, #2
 8001f3e:	d9f5      	bls.n	8001f2c <HAL_RCC_OscConfig+0x3dc>
 8001f40:	e6aa      	b.n	8001c98 <HAL_RCC_OscConfig+0x148>
 8001f42:	2b02      	cmp	r3, #2
 8001f44:	f040 8088 	bne.w	8002058 <HAL_RCC_OscConfig+0x508>
 8001f48:	68e3      	ldr	r3, [r4, #12]
 8001f4a:	6aea      	ldr	r2, [r5, #44]	; 0x2c
 8001f4c:	f003 0103 	and.w	r1, r3, #3
 8001f50:	4291      	cmp	r1, r2
 8001f52:	d122      	bne.n	8001f9a <HAL_RCC_OscConfig+0x44a>
 8001f54:	6b29      	ldr	r1, [r5, #48]	; 0x30
 8001f56:	f003 0270 	and.w	r2, r3, #112	; 0x70
 8001f5a:	3901      	subs	r1, #1
 8001f5c:	ebb2 1f01 	cmp.w	r2, r1, lsl #4
 8001f60:	d11b      	bne.n	8001f9a <HAL_RCC_OscConfig+0x44a>
 8001f62:	6b69      	ldr	r1, [r5, #52]	; 0x34
 8001f64:	f403 42fe 	and.w	r2, r3, #32512	; 0x7f00
 8001f68:	ebb2 2f01 	cmp.w	r2, r1, lsl #8
 8001f6c:	d115      	bne.n	8001f9a <HAL_RCC_OscConfig+0x44a>
 8001f6e:	6ba9      	ldr	r1, [r5, #56]	; 0x38
 8001f70:	f003 4278 	and.w	r2, r3, #4160749568	; 0xf8000000
 8001f74:	ebb2 6fc1 	cmp.w	r2, r1, lsl #27
 8001f78:	d10f      	bne.n	8001f9a <HAL_RCC_OscConfig+0x44a>
 8001f7a:	6bea      	ldr	r2, [r5, #60]	; 0x3c
 8001f7c:	0852      	lsrs	r2, r2, #1
 8001f7e:	f403 01c0 	and.w	r1, r3, #6291456	; 0x600000
 8001f82:	3a01      	subs	r2, #1
 8001f84:	ebb1 5f42 	cmp.w	r1, r2, lsl #21
 8001f88:	d107      	bne.n	8001f9a <HAL_RCC_OscConfig+0x44a>
 8001f8a:	6c2a      	ldr	r2, [r5, #64]	; 0x40
 8001f8c:	0852      	lsrs	r2, r2, #1
 8001f8e:	f003 63c0 	and.w	r3, r3, #100663296	; 0x6000000
 8001f92:	3a01      	subs	r2, #1
 8001f94:	ebb3 6f42 	cmp.w	r3, r2, lsl #25
 8001f98:	d045      	beq.n	8002026 <HAL_RCC_OscConfig+0x4d6>
 8001f9a:	2e0c      	cmp	r6, #12
 8001f9c:	f43f addc 	beq.w	8001b58 <HAL_RCC_OscConfig+0x8>
 8001fa0:	6823      	ldr	r3, [r4, #0]
 8001fa2:	015b      	lsls	r3, r3, #5
 8001fa4:	f53f add8 	bmi.w	8001b58 <HAL_RCC_OscConfig+0x8>
 8001fa8:	6823      	ldr	r3, [r4, #0]
 8001faa:	f023 7380 	bic.w	r3, r3, #16777216	; 0x1000000
 8001fae:	6023      	str	r3, [r4, #0]
 8001fb0:	f7ff fbd0 	bl	8001754 <HAL_GetTick>
 8001fb4:	4606      	mov	r6, r0
 8001fb6:	6823      	ldr	r3, [r4, #0]
 8001fb8:	019f      	lsls	r7, r3, #6
 8001fba:	d42e      	bmi.n	800201a <HAL_RCC_OscConfig+0x4ca>
 8001fbc:	68e2      	ldr	r2, [r4, #12]
 8001fbe:	4b38      	ldr	r3, [pc, #224]	; (80020a0 <HAL_RCC_OscConfig+0x550>)
 8001fc0:	4013      	ands	r3, r2
 8001fc2:	6aea      	ldr	r2, [r5, #44]	; 0x2c
 8001fc4:	4313      	orrs	r3, r2
 8001fc6:	6b6a      	ldr	r2, [r5, #52]	; 0x34
 8001fc8:	ea43 2302 	orr.w	r3, r3, r2, lsl #8
 8001fcc:	6baa      	ldr	r2, [r5, #56]	; 0x38
 8001fce:	ea43 63c2 	orr.w	r3, r3, r2, lsl #27
 8001fd2:	6b2a      	ldr	r2, [r5, #48]	; 0x30
 8001fd4:	3a01      	subs	r2, #1
 8001fd6:	ea43 1302 	orr.w	r3, r3, r2, lsl #4
 8001fda:	6bea      	ldr	r2, [r5, #60]	; 0x3c
 8001fdc:	0852      	lsrs	r2, r2, #1
 8001fde:	3a01      	subs	r2, #1
 8001fe0:	ea43 5342 	orr.w	r3, r3, r2, lsl #21
 8001fe4:	6c2a      	ldr	r2, [r5, #64]	; 0x40
 8001fe6:	0852      	lsrs	r2, r2, #1
 8001fe8:	3a01      	subs	r2, #1
 8001fea:	ea43 6342 	orr.w	r3, r3, r2, lsl #25
 8001fee:	60e3      	str	r3, [r4, #12]
 8001ff0:	6823      	ldr	r3, [r4, #0]
 8001ff2:	f043 7380 	orr.w	r3, r3, #16777216	; 0x1000000
 8001ff6:	6023      	str	r3, [r4, #0]
 8001ff8:	68e3      	ldr	r3, [r4, #12]
 8001ffa:	f043 7380 	orr.w	r3, r3, #16777216	; 0x1000000
 8001ffe:	60e3      	str	r3, [r4, #12]
 8002000:	f7ff fba8 	bl	8001754 <HAL_GetTick>
 8002004:	4605      	mov	r5, r0
 8002006:	6823      	ldr	r3, [r4, #0]
 8002008:	019e      	lsls	r6, r3, #6
 800200a:	f53f ae3d 	bmi.w	8001c88 <HAL_RCC_OscConfig+0x138>
 800200e:	f7ff fba1 	bl	8001754 <HAL_GetTick>
 8002012:	1b40      	subs	r0, r0, r5
 8002014:	2802      	cmp	r0, #2
 8002016:	d9f6      	bls.n	8002006 <HAL_RCC_OscConfig+0x4b6>
 8002018:	e63e      	b.n	8001c98 <HAL_RCC_OscConfig+0x148>
 800201a:	f7ff fb9b 	bl	8001754 <HAL_GetTick>
 800201e:	1b80      	subs	r0, r0, r6
 8002020:	2802      	cmp	r0, #2
 8002022:	d9c8      	bls.n	8001fb6 <HAL_RCC_OscConfig+0x466>
 8002024:	e638      	b.n	8001c98 <HAL_RCC_OscConfig+0x148>
 8002026:	6823      	ldr	r3, [r4, #0]
 8002028:	0198      	lsls	r0, r3, #6
 800202a:	f53f ae2d 	bmi.w	8001c88 <HAL_RCC_OscConfig+0x138>
 800202e:	6823      	ldr	r3, [r4, #0]
 8002030:	f043 7380 	orr.w	r3, r3, #16777216	; 0x1000000
 8002034:	6023      	str	r3, [r4, #0]
 8002036:	68e3      	ldr	r3, [r4, #12]
 8002038:	f043 7380 	orr.w	r3, r3, #16777216	; 0x1000000
 800203c:	60e3      	str	r3, [r4, #12]
 800203e:	f7ff fb89 	bl	8001754 <HAL_GetTick>
 8002042:	4605      	mov	r5, r0
 8002044:	6823      	ldr	r3, [r4, #0]
 8002046:	0199      	lsls	r1, r3, #6
 8002048:	f53f ae1e 	bmi.w	8001c88 <HAL_RCC_OscConfig+0x138>
 800204c:	f7ff fb82 	bl	8001754 <HAL_GetTick>
 8002050:	1b40      	subs	r0, r0, r5
 8002052:	2802      	cmp	r0, #2
 8002054:	d9f6      	bls.n	8002044 <HAL_RCC_OscConfig+0x4f4>
 8002056:	e61f      	b.n	8001c98 <HAL_RCC_OscConfig+0x148>
 8002058:	2e0c      	cmp	r6, #12
 800205a:	f43f ad7d 	beq.w	8001b58 <HAL_RCC_OscConfig+0x8>
 800205e:	6823      	ldr	r3, [r4, #0]
 8002060:	f023 7380 	bic.w	r3, r3, #16777216	; 0x1000000
 8002064:	6023      	str	r3, [r4, #0]
 8002066:	6823      	ldr	r3, [r4, #0]
 8002068:	011a      	lsls	r2, r3, #4
 800206a:	bf5e      	ittt	pl
 800206c:	68e3      	ldrpl	r3, [r4, #12]
 800206e:	f023 0303 	bicpl.w	r3, r3, #3
 8002072:	60e3      	strpl	r3, [r4, #12]
 8002074:	68e3      	ldr	r3, [r4, #12]
 8002076:	f023 7388 	bic.w	r3, r3, #17825792	; 0x1100000
 800207a:	f423 3380 	bic.w	r3, r3, #65536	; 0x10000
 800207e:	60e3      	str	r3, [r4, #12]
 8002080:	f7ff fb68 	bl	8001754 <HAL_GetTick>
 8002084:	4605      	mov	r5, r0
 8002086:	6823      	ldr	r3, [r4, #0]
 8002088:	019b      	lsls	r3, r3, #6
 800208a:	f57f adfd 	bpl.w	8001c88 <HAL_RCC_OscConfig+0x138>
 800208e:	f7ff fb61 	bl	8001754 <HAL_GetTick>
 8002092:	1b40      	subs	r0, r0, r5
 8002094:	2802      	cmp	r0, #2
 8002096:	d9f6      	bls.n	8002086 <HAL_RCC_OscConfig+0x536>
 8002098:	e5fe      	b.n	8001c98 <HAL_RCC_OscConfig+0x148>
 800209a:	bf00      	nop
 800209c:	40007000 	.word	0x40007000
 80020a0:	019d808c 	.word	0x019d808c

080020a4 <HAL_RCC_ClockConfig>:
 80020a4:	e92d 41f0 	stmdb	sp!, {r4, r5, r6, r7, r8, lr}
 80020a8:	460d      	mov	r5, r1
 80020aa:	4604      	mov	r4, r0
 80020ac:	b910      	cbnz	r0, 80020b4 <HAL_RCC_ClockConfig+0x10>
 80020ae:	2001      	movs	r0, #1
 80020b0:	e8bd 81f0 	ldmia.w	sp!, {r4, r5, r6, r7, r8, pc}
 80020b4:	4a40      	ldr	r2, [pc, #256]	; (80021b8 <HAL_RCC_ClockConfig+0x114>)
 80020b6:	6813      	ldr	r3, [r2, #0]
 80020b8:	f003 0307 	and.w	r3, r3, #7
 80020bc:	428b      	cmp	r3, r1
 80020be:	d32a      	bcc.n	8002116 <HAL_RCC_ClockConfig+0x72>
 80020c0:	6823      	ldr	r3, [r4, #0]
 80020c2:	07d9      	lsls	r1, r3, #31
 80020c4:	d432      	bmi.n	800212c <HAL_RCC_ClockConfig+0x88>
 80020c6:	6821      	ldr	r1, [r4, #0]
 80020c8:	078a      	lsls	r2, r1, #30
 80020ca:	d45b      	bmi.n	8002184 <HAL_RCC_ClockConfig+0xe0>
 80020cc:	4a3a      	ldr	r2, [pc, #232]	; (80021b8 <HAL_RCC_ClockConfig+0x114>)
 80020ce:	6813      	ldr	r3, [r2, #0]
 80020d0:	f003 0307 	and.w	r3, r3, #7
 80020d4:	42ab      	cmp	r3, r5
 80020d6:	d85d      	bhi.n	8002194 <HAL_RCC_ClockConfig+0xf0>
 80020d8:	f011 0f04 	tst.w	r1, #4
 80020dc:	4d37      	ldr	r5, [pc, #220]	; (80021bc <HAL_RCC_ClockConfig+0x118>)
 80020de:	d164      	bne.n	80021aa <HAL_RCC_ClockConfig+0x106>
 80020e0:	070b      	lsls	r3, r1, #28
 80020e2:	d506      	bpl.n	80020f2 <HAL_RCC_ClockConfig+0x4e>
 80020e4:	68ab      	ldr	r3, [r5, #8]
 80020e6:	6922      	ldr	r2, [r4, #16]
 80020e8:	f423 5360 	bic.w	r3, r3, #14336	; 0x3800
 80020ec:	ea43 03c2 	orr.w	r3, r3, r2, lsl #3
 80020f0:	60ab      	str	r3, [r5, #8]
 80020f2:	f7ff fcdf 	bl	8001ab4 <HAL_RCC_GetSysClockFreq>
 80020f6:	68ab      	ldr	r3, [r5, #8]
 80020f8:	4a31      	ldr	r2, [pc, #196]	; (80021c0 <HAL_RCC_ClockConfig+0x11c>)
 80020fa:	f3c3 1303 	ubfx	r3, r3, #4, #4
 80020fe:	e8bd 41f0 	ldmia.w	sp!, {r4, r5, r6, r7, r8, lr}
 8002102:	5cd3      	ldrb	r3, [r2, r3]
 8002104:	f003 031f 	and.w	r3, r3, #31
 8002108:	40d8      	lsrs	r0, r3
 800210a:	4b2e      	ldr	r3, [pc, #184]	; (80021c4 <HAL_RCC_ClockConfig+0x120>)
 800210c:	6018      	str	r0, [r3, #0]
 800210e:	4b2e      	ldr	r3, [pc, #184]	; (80021c8 <HAL_RCC_ClockConfig+0x124>)
 8002110:	6818      	ldr	r0, [r3, #0]
 8002112:	f7ff badd 	b.w	80016d0 <HAL_InitTick>
 8002116:	6813      	ldr	r3, [r2, #0]
 8002118:	f023 0307 	bic.w	r3, r3, #7
 800211c:	430b      	orrs	r3, r1
 800211e:	6013      	str	r3, [r2, #0]
 8002120:	6813      	ldr	r3, [r2, #0]
 8002122:	f003 0307 	and.w	r3, r3, #7
 8002126:	428b      	cmp	r3, r1
 8002128:	d1c1      	bne.n	80020ae <HAL_RCC_ClockConfig+0xa>
 800212a:	e7c9      	b.n	80020c0 <HAL_RCC_ClockConfig+0x1c>
 800212c:	6862      	ldr	r2, [r4, #4]
 800212e:	4e23      	ldr	r6, [pc, #140]	; (80021bc <HAL_RCC_ClockConfig+0x118>)
 8002130:	2a03      	cmp	r2, #3
 8002132:	6833      	ldr	r3, [r6, #0]
 8002134:	d11a      	bne.n	800216c <HAL_RCC_ClockConfig+0xc8>
 8002136:	f013 7f00 	tst.w	r3, #33554432	; 0x2000000
 800213a:	d0b8      	beq.n	80020ae <HAL_RCC_ClockConfig+0xa>
 800213c:	68b3      	ldr	r3, [r6, #8]
 800213e:	f023 0303 	bic.w	r3, r3, #3
 8002142:	4313      	orrs	r3, r2
 8002144:	60b3      	str	r3, [r6, #8]
 8002146:	f7ff fb05 	bl	8001754 <HAL_GetTick>
 800214a:	f241 3888 	movw	r8, #5000	; 0x1388
 800214e:	4607      	mov	r7, r0
 8002150:	68b3      	ldr	r3, [r6, #8]
 8002152:	6862      	ldr	r2, [r4, #4]
 8002154:	f003 030c 	and.w	r3, r3, #12
 8002158:	ebb3 0f82 	cmp.w	r3, r2, lsl #2
 800215c:	d0b3      	beq.n	80020c6 <HAL_RCC_ClockConfig+0x22>
 800215e:	f7ff faf9 	bl	8001754 <HAL_GetTick>
 8002162:	1bc0      	subs	r0, r0, r7
 8002164:	4540      	cmp	r0, r8
 8002166:	d9f3      	bls.n	8002150 <HAL_RCC_ClockConfig+0xac>
 8002168:	2003      	movs	r0, #3
 800216a:	e7a1      	b.n	80020b0 <HAL_RCC_ClockConfig+0xc>
 800216c:	2a02      	cmp	r2, #2
 800216e:	d102      	bne.n	8002176 <HAL_RCC_ClockConfig+0xd2>
 8002170:	f413 3f00 	tst.w	r3, #131072	; 0x20000
 8002174:	e7e1      	b.n	800213a <HAL_RCC_ClockConfig+0x96>
 8002176:	b912      	cbnz	r2, 800217e <HAL_RCC_ClockConfig+0xda>
 8002178:	f013 0f02 	tst.w	r3, #2
 800217c:	e7dd      	b.n	800213a <HAL_RCC_ClockConfig+0x96>
 800217e:	f413 6f80 	tst.w	r3, #1024	; 0x400
 8002182:	e7da      	b.n	800213a <HAL_RCC_ClockConfig+0x96>
 8002184:	4a0d      	ldr	r2, [pc, #52]	; (80021bc <HAL_RCC_ClockConfig+0x118>)
 8002186:	68a0      	ldr	r0, [r4, #8]
 8002188:	6893      	ldr	r3, [r2, #8]
 800218a:	f023 03f0 	bic.w	r3, r3, #240	; 0xf0
 800218e:	4303      	orrs	r3, r0
 8002190:	6093      	str	r3, [r2, #8]
 8002192:	e79b      	b.n	80020cc <HAL_RCC_ClockConfig+0x28>
 8002194:	6813      	ldr	r3, [r2, #0]
 8002196:	f023 0307 	bic.w	r3, r3, #7
 800219a:	432b      	orrs	r3, r5
 800219c:	6013      	str	r3, [r2, #0]
 800219e:	6813      	ldr	r3, [r2, #0]
 80021a0:	f003 0307 	and.w	r3, r3, #7
 80021a4:	42ab      	cmp	r3, r5
 80021a6:	d182      	bne.n	80020ae <HAL_RCC_ClockConfig+0xa>
 80021a8:	e796      	b.n	80020d8 <HAL_RCC_ClockConfig+0x34>
 80021aa:	68ab      	ldr	r3, [r5, #8]
 80021ac:	68e2      	ldr	r2, [r4, #12]
 80021ae:	f423 63e0 	bic.w	r3, r3, #1792	; 0x700
 80021b2:	4313      	orrs	r3, r2
 80021b4:	60ab      	str	r3, [r5, #8]
 80021b6:	e793      	b.n	80020e0 <HAL_RCC_ClockConfig+0x3c>
 80021b8:	40022000 	.word	0x40022000
 80021bc:	40021000 	.word	0x40021000
 80021c0:	0800885c 	.word	0x0800885c
 80021c4:	20000bb4 	.word	0x20000bb4
 80021c8:	20000bbc 	.word	0x20000bbc

080021cc <HAL_RCC_GetPCLK1Freq>:
 80021cc:	4b05      	ldr	r3, [pc, #20]	; (80021e4 <HAL_RCC_GetPCLK1Freq+0x18>)
 80021ce:	4a06      	ldr	r2, [pc, #24]	; (80021e8 <HAL_RCC_GetPCLK1Freq+0x1c>)
 80021d0:	689b      	ldr	r3, [r3, #8]
 80021d2:	f3c3 2302 	ubfx	r3, r3, #8, #3
 80021d6:	5cd3      	ldrb	r3, [r2, r3]
 80021d8:	4a04      	ldr	r2, [pc, #16]	; (80021ec <HAL_RCC_GetPCLK1Freq+0x20>)
 80021da:	6810      	ldr	r0, [r2, #0]
 80021dc:	f003 031f 	and.w	r3, r3, #31
 80021e0:	40d8      	lsrs	r0, r3
 80021e2:	4770      	bx	lr
 80021e4:	40021000 	.word	0x40021000
 80021e8:	0800886c 	.word	0x0800886c
 80021ec:	20000bb4 	.word	0x20000bb4

080021f0 <HAL_RCC_GetPCLK2Freq>:
 80021f0:	4b05      	ldr	r3, [pc, #20]	; (8002208 <HAL_RCC_GetPCLK2Freq+0x18>)
 80021f2:	4a06      	ldr	r2, [pc, #24]	; (800220c <HAL_RCC_GetPCLK2Freq+0x1c>)
 80021f4:	689b      	ldr	r3, [r3, #8]
 80021f6:	f3c3 23c2 	ubfx	r3, r3, #11, #3
 80021fa:	5cd3      	ldrb	r3, [r2, r3]
 80021fc:	4a04      	ldr	r2, [pc, #16]	; (8002210 <HAL_RCC_GetPCLK2Freq+0x20>)
 80021fe:	6810      	ldr	r0, [r2, #0]
 8002200:	f003 031f 	and.w	r3, r3, #31
 8002204:	40d8      	lsrs	r0, r3
 8002206:	4770      	bx	lr
 8002208:	40021000 	.word	0x40021000
 800220c:	0800886c 	.word	0x0800886c
 8002210:	20000bb4 	.word	0x20000bb4

08002214 <RCCEx_PLLSAI1_Config>:
 8002214:	4a43      	ldr	r2, [pc, #268]	; (8002324 <RCCEx_PLLSAI1_Config+0x110>)
 8002216:	b5f8      	push	{r3, r4, r5, r6, r7, lr}
 8002218:	460e      	mov	r6, r1
 800221a:	68d1      	ldr	r1, [r2, #12]
 800221c:	6803      	ldr	r3, [r0, #0]
 800221e:	f011 0f03 	tst.w	r1, #3
 8002222:	4605      	mov	r5, r0
 8002224:	4614      	mov	r4, r2
 8002226:	d028      	beq.n	800227a <RCCEx_PLLSAI1_Config+0x66>
 8002228:	68d1      	ldr	r1, [r2, #12]
 800222a:	f001 0103 	and.w	r1, r1, #3
 800222e:	4299      	cmp	r1, r3
 8002230:	d176      	bne.n	8002320 <RCCEx_PLLSAI1_Config+0x10c>
 8002232:	2900      	cmp	r1, #0
 8002234:	d074      	beq.n	8002320 <RCCEx_PLLSAI1_Config+0x10c>
 8002236:	68d3      	ldr	r3, [r2, #12]
 8002238:	6842      	ldr	r2, [r0, #4]
 800223a:	f3c3 1302 	ubfx	r3, r3, #4, #3
 800223e:	3301      	adds	r3, #1
 8002240:	4293      	cmp	r3, r2
 8002242:	d16d      	bne.n	8002320 <RCCEx_PLLSAI1_Config+0x10c>
 8002244:	6823      	ldr	r3, [r4, #0]
 8002246:	f023 6380 	bic.w	r3, r3, #67108864	; 0x4000000
 800224a:	6023      	str	r3, [r4, #0]
 800224c:	f7ff fa82 	bl	8001754 <HAL_GetTick>
 8002250:	4607      	mov	r7, r0
 8002252:	6823      	ldr	r3, [r4, #0]
 8002254:	011a      	lsls	r2, r3, #4
 8002256:	d42f      	bmi.n	80022b8 <RCCEx_PLLSAI1_Config+0xa4>
 8002258:	68ab      	ldr	r3, [r5, #8]
 800225a:	0218      	lsls	r0, r3, #8
 800225c:	b39e      	cbz	r6, 80022c6 <RCCEx_PLLSAI1_Config+0xb2>
 800225e:	2e01      	cmp	r6, #1
 8002260:	d14b      	bne.n	80022fa <RCCEx_PLLSAI1_Config+0xe6>
 8002262:	692a      	ldr	r2, [r5, #16]
 8002264:	6921      	ldr	r1, [r4, #16]
 8002266:	0852      	lsrs	r2, r2, #1
 8002268:	1e53      	subs	r3, r2, #1
 800226a:	f421 02c0 	bic.w	r2, r1, #6291456	; 0x600000
 800226e:	f422 42fe 	bic.w	r2, r2, #32512	; 0x7f00
 8002272:	4302      	orrs	r2, r0
 8002274:	ea42 5243 	orr.w	r2, r2, r3, lsl #21
 8002278:	e02e      	b.n	80022d8 <RCCEx_PLLSAI1_Config+0xc4>
 800227a:	2b02      	cmp	r3, #2
 800227c:	d011      	beq.n	80022a2 <RCCEx_PLLSAI1_Config+0x8e>
 800227e:	2b03      	cmp	r3, #3
 8002280:	d013      	beq.n	80022aa <RCCEx_PLLSAI1_Config+0x96>
 8002282:	2b01      	cmp	r3, #1
 8002284:	d14c      	bne.n	8002320 <RCCEx_PLLSAI1_Config+0x10c>
 8002286:	6812      	ldr	r2, [r2, #0]
 8002288:	f012 0f02 	tst.w	r2, #2
 800228c:	d048      	beq.n	8002320 <RCCEx_PLLSAI1_Config+0x10c>
 800228e:	68e0      	ldr	r0, [r4, #12]
 8002290:	686a      	ldr	r2, [r5, #4]
 8002292:	f020 0073 	bic.w	r0, r0, #115	; 0x73
 8002296:	3a01      	subs	r2, #1
 8002298:	4318      	orrs	r0, r3
 800229a:	ea40 1002 	orr.w	r0, r0, r2, lsl #4
 800229e:	60e0      	str	r0, [r4, #12]
 80022a0:	e7d0      	b.n	8002244 <RCCEx_PLLSAI1_Config+0x30>
 80022a2:	6812      	ldr	r2, [r2, #0]
 80022a4:	f412 6f80 	tst.w	r2, #1024	; 0x400
 80022a8:	e7f0      	b.n	800228c <RCCEx_PLLSAI1_Config+0x78>
 80022aa:	6811      	ldr	r1, [r2, #0]
 80022ac:	0389      	lsls	r1, r1, #14
 80022ae:	d4ee      	bmi.n	800228e <RCCEx_PLLSAI1_Config+0x7a>
 80022b0:	6812      	ldr	r2, [r2, #0]
 80022b2:	f412 2f80 	tst.w	r2, #262144	; 0x40000
 80022b6:	e7e9      	b.n	800228c <RCCEx_PLLSAI1_Config+0x78>
 80022b8:	f7ff fa4c 	bl	8001754 <HAL_GetTick>
 80022bc:	1bc0      	subs	r0, r0, r7
 80022be:	2802      	cmp	r0, #2
 80022c0:	d9c7      	bls.n	8002252 <RCCEx_PLLSAI1_Config+0x3e>
 80022c2:	2003      	movs	r0, #3
 80022c4:	bdf8      	pop	{r3, r4, r5, r6, r7, pc}
 80022c6:	6923      	ldr	r3, [r4, #16]
 80022c8:	68ea      	ldr	r2, [r5, #12]
 80022ca:	ea40 62c2 	orr.w	r2, r0, r2, lsl #27
 80022ce:	f023 4078 	bic.w	r0, r3, #4160749568	; 0xf8000000
 80022d2:	f420 40fe 	bic.w	r0, r0, #32512	; 0x7f00
 80022d6:	4302      	orrs	r2, r0
 80022d8:	6122      	str	r2, [r4, #16]
 80022da:	6823      	ldr	r3, [r4, #0]
 80022dc:	f043 6380 	orr.w	r3, r3, #67108864	; 0x4000000
 80022e0:	6023      	str	r3, [r4, #0]
 80022e2:	f7ff fa37 	bl	8001754 <HAL_GetTick>
 80022e6:	4606      	mov	r6, r0
 80022e8:	6823      	ldr	r3, [r4, #0]
 80022ea:	011b      	lsls	r3, r3, #4
 80022ec:	d512      	bpl.n	8002314 <RCCEx_PLLSAI1_Config+0x100>
 80022ee:	6923      	ldr	r3, [r4, #16]
 80022f0:	69aa      	ldr	r2, [r5, #24]
 80022f2:	4313      	orrs	r3, r2
 80022f4:	6123      	str	r3, [r4, #16]
 80022f6:	2000      	movs	r0, #0
 80022f8:	e7e4      	b.n	80022c4 <RCCEx_PLLSAI1_Config+0xb0>
 80022fa:	696b      	ldr	r3, [r5, #20]
 80022fc:	6922      	ldr	r2, [r4, #16]
 80022fe:	085b      	lsrs	r3, r3, #1
 8002300:	1e59      	subs	r1, r3, #1
 8002302:	f022 63c0 	bic.w	r3, r2, #100663296	; 0x6000000
 8002306:	f423 43fe 	bic.w	r3, r3, #32512	; 0x7f00
 800230a:	4303      	orrs	r3, r0
 800230c:	ea43 6341 	orr.w	r3, r3, r1, lsl #25
 8002310:	6123      	str	r3, [r4, #16]
 8002312:	e7e2      	b.n	80022da <RCCEx_PLLSAI1_Config+0xc6>
 8002314:	f7ff fa1e 	bl	8001754 <HAL_GetTick>
 8002318:	1b80      	subs	r0, r0, r6
 800231a:	2802      	cmp	r0, #2
 800231c:	d9e4      	bls.n	80022e8 <RCCEx_PLLSAI1_Config+0xd4>
 800231e:	e7d0      	b.n	80022c2 <RCCEx_PLLSAI1_Config+0xae>
 8002320:	2001      	movs	r0, #1
 8002322:	e7cf      	b.n	80022c4 <RCCEx_PLLSAI1_Config+0xb0>
 8002324:	40021000 	.word	0x40021000

08002328 <HAL_RCCEx_PeriphCLKConfig>:
 8002328:	e92d 43f7 	stmdb	sp!, {r0, r1, r2, r4, r5, r6, r7, r8, r9, lr}
 800232c:	6805      	ldr	r5, [r0, #0]
 800232e:	f415 6500 	ands.w	r5, r5, #2048	; 0x800
 8002332:	4604      	mov	r4, r0
 8002334:	d009      	beq.n	800234a <HAL_RCCEx_PeriphCLKConfig+0x22>
 8002336:	6bc1      	ldr	r1, [r0, #60]	; 0x3c
 8002338:	f5b1 0f00 	cmp.w	r1, #8388608	; 0x800000
 800233c:	d032      	beq.n	80023a4 <HAL_RCCEx_PeriphCLKConfig+0x7c>
 800233e:	f5b1 0f40 	cmp.w	r1, #12582912	; 0xc00000
 8002342:	d034      	beq.n	80023ae <HAL_RCCEx_PeriphCLKConfig+0x86>
 8002344:	2900      	cmp	r1, #0
 8002346:	d03d      	beq.n	80023c4 <HAL_RCCEx_PeriphCLKConfig+0x9c>
 8002348:	2501      	movs	r5, #1
 800234a:	6823      	ldr	r3, [r4, #0]
 800234c:	039e      	lsls	r6, r3, #14
 800234e:	d551      	bpl.n	80023f4 <HAL_RCCEx_PeriphCLKConfig+0xcc>
 8002350:	4e94      	ldr	r6, [pc, #592]	; (80025a4 <HAL_RCCEx_PeriphCLKConfig+0x27c>)
 8002352:	6db3      	ldr	r3, [r6, #88]	; 0x58
 8002354:	00d8      	lsls	r0, r3, #3
 8002356:	d43c      	bmi.n	80023d2 <HAL_RCCEx_PeriphCLKConfig+0xaa>
 8002358:	6db3      	ldr	r3, [r6, #88]	; 0x58
 800235a:	f043 5380 	orr.w	r3, r3, #268435456	; 0x10000000
 800235e:	65b3      	str	r3, [r6, #88]	; 0x58
 8002360:	6db3      	ldr	r3, [r6, #88]	; 0x58
 8002362:	f003 5380 	and.w	r3, r3, #268435456	; 0x10000000
 8002366:	9301      	str	r3, [sp, #4]
 8002368:	9b01      	ldr	r3, [sp, #4]
 800236a:	f04f 0801 	mov.w	r8, #1
 800236e:	4f8e      	ldr	r7, [pc, #568]	; (80025a8 <HAL_RCCEx_PeriphCLKConfig+0x280>)
 8002370:	683b      	ldr	r3, [r7, #0]
 8002372:	f443 7380 	orr.w	r3, r3, #256	; 0x100
 8002376:	603b      	str	r3, [r7, #0]
 8002378:	f7ff f9ec 	bl	8001754 <HAL_GetTick>
 800237c:	4681      	mov	r9, r0
 800237e:	683b      	ldr	r3, [r7, #0]
 8002380:	05d9      	lsls	r1, r3, #23
 8002382:	d529      	bpl.n	80023d8 <HAL_RCCEx_PeriphCLKConfig+0xb0>
 8002384:	bb7d      	cbnz	r5, 80023e6 <HAL_RCCEx_PeriphCLKConfig+0xbe>
 8002386:	f8d6 3090 	ldr.w	r3, [r6, #144]	; 0x90
 800238a:	f413 7340 	ands.w	r3, r3, #768	; 0x300
 800238e:	f040 80ca 	bne.w	8002526 <HAL_RCCEx_PeriphCLKConfig+0x1fe>
 8002392:	f8d6 3090 	ldr.w	r3, [r6, #144]	; 0x90
 8002396:	6d22      	ldr	r2, [r4, #80]	; 0x50
 8002398:	f423 7340 	bic.w	r3, r3, #768	; 0x300
 800239c:	4313      	orrs	r3, r2
 800239e:	f8c6 3090 	str.w	r3, [r6, #144]	; 0x90
 80023a2:	e020      	b.n	80023e6 <HAL_RCCEx_PeriphCLKConfig+0xbe>
 80023a4:	4a7f      	ldr	r2, [pc, #508]	; (80025a4 <HAL_RCCEx_PeriphCLKConfig+0x27c>)
 80023a6:	68d3      	ldr	r3, [r2, #12]
 80023a8:	f443 3380 	orr.w	r3, r3, #65536	; 0x10000
 80023ac:	60d3      	str	r3, [r2, #12]
 80023ae:	4a7d      	ldr	r2, [pc, #500]	; (80025a4 <HAL_RCCEx_PeriphCLKConfig+0x27c>)
 80023b0:	6be1      	ldr	r1, [r4, #60]	; 0x3c
 80023b2:	f8d2 3088 	ldr.w	r3, [r2, #136]	; 0x88
 80023b6:	f423 0340 	bic.w	r3, r3, #12582912	; 0xc00000
 80023ba:	430b      	orrs	r3, r1
 80023bc:	f8c2 3088 	str.w	r3, [r2, #136]	; 0x88
 80023c0:	2500      	movs	r5, #0
 80023c2:	e7c2      	b.n	800234a <HAL_RCCEx_PeriphCLKConfig+0x22>
 80023c4:	3004      	adds	r0, #4
 80023c6:	f7ff ff25 	bl	8002214 <RCCEx_PLLSAI1_Config>
 80023ca:	4605      	mov	r5, r0
 80023cc:	2800      	cmp	r0, #0
 80023ce:	d1bc      	bne.n	800234a <HAL_RCCEx_PeriphCLKConfig+0x22>
 80023d0:	e7ed      	b.n	80023ae <HAL_RCCEx_PeriphCLKConfig+0x86>
 80023d2:	f04f 0800 	mov.w	r8, #0
 80023d6:	e7ca      	b.n	800236e <HAL_RCCEx_PeriphCLKConfig+0x46>
 80023d8:	f7ff f9bc 	bl	8001754 <HAL_GetTick>
 80023dc:	eba0 0009 	sub.w	r0, r0, r9
 80023e0:	2802      	cmp	r0, #2
 80023e2:	d9cc      	bls.n	800237e <HAL_RCCEx_PeriphCLKConfig+0x56>
 80023e4:	2503      	movs	r5, #3
 80023e6:	f1b8 0f00 	cmp.w	r8, #0
 80023ea:	d003      	beq.n	80023f4 <HAL_RCCEx_PeriphCLKConfig+0xcc>
 80023ec:	6db3      	ldr	r3, [r6, #88]	; 0x58
 80023ee:	f023 5380 	bic.w	r3, r3, #268435456	; 0x10000000
 80023f2:	65b3      	str	r3, [r6, #88]	; 0x58
 80023f4:	6823      	ldr	r3, [r4, #0]
 80023f6:	07df      	lsls	r7, r3, #31
 80023f8:	d508      	bpl.n	800240c <HAL_RCCEx_PeriphCLKConfig+0xe4>
 80023fa:	496a      	ldr	r1, [pc, #424]	; (80025a4 <HAL_RCCEx_PeriphCLKConfig+0x27c>)
 80023fc:	6a20      	ldr	r0, [r4, #32]
 80023fe:	f8d1 2088 	ldr.w	r2, [r1, #136]	; 0x88
 8002402:	f022 0203 	bic.w	r2, r2, #3
 8002406:	4302      	orrs	r2, r0
 8002408:	f8c1 2088 	str.w	r2, [r1, #136]	; 0x88
 800240c:	079e      	lsls	r6, r3, #30
 800240e:	d508      	bpl.n	8002422 <HAL_RCCEx_PeriphCLKConfig+0xfa>
 8002410:	4964      	ldr	r1, [pc, #400]	; (80025a4 <HAL_RCCEx_PeriphCLKConfig+0x27c>)
 8002412:	6a60      	ldr	r0, [r4, #36]	; 0x24
 8002414:	f8d1 2088 	ldr.w	r2, [r1, #136]	; 0x88
 8002418:	f022 020c 	bic.w	r2, r2, #12
 800241c:	4302      	orrs	r2, r0
 800241e:	f8c1 2088 	str.w	r2, [r1, #136]	; 0x88
 8002422:	0698      	lsls	r0, r3, #26
 8002424:	d508      	bpl.n	8002438 <HAL_RCCEx_PeriphCLKConfig+0x110>
 8002426:	495f      	ldr	r1, [pc, #380]	; (80025a4 <HAL_RCCEx_PeriphCLKConfig+0x27c>)
 8002428:	6aa0      	ldr	r0, [r4, #40]	; 0x28
 800242a:	f8d1 2088 	ldr.w	r2, [r1, #136]	; 0x88
 800242e:	f422 6240 	bic.w	r2, r2, #3072	; 0xc00
 8002432:	4302      	orrs	r2, r0
 8002434:	f8c1 2088 	str.w	r2, [r1, #136]	; 0x88
 8002438:	0599      	lsls	r1, r3, #22
 800243a:	d508      	bpl.n	800244e <HAL_RCCEx_PeriphCLKConfig+0x126>
 800243c:	4959      	ldr	r1, [pc, #356]	; (80025a4 <HAL_RCCEx_PeriphCLKConfig+0x27c>)
 800243e:	6b60      	ldr	r0, [r4, #52]	; 0x34
 8002440:	f8d1 2088 	ldr.w	r2, [r1, #136]	; 0x88
 8002444:	f422 2240 	bic.w	r2, r2, #786432	; 0xc0000
 8002448:	4302      	orrs	r2, r0
 800244a:	f8c1 2088 	str.w	r2, [r1, #136]	; 0x88
 800244e:	055a      	lsls	r2, r3, #21
 8002450:	d508      	bpl.n	8002464 <HAL_RCCEx_PeriphCLKConfig+0x13c>
 8002452:	4954      	ldr	r1, [pc, #336]	; (80025a4 <HAL_RCCEx_PeriphCLKConfig+0x27c>)
 8002454:	6ba0      	ldr	r0, [r4, #56]	; 0x38
 8002456:	f8d1 2088 	ldr.w	r2, [r1, #136]	; 0x88
 800245a:	f422 1240 	bic.w	r2, r2, #3145728	; 0x300000
 800245e:	4302      	orrs	r2, r0
 8002460:	f8c1 2088 	str.w	r2, [r1, #136]	; 0x88
 8002464:	065f      	lsls	r7, r3, #25
 8002466:	d508      	bpl.n	800247a <HAL_RCCEx_PeriphCLKConfig+0x152>
 8002468:	494e      	ldr	r1, [pc, #312]	; (80025a4 <HAL_RCCEx_PeriphCLKConfig+0x27c>)
 800246a:	6ae0      	ldr	r0, [r4, #44]	; 0x2c
 800246c:	f8d1 2088 	ldr.w	r2, [r1, #136]	; 0x88
 8002470:	f422 5240 	bic.w	r2, r2, #12288	; 0x3000
 8002474:	4302      	orrs	r2, r0
 8002476:	f8c1 2088 	str.w	r2, [r1, #136]	; 0x88
 800247a:	05de      	lsls	r6, r3, #23
 800247c:	d508      	bpl.n	8002490 <HAL_RCCEx_PeriphCLKConfig+0x168>
 800247e:	4949      	ldr	r1, [pc, #292]	; (80025a4 <HAL_RCCEx_PeriphCLKConfig+0x27c>)
 8002480:	6b20      	ldr	r0, [r4, #48]	; 0x30
 8002482:	f8d1 2088 	ldr.w	r2, [r1, #136]	; 0x88
 8002486:	f422 3240 	bic.w	r2, r2, #196608	; 0x30000
 800248a:	4302      	orrs	r2, r0
 800248c:	f8c1 2088 	str.w	r2, [r1, #136]	; 0x88
 8002490:	0498      	lsls	r0, r3, #18
 8002492:	d50f      	bpl.n	80024b4 <HAL_RCCEx_PeriphCLKConfig+0x18c>
 8002494:	4a43      	ldr	r2, [pc, #268]	; (80025a4 <HAL_RCCEx_PeriphCLKConfig+0x27c>)
 8002496:	6c21      	ldr	r1, [r4, #64]	; 0x40
 8002498:	f8d2 3088 	ldr.w	r3, [r2, #136]	; 0x88
 800249c:	f023 6340 	bic.w	r3, r3, #201326592	; 0xc000000
 80024a0:	430b      	orrs	r3, r1
 80024a2:	f1b1 6f00 	cmp.w	r1, #134217728	; 0x8000000
 80024a6:	f8c2 3088 	str.w	r3, [r2, #136]	; 0x88
 80024aa:	d165      	bne.n	8002578 <HAL_RCCEx_PeriphCLKConfig+0x250>
 80024ac:	68d3      	ldr	r3, [r2, #12]
 80024ae:	f443 1380 	orr.w	r3, r3, #1048576	; 0x100000
 80024b2:	60d3      	str	r3, [r2, #12]
 80024b4:	6823      	ldr	r3, [r4, #0]
 80024b6:	0359      	lsls	r1, r3, #13
 80024b8:	d50f      	bpl.n	80024da <HAL_RCCEx_PeriphCLKConfig+0x1b2>
 80024ba:	4a3a      	ldr	r2, [pc, #232]	; (80025a4 <HAL_RCCEx_PeriphCLKConfig+0x27c>)
 80024bc:	6c61      	ldr	r1, [r4, #68]	; 0x44
 80024be:	f8d2 3088 	ldr.w	r3, [r2, #136]	; 0x88
 80024c2:	f023 6340 	bic.w	r3, r3, #201326592	; 0xc000000
 80024c6:	430b      	orrs	r3, r1
 80024c8:	f1b1 6f00 	cmp.w	r1, #134217728	; 0x8000000
 80024cc:	f8c2 3088 	str.w	r3, [r2, #136]	; 0x88
 80024d0:	d15d      	bne.n	800258e <HAL_RCCEx_PeriphCLKConfig+0x266>
 80024d2:	68d3      	ldr	r3, [r2, #12]
 80024d4:	f443 1380 	orr.w	r3, r3, #1048576	; 0x100000
 80024d8:	60d3      	str	r3, [r2, #12]
 80024da:	6823      	ldr	r3, [r4, #0]
 80024dc:	045a      	lsls	r2, r3, #17
 80024de:	d512      	bpl.n	8002506 <HAL_RCCEx_PeriphCLKConfig+0x1de>
 80024e0:	4930      	ldr	r1, [pc, #192]	; (80025a4 <HAL_RCCEx_PeriphCLKConfig+0x27c>)
 80024e2:	6ca2      	ldr	r2, [r4, #72]	; 0x48
 80024e4:	f8d1 3088 	ldr.w	r3, [r1, #136]	; 0x88
 80024e8:	f023 5340 	bic.w	r3, r3, #805306368	; 0x30000000
 80024ec:	4313      	orrs	r3, r2
 80024ee:	f1b2 5f80 	cmp.w	r2, #268435456	; 0x10000000
 80024f2:	f8c1 3088 	str.w	r3, [r1, #136]	; 0x88
 80024f6:	d106      	bne.n	8002506 <HAL_RCCEx_PeriphCLKConfig+0x1de>
 80024f8:	2102      	movs	r1, #2
 80024fa:	1d20      	adds	r0, r4, #4
 80024fc:	f7ff fe8a 	bl	8002214 <RCCEx_PLLSAI1_Config>
 8002500:	2800      	cmp	r0, #0
 8002502:	bf18      	it	ne
 8002504:	4605      	movne	r5, r0
 8002506:	6823      	ldr	r3, [r4, #0]
 8002508:	041b      	lsls	r3, r3, #16
 800250a:	d508      	bpl.n	800251e <HAL_RCCEx_PeriphCLKConfig+0x1f6>
 800250c:	4a25      	ldr	r2, [pc, #148]	; (80025a4 <HAL_RCCEx_PeriphCLKConfig+0x27c>)
 800250e:	6ce1      	ldr	r1, [r4, #76]	; 0x4c
 8002510:	f8d2 3088 	ldr.w	r3, [r2, #136]	; 0x88
 8002514:	f023 4380 	bic.w	r3, r3, #1073741824	; 0x40000000
 8002518:	430b      	orrs	r3, r1
 800251a:	f8c2 3088 	str.w	r3, [r2, #136]	; 0x88
 800251e:	4628      	mov	r0, r5
 8002520:	b003      	add	sp, #12
 8002522:	e8bd 83f0 	ldmia.w	sp!, {r4, r5, r6, r7, r8, r9, pc}
 8002526:	6d22      	ldr	r2, [r4, #80]	; 0x50
 8002528:	4293      	cmp	r3, r2
 800252a:	f43f af32 	beq.w	8002392 <HAL_RCCEx_PeriphCLKConfig+0x6a>
 800252e:	f8d6 2090 	ldr.w	r2, [r6, #144]	; 0x90
 8002532:	f8d6 3090 	ldr.w	r3, [r6, #144]	; 0x90
 8002536:	f443 3380 	orr.w	r3, r3, #65536	; 0x10000
 800253a:	f8c6 3090 	str.w	r3, [r6, #144]	; 0x90
 800253e:	f8d6 3090 	ldr.w	r3, [r6, #144]	; 0x90
 8002542:	f422 7140 	bic.w	r1, r2, #768	; 0x300
 8002546:	f423 3380 	bic.w	r3, r3, #65536	; 0x10000
 800254a:	07d2      	lsls	r2, r2, #31
 800254c:	f8c6 3090 	str.w	r3, [r6, #144]	; 0x90
 8002550:	f8c6 1090 	str.w	r1, [r6, #144]	; 0x90
 8002554:	f57f af1d 	bpl.w	8002392 <HAL_RCCEx_PeriphCLKConfig+0x6a>
 8002558:	f7ff f8fc 	bl	8001754 <HAL_GetTick>
 800255c:	f241 3988 	movw	r9, #5000	; 0x1388
 8002560:	4607      	mov	r7, r0
 8002562:	f8d6 3090 	ldr.w	r3, [r6, #144]	; 0x90
 8002566:	079b      	lsls	r3, r3, #30
 8002568:	f53f af13 	bmi.w	8002392 <HAL_RCCEx_PeriphCLKConfig+0x6a>
 800256c:	f7ff f8f2 	bl	8001754 <HAL_GetTick>
 8002570:	1bc0      	subs	r0, r0, r7
 8002572:	4548      	cmp	r0, r9
 8002574:	d9f5      	bls.n	8002562 <HAL_RCCEx_PeriphCLKConfig+0x23a>
 8002576:	e735      	b.n	80023e4 <HAL_RCCEx_PeriphCLKConfig+0xbc>
 8002578:	f1b1 6f80 	cmp.w	r1, #67108864	; 0x4000000
 800257c:	d19a      	bne.n	80024b4 <HAL_RCCEx_PeriphCLKConfig+0x18c>
 800257e:	2101      	movs	r1, #1
 8002580:	1d20      	adds	r0, r4, #4
 8002582:	f7ff fe47 	bl	8002214 <RCCEx_PLLSAI1_Config>
 8002586:	2800      	cmp	r0, #0
 8002588:	bf18      	it	ne
 800258a:	4605      	movne	r5, r0
 800258c:	e792      	b.n	80024b4 <HAL_RCCEx_PeriphCLKConfig+0x18c>
 800258e:	f1b1 6f80 	cmp.w	r1, #67108864	; 0x4000000
 8002592:	d1a2      	bne.n	80024da <HAL_RCCEx_PeriphCLKConfig+0x1b2>
 8002594:	2101      	movs	r1, #1
 8002596:	1d20      	adds	r0, r4, #4
 8002598:	f7ff fe3c 	bl	8002214 <RCCEx_PLLSAI1_Config>
 800259c:	2800      	cmp	r0, #0
 800259e:	bf18      	it	ne
 80025a0:	4605      	movne	r5, r0
 80025a2:	e79a      	b.n	80024da <HAL_RCCEx_PeriphCLKConfig+0x1b2>
 80025a4:	40021000 	.word	0x40021000
 80025a8:	40007000 	.word	0x40007000

080025ac <HAL_TIM_Base_Start>:
 80025ac:	f890 303d 	ldrb.w	r3, [r0, #61]	; 0x3d
 80025b0:	2b01      	cmp	r3, #1
 80025b2:	d11b      	bne.n	80025ec <HAL_TIM_Base_Start+0x40>
 80025b4:	2302      	movs	r3, #2
 80025b6:	4a0e      	ldr	r2, [pc, #56]	; (80025f0 <HAL_TIM_Base_Start+0x44>)
 80025b8:	f880 303d 	strb.w	r3, [r0, #61]	; 0x3d
 80025bc:	6803      	ldr	r3, [r0, #0]
 80025be:	4293      	cmp	r3, r2
 80025c0:	d006      	beq.n	80025d0 <HAL_TIM_Base_Start+0x24>
 80025c2:	f1b3 4f80 	cmp.w	r3, #1073741824	; 0x40000000
 80025c6:	d003      	beq.n	80025d0 <HAL_TIM_Base_Start+0x24>
 80025c8:	f502 52a0 	add.w	r2, r2, #5120	; 0x1400
 80025cc:	4293      	cmp	r3, r2
 80025ce:	d107      	bne.n	80025e0 <HAL_TIM_Base_Start+0x34>
 80025d0:	6899      	ldr	r1, [r3, #8]
 80025d2:	4a08      	ldr	r2, [pc, #32]	; (80025f4 <HAL_TIM_Base_Start+0x48>)
 80025d4:	400a      	ands	r2, r1
 80025d6:	2a06      	cmp	r2, #6
 80025d8:	d006      	beq.n	80025e8 <HAL_TIM_Base_Start+0x3c>
 80025da:	f5b2 3f80 	cmp.w	r2, #65536	; 0x10000
 80025de:	d003      	beq.n	80025e8 <HAL_TIM_Base_Start+0x3c>
 80025e0:	681a      	ldr	r2, [r3, #0]
 80025e2:	f042 0201 	orr.w	r2, r2, #1
 80025e6:	601a      	str	r2, [r3, #0]
 80025e8:	2000      	movs	r0, #0
 80025ea:	4770      	bx	lr
 80025ec:	2001      	movs	r0, #1
 80025ee:	4770      	bx	lr
 80025f0:	40012c00 	.word	0x40012c00
 80025f4:	00010007 	.word	0x00010007

080025f8 <TIM_Base_SetConfig>:
 80025f8:	4a1a      	ldr	r2, [pc, #104]	; (8002664 <TIM_Base_SetConfig+0x6c>)
 80025fa:	6803      	ldr	r3, [r0, #0]
 80025fc:	4290      	cmp	r0, r2
 80025fe:	b510      	push	{r4, lr}
 8002600:	d002      	beq.n	8002608 <TIM_Base_SetConfig+0x10>
 8002602:	f1b0 4f80 	cmp.w	r0, #1073741824	; 0x40000000
 8002606:	d109      	bne.n	800261c <TIM_Base_SetConfig+0x24>
 8002608:	684c      	ldr	r4, [r1, #4]
 800260a:	f023 0370 	bic.w	r3, r3, #112	; 0x70
 800260e:	4290      	cmp	r0, r2
 8002610:	ea43 0304 	orr.w	r3, r3, r4
 8002614:	d009      	beq.n	800262a <TIM_Base_SetConfig+0x32>
 8002616:	f1b0 4f80 	cmp.w	r0, #1073741824	; 0x40000000
 800261a:	d006      	beq.n	800262a <TIM_Base_SetConfig+0x32>
 800261c:	4a12      	ldr	r2, [pc, #72]	; (8002668 <TIM_Base_SetConfig+0x70>)
 800261e:	4290      	cmp	r0, r2
 8002620:	d003      	beq.n	800262a <TIM_Base_SetConfig+0x32>
 8002622:	f502 6280 	add.w	r2, r2, #1024	; 0x400
 8002626:	4290      	cmp	r0, r2
 8002628:	d103      	bne.n	8002632 <TIM_Base_SetConfig+0x3a>
 800262a:	68ca      	ldr	r2, [r1, #12]
 800262c:	f423 7340 	bic.w	r3, r3, #768	; 0x300
 8002630:	4313      	orrs	r3, r2
 8002632:	694a      	ldr	r2, [r1, #20]
 8002634:	f023 0380 	bic.w	r3, r3, #128	; 0x80
 8002638:	4313      	orrs	r3, r2
 800263a:	6003      	str	r3, [r0, #0]
 800263c:	688b      	ldr	r3, [r1, #8]
 800263e:	62c3      	str	r3, [r0, #44]	; 0x2c
 8002640:	680b      	ldr	r3, [r1, #0]
 8002642:	6283      	str	r3, [r0, #40]	; 0x28
 8002644:	4b07      	ldr	r3, [pc, #28]	; (8002664 <TIM_Base_SetConfig+0x6c>)
 8002646:	4298      	cmp	r0, r3
 8002648:	d007      	beq.n	800265a <TIM_Base_SetConfig+0x62>
 800264a:	f503 53a0 	add.w	r3, r3, #5120	; 0x1400
 800264e:	4298      	cmp	r0, r3
 8002650:	d003      	beq.n	800265a <TIM_Base_SetConfig+0x62>
 8002652:	f503 6380 	add.w	r3, r3, #1024	; 0x400
 8002656:	4298      	cmp	r0, r3
 8002658:	d101      	bne.n	800265e <TIM_Base_SetConfig+0x66>
 800265a:	690b      	ldr	r3, [r1, #16]
 800265c:	6303      	str	r3, [r0, #48]	; 0x30
 800265e:	2301      	movs	r3, #1
 8002660:	6143      	str	r3, [r0, #20]
 8002662:	bd10      	pop	{r4, pc}
 8002664:	40012c00 	.word	0x40012c00
 8002668:	40014000 	.word	0x40014000

0800266c <HAL_TIM_Base_Init>:
 800266c:	b510      	push	{r4, lr}
 800266e:	4604      	mov	r4, r0
 8002670:	b350      	cbz	r0, 80026c8 <HAL_TIM_Base_Init+0x5c>
 8002672:	f890 303d 	ldrb.w	r3, [r0, #61]	; 0x3d
 8002676:	f003 02ff 	and.w	r2, r3, #255	; 0xff
 800267a:	b91b      	cbnz	r3, 8002684 <HAL_TIM_Base_Init+0x18>
 800267c:	f880 203c 	strb.w	r2, [r0, #60]	; 0x3c
 8002680:	f7fe ff16 	bl	80014b0 <HAL_TIM_Base_MspInit>
 8002684:	2302      	movs	r3, #2
 8002686:	6820      	ldr	r0, [r4, #0]
 8002688:	f884 303d 	strb.w	r3, [r4, #61]	; 0x3d
 800268c:	1d21      	adds	r1, r4, #4
 800268e:	f7ff ffb3 	bl	80025f8 <TIM_Base_SetConfig>
 8002692:	2301      	movs	r3, #1
 8002694:	f884 3048 	strb.w	r3, [r4, #72]	; 0x48
 8002698:	2000      	movs	r0, #0
 800269a:	f884 303e 	strb.w	r3, [r4, #62]	; 0x3e
 800269e:	f884 303f 	strb.w	r3, [r4, #63]	; 0x3f
 80026a2:	f884 3040 	strb.w	r3, [r4, #64]	; 0x40
 80026a6:	f884 3041 	strb.w	r3, [r4, #65]	; 0x41
 80026aa:	f884 3042 	strb.w	r3, [r4, #66]	; 0x42
 80026ae:	f884 3043 	strb.w	r3, [r4, #67]	; 0x43
 80026b2:	f884 3044 	strb.w	r3, [r4, #68]	; 0x44
 80026b6:	f884 3045 	strb.w	r3, [r4, #69]	; 0x45
 80026ba:	f884 3046 	strb.w	r3, [r4, #70]	; 0x46
 80026be:	f884 3047 	strb.w	r3, [r4, #71]	; 0x47
 80026c2:	f884 303d 	strb.w	r3, [r4, #61]	; 0x3d
 80026c6:	bd10      	pop	{r4, pc}
 80026c8:	2001      	movs	r0, #1
 80026ca:	e7fc      	b.n	80026c6 <HAL_TIM_Base_Init+0x5a>

080026cc <UART_SetConfig>:
 80026cc:	b5f8      	push	{r3, r4, r5, r6, r7, lr}
 80026ce:	4604      	mov	r4, r0
 80026d0:	6803      	ldr	r3, [r0, #0]
 80026d2:	6921      	ldr	r1, [r4, #16]
 80026d4:	68a2      	ldr	r2, [r4, #8]
 80026d6:	681d      	ldr	r5, [r3, #0]
 80026d8:	69c0      	ldr	r0, [r0, #28]
 80026da:	430a      	orrs	r2, r1
 80026dc:	6961      	ldr	r1, [r4, #20]
 80026de:	430a      	orrs	r2, r1
 80026e0:	4969      	ldr	r1, [pc, #420]	; (8002888 <UART_SetConfig+0x1bc>)
 80026e2:	4302      	orrs	r2, r0
 80026e4:	4029      	ands	r1, r5
 80026e6:	430a      	orrs	r2, r1
 80026e8:	601a      	str	r2, [r3, #0]
 80026ea:	685a      	ldr	r2, [r3, #4]
 80026ec:	68e1      	ldr	r1, [r4, #12]
 80026ee:	f422 5240 	bic.w	r2, r2, #12288	; 0x3000
 80026f2:	430a      	orrs	r2, r1
 80026f4:	605a      	str	r2, [r3, #4]
 80026f6:	4a65      	ldr	r2, [pc, #404]	; (800288c <UART_SetConfig+0x1c0>)
 80026f8:	69a1      	ldr	r1, [r4, #24]
 80026fa:	4293      	cmp	r3, r2
 80026fc:	bf1c      	itt	ne
 80026fe:	6a22      	ldrne	r2, [r4, #32]
 8002700:	4311      	orrne	r1, r2
 8002702:	689a      	ldr	r2, [r3, #8]
 8002704:	f422 6230 	bic.w	r2, r2, #2816	; 0xb00
 8002708:	430a      	orrs	r2, r1
 800270a:	609a      	str	r2, [r3, #8]
 800270c:	4a60      	ldr	r2, [pc, #384]	; (8002890 <UART_SetConfig+0x1c4>)
 800270e:	4293      	cmp	r3, r2
 8002710:	d116      	bne.n	8002740 <UART_SetConfig+0x74>
 8002712:	4b60      	ldr	r3, [pc, #384]	; (8002894 <UART_SetConfig+0x1c8>)
 8002714:	f8d3 3088 	ldr.w	r3, [r3, #136]	; 0x88
 8002718:	f003 0303 	and.w	r3, r3, #3
 800271c:	3b01      	subs	r3, #1
 800271e:	2b02      	cmp	r3, #2
 8002720:	f200 80ac 	bhi.w	800287c <UART_SetConfig+0x1b0>
 8002724:	4a5c      	ldr	r2, [pc, #368]	; (8002898 <UART_SetConfig+0x1cc>)
 8002726:	5cd3      	ldrb	r3, [r2, r3]
 8002728:	f5b0 4f00 	cmp.w	r0, #32768	; 0x8000
 800272c:	d170      	bne.n	8002810 <UART_SetConfig+0x144>
 800272e:	2b08      	cmp	r3, #8
 8002730:	d820      	bhi.n	8002774 <UART_SetConfig+0xa8>
 8002732:	e8df f003 	tbb	[pc, r3]
 8002736:	a64e      	.short	0xa64e
 8002738:	1f681f6b 	.word	0x1f681f6b
 800273c:	1f1f      	.short	0x1f1f
 800273e:	52          	.byte	0x52
 800273f:	00          	.byte	0x00
 8002740:	4a56      	ldr	r2, [pc, #344]	; (800289c <UART_SetConfig+0x1d0>)
 8002742:	4293      	cmp	r3, r2
 8002744:	d106      	bne.n	8002754 <UART_SetConfig+0x88>
 8002746:	4b53      	ldr	r3, [pc, #332]	; (8002894 <UART_SetConfig+0x1c8>)
 8002748:	4a55      	ldr	r2, [pc, #340]	; (80028a0 <UART_SetConfig+0x1d4>)
 800274a:	f8d3 3088 	ldr.w	r3, [r3, #136]	; 0x88
 800274e:	f003 030c 	and.w	r3, r3, #12
 8002752:	e7e8      	b.n	8002726 <UART_SetConfig+0x5a>
 8002754:	4a4d      	ldr	r2, [pc, #308]	; (800288c <UART_SetConfig+0x1c0>)
 8002756:	4293      	cmp	r3, r2
 8002758:	d10c      	bne.n	8002774 <UART_SetConfig+0xa8>
 800275a:	4b4e      	ldr	r3, [pc, #312]	; (8002894 <UART_SetConfig+0x1c8>)
 800275c:	f8d3 3088 	ldr.w	r3, [r3, #136]	; 0x88
 8002760:	f403 6340 	and.w	r3, r3, #3072	; 0xc00
 8002764:	f5b3 6f00 	cmp.w	r3, #2048	; 0x800
 8002768:	d017      	beq.n	800279a <UART_SetConfig+0xce>
 800276a:	d805      	bhi.n	8002778 <UART_SetConfig+0xac>
 800276c:	b153      	cbz	r3, 8002784 <UART_SetConfig+0xb8>
 800276e:	f5b3 6f80 	cmp.w	r3, #1024	; 0x400
 8002772:	d00f      	beq.n	8002794 <UART_SetConfig+0xc8>
 8002774:	2001      	movs	r0, #1
 8002776:	e009      	b.n	800278c <UART_SetConfig+0xc0>
 8002778:	f5b3 6f40 	cmp.w	r3, #3072	; 0xc00
 800277c:	d1fa      	bne.n	8002774 <UART_SetConfig+0xa8>
 800277e:	f44f 4000 	mov.w	r0, #32768	; 0x8000
 8002782:	e00b      	b.n	800279c <UART_SetConfig+0xd0>
 8002784:	f7ff fd22 	bl	80021cc <HAL_RCC_GetPCLK1Freq>
 8002788:	b940      	cbnz	r0, 800279c <UART_SetConfig+0xd0>
 800278a:	2000      	movs	r0, #0
 800278c:	2300      	movs	r3, #0
 800278e:	e9c4 3319 	strd	r3, r3, [r4, #100]	; 0x64
 8002792:	bdf8      	pop	{r3, r4, r5, r6, r7, pc}
 8002794:	f7ff f98e 	bl	8001ab4 <HAL_RCC_GetSysClockFreq>
 8002798:	e7f6      	b.n	8002788 <UART_SetConfig+0xbc>
 800279a:	4842      	ldr	r0, [pc, #264]	; (80028a4 <UART_SetConfig+0x1d8>)
 800279c:	6862      	ldr	r2, [r4, #4]
 800279e:	eb02 0342 	add.w	r3, r2, r2, lsl #1
 80027a2:	4283      	cmp	r3, r0
 80027a4:	d8e6      	bhi.n	8002774 <UART_SetConfig+0xa8>
 80027a6:	ebb0 3f02 	cmp.w	r0, r2, lsl #12
 80027aa:	d8e3      	bhi.n	8002774 <UART_SetConfig+0xa8>
 80027ac:	0856      	lsrs	r6, r2, #1
 80027ae:	f44f 7180 	mov.w	r1, #256	; 0x100
 80027b2:	2700      	movs	r7, #0
 80027b4:	fbe1 6700 	umlal	r6, r7, r1, r0
 80027b8:	2300      	movs	r3, #0
 80027ba:	4630      	mov	r0, r6
 80027bc:	4639      	mov	r1, r7
 80027be:	f7fe fa53 	bl	8000c68 <__aeabi_uldivmod>
 80027c2:	4b39      	ldr	r3, [pc, #228]	; (80028a8 <UART_SetConfig+0x1dc>)
 80027c4:	f5a0 7240 	sub.w	r2, r0, #768	; 0x300
 80027c8:	429a      	cmp	r2, r3
 80027ca:	d8d3      	bhi.n	8002774 <UART_SetConfig+0xa8>
 80027cc:	6823      	ldr	r3, [r4, #0]
 80027ce:	60d8      	str	r0, [r3, #12]
 80027d0:	e7db      	b.n	800278a <UART_SetConfig+0xbe>
 80027d2:	f7ff fcfb 	bl	80021cc <HAL_RCC_GetPCLK1Freq>
 80027d6:	2800      	cmp	r0, #0
 80027d8:	d0d7      	beq.n	800278a <UART_SetConfig+0xbe>
 80027da:	6862      	ldr	r2, [r4, #4]
 80027dc:	0853      	lsrs	r3, r2, #1
 80027de:	eb03 0040 	add.w	r0, r3, r0, lsl #1
 80027e2:	fbb0 f0f2 	udiv	r0, r0, r2
 80027e6:	b283      	uxth	r3, r0
 80027e8:	f1a3 0110 	sub.w	r1, r3, #16
 80027ec:	f64f 72ef 	movw	r2, #65519	; 0xffef
 80027f0:	4291      	cmp	r1, r2
 80027f2:	d8bf      	bhi.n	8002774 <UART_SetConfig+0xa8>
 80027f4:	f020 000f 	bic.w	r0, r0, #15
 80027f8:	6822      	ldr	r2, [r4, #0]
 80027fa:	b280      	uxth	r0, r0
 80027fc:	f3c3 0342 	ubfx	r3, r3, #1, #3
 8002800:	4318      	orrs	r0, r3
 8002802:	60d0      	str	r0, [r2, #12]
 8002804:	e7c1      	b.n	800278a <UART_SetConfig+0xbe>
 8002806:	f7ff f955 	bl	8001ab4 <HAL_RCC_GetSysClockFreq>
 800280a:	e7e4      	b.n	80027d6 <UART_SetConfig+0x10a>
 800280c:	4825      	ldr	r0, [pc, #148]	; (80028a4 <UART_SetConfig+0x1d8>)
 800280e:	e7e4      	b.n	80027da <UART_SetConfig+0x10e>
 8002810:	2b08      	cmp	r3, #8
 8002812:	d8af      	bhi.n	8002774 <UART_SetConfig+0xa8>
 8002814:	a201      	add	r2, pc, #4	; (adr r2, 800281c <UART_SetConfig+0x150>)
 8002816:	f852 f023 	ldr.w	pc, [r2, r3, lsl #2]
 800281a:	bf00      	nop
 800281c:	08002863 	.word	0x08002863
 8002820:	0800286d 	.word	0x0800286d
 8002824:	08002879 	.word	0x08002879
 8002828:	08002775 	.word	0x08002775
 800282c:	08002873 	.word	0x08002873
 8002830:	08002775 	.word	0x08002775
 8002834:	08002775 	.word	0x08002775
 8002838:	08002775 	.word	0x08002775
 800283c:	08002841 	.word	0x08002841
 8002840:	f44f 4000 	mov.w	r0, #32768	; 0x8000
 8002844:	6862      	ldr	r2, [r4, #4]
 8002846:	eb00 0352 	add.w	r3, r0, r2, lsr #1
 800284a:	fbb3 f3f2 	udiv	r3, r3, r2
 800284e:	b29b      	uxth	r3, r3
 8002850:	f1a3 0110 	sub.w	r1, r3, #16
 8002854:	f64f 72ef 	movw	r2, #65519	; 0xffef
 8002858:	4291      	cmp	r1, r2
 800285a:	d88b      	bhi.n	8002774 <UART_SetConfig+0xa8>
 800285c:	6822      	ldr	r2, [r4, #0]
 800285e:	60d3      	str	r3, [r2, #12]
 8002860:	e793      	b.n	800278a <UART_SetConfig+0xbe>
 8002862:	f7ff fcb3 	bl	80021cc <HAL_RCC_GetPCLK1Freq>
 8002866:	2800      	cmp	r0, #0
 8002868:	d08f      	beq.n	800278a <UART_SetConfig+0xbe>
 800286a:	e7eb      	b.n	8002844 <UART_SetConfig+0x178>
 800286c:	f7ff fcc0 	bl	80021f0 <HAL_RCC_GetPCLK2Freq>
 8002870:	e7f9      	b.n	8002866 <UART_SetConfig+0x19a>
 8002872:	f7ff f91f 	bl	8001ab4 <HAL_RCC_GetSysClockFreq>
 8002876:	e7f6      	b.n	8002866 <UART_SetConfig+0x19a>
 8002878:	480a      	ldr	r0, [pc, #40]	; (80028a4 <UART_SetConfig+0x1d8>)
 800287a:	e7e3      	b.n	8002844 <UART_SetConfig+0x178>
 800287c:	f5b0 4f00 	cmp.w	r0, #32768	; 0x8000
 8002880:	d1f4      	bne.n	800286c <UART_SetConfig+0x1a0>
 8002882:	f7ff fcb5 	bl	80021f0 <HAL_RCC_GetPCLK2Freq>
 8002886:	e7a6      	b.n	80027d6 <UART_SetConfig+0x10a>
 8002888:	efff69f3 	.word	0xefff69f3
 800288c:	40008000 	.word	0x40008000
 8002890:	40013800 	.word	0x40013800
 8002894:	40021000 	.word	0x40021000
 8002898:	080088a4 	.word	0x080088a4
 800289c:	40004400 	.word	0x40004400
 80028a0:	080088a7 	.word	0x080088a7
 80028a4:	00f42400 	.word	0x00f42400
 80028a8:	000ffcff 	.word	0x000ffcff

080028ac <UART_AdvFeatureConfig>:
 80028ac:	6a43      	ldr	r3, [r0, #36]	; 0x24
 80028ae:	07da      	lsls	r2, r3, #31
 80028b0:	b510      	push	{r4, lr}
 80028b2:	d506      	bpl.n	80028c2 <UART_AdvFeatureConfig+0x16>
 80028b4:	6801      	ldr	r1, [r0, #0]
 80028b6:	6a84      	ldr	r4, [r0, #40]	; 0x28
 80028b8:	684a      	ldr	r2, [r1, #4]
 80028ba:	f422 3200 	bic.w	r2, r2, #131072	; 0x20000
 80028be:	4322      	orrs	r2, r4
 80028c0:	604a      	str	r2, [r1, #4]
 80028c2:	079c      	lsls	r4, r3, #30
 80028c4:	d506      	bpl.n	80028d4 <UART_AdvFeatureConfig+0x28>
 80028c6:	6801      	ldr	r1, [r0, #0]
 80028c8:	6ac4      	ldr	r4, [r0, #44]	; 0x2c
 80028ca:	684a      	ldr	r2, [r1, #4]
 80028cc:	f422 3280 	bic.w	r2, r2, #65536	; 0x10000
 80028d0:	4322      	orrs	r2, r4
 80028d2:	604a      	str	r2, [r1, #4]
 80028d4:	0759      	lsls	r1, r3, #29
 80028d6:	d506      	bpl.n	80028e6 <UART_AdvFeatureConfig+0x3a>
 80028d8:	6801      	ldr	r1, [r0, #0]
 80028da:	6b04      	ldr	r4, [r0, #48]	; 0x30
 80028dc:	684a      	ldr	r2, [r1, #4]
 80028de:	f422 2280 	bic.w	r2, r2, #262144	; 0x40000
 80028e2:	4322      	orrs	r2, r4
 80028e4:	604a      	str	r2, [r1, #4]
 80028e6:	071a      	lsls	r2, r3, #28
 80028e8:	d506      	bpl.n	80028f8 <UART_AdvFeatureConfig+0x4c>
 80028ea:	6801      	ldr	r1, [r0, #0]
 80028ec:	6b44      	ldr	r4, [r0, #52]	; 0x34
 80028ee:	684a      	ldr	r2, [r1, #4]
 80028f0:	f422 4200 	bic.w	r2, r2, #32768	; 0x8000
 80028f4:	4322      	orrs	r2, r4
 80028f6:	604a      	str	r2, [r1, #4]
 80028f8:	06dc      	lsls	r4, r3, #27
 80028fa:	d506      	bpl.n	800290a <UART_AdvFeatureConfig+0x5e>
 80028fc:	6801      	ldr	r1, [r0, #0]
 80028fe:	6b84      	ldr	r4, [r0, #56]	; 0x38
 8002900:	688a      	ldr	r2, [r1, #8]
 8002902:	f422 5280 	bic.w	r2, r2, #4096	; 0x1000
 8002906:	4322      	orrs	r2, r4
 8002908:	608a      	str	r2, [r1, #8]
 800290a:	0699      	lsls	r1, r3, #26
 800290c:	d506      	bpl.n	800291c <UART_AdvFeatureConfig+0x70>
 800290e:	6801      	ldr	r1, [r0, #0]
 8002910:	6bc4      	ldr	r4, [r0, #60]	; 0x3c
 8002912:	688a      	ldr	r2, [r1, #8]
 8002914:	f422 5200 	bic.w	r2, r2, #8192	; 0x2000
 8002918:	4322      	orrs	r2, r4
 800291a:	608a      	str	r2, [r1, #8]
 800291c:	065a      	lsls	r2, r3, #25
 800291e:	d50f      	bpl.n	8002940 <UART_AdvFeatureConfig+0x94>
 8002920:	6801      	ldr	r1, [r0, #0]
 8002922:	6c04      	ldr	r4, [r0, #64]	; 0x40
 8002924:	684a      	ldr	r2, [r1, #4]
 8002926:	f422 1280 	bic.w	r2, r2, #1048576	; 0x100000
 800292a:	4322      	orrs	r2, r4
 800292c:	f5b4 1f80 	cmp.w	r4, #1048576	; 0x100000
 8002930:	604a      	str	r2, [r1, #4]
 8002932:	d105      	bne.n	8002940 <UART_AdvFeatureConfig+0x94>
 8002934:	684a      	ldr	r2, [r1, #4]
 8002936:	6c44      	ldr	r4, [r0, #68]	; 0x44
 8002938:	f422 02c0 	bic.w	r2, r2, #6291456	; 0x600000
 800293c:	4322      	orrs	r2, r4
 800293e:	604a      	str	r2, [r1, #4]
 8002940:	061b      	lsls	r3, r3, #24
 8002942:	d506      	bpl.n	8002952 <UART_AdvFeatureConfig+0xa6>
 8002944:	6802      	ldr	r2, [r0, #0]
 8002946:	6c81      	ldr	r1, [r0, #72]	; 0x48
 8002948:	6853      	ldr	r3, [r2, #4]
 800294a:	f423 2300 	bic.w	r3, r3, #524288	; 0x80000
 800294e:	430b      	orrs	r3, r1
 8002950:	6053      	str	r3, [r2, #4]
 8002952:	bd10      	pop	{r4, pc}

08002954 <UART_WaitOnFlagUntilTimeout>:
 8002954:	e92d 41f0 	stmdb	sp!, {r4, r5, r6, r7, r8, lr}
 8002958:	f8dd 8018 	ldr.w	r8, [sp, #24]
 800295c:	4604      	mov	r4, r0
 800295e:	460e      	mov	r6, r1
 8002960:	4615      	mov	r5, r2
 8002962:	461f      	mov	r7, r3
 8002964:	6822      	ldr	r2, [r4, #0]
 8002966:	69d3      	ldr	r3, [r2, #28]
 8002968:	ea36 0303 	bics.w	r3, r6, r3
 800296c:	bf0c      	ite	eq
 800296e:	2301      	moveq	r3, #1
 8002970:	2300      	movne	r3, #0
 8002972:	42ab      	cmp	r3, r5
 8002974:	d001      	beq.n	800297a <UART_WaitOnFlagUntilTimeout+0x26>
 8002976:	2000      	movs	r0, #0
 8002978:	e01a      	b.n	80029b0 <UART_WaitOnFlagUntilTimeout+0x5c>
 800297a:	f1b8 3fff 	cmp.w	r8, #4294967295
 800297e:	d0f2      	beq.n	8002966 <UART_WaitOnFlagUntilTimeout+0x12>
 8002980:	f7fe fee8 	bl	8001754 <HAL_GetTick>
 8002984:	1bc0      	subs	r0, r0, r7
 8002986:	4540      	cmp	r0, r8
 8002988:	6820      	ldr	r0, [r4, #0]
 800298a:	6803      	ldr	r3, [r0, #0]
 800298c:	d802      	bhi.n	8002994 <UART_WaitOnFlagUntilTimeout+0x40>
 800298e:	f1b8 0f00 	cmp.w	r8, #0
 8002992:	d10f      	bne.n	80029b4 <UART_WaitOnFlagUntilTimeout+0x60>
 8002994:	f423 73d0 	bic.w	r3, r3, #416	; 0x1a0
 8002998:	6003      	str	r3, [r0, #0]
 800299a:	6883      	ldr	r3, [r0, #8]
 800299c:	f023 0301 	bic.w	r3, r3, #1
 80029a0:	6083      	str	r3, [r0, #8]
 80029a2:	2320      	movs	r3, #32
 80029a4:	67a3      	str	r3, [r4, #120]	; 0x78
 80029a6:	67e3      	str	r3, [r4, #124]	; 0x7c
 80029a8:	2300      	movs	r3, #0
 80029aa:	f884 3074 	strb.w	r3, [r4, #116]	; 0x74
 80029ae:	2003      	movs	r0, #3
 80029b0:	e8bd 81f0 	ldmia.w	sp!, {r4, r5, r6, r7, r8, pc}
 80029b4:	075a      	lsls	r2, r3, #29
 80029b6:	d5d5      	bpl.n	8002964 <UART_WaitOnFlagUntilTimeout+0x10>
 80029b8:	69c3      	ldr	r3, [r0, #28]
 80029ba:	051b      	lsls	r3, r3, #20
 80029bc:	d5d2      	bpl.n	8002964 <UART_WaitOnFlagUntilTimeout+0x10>
 80029be:	f44f 6300 	mov.w	r3, #2048	; 0x800
 80029c2:	6203      	str	r3, [r0, #32]
 80029c4:	6803      	ldr	r3, [r0, #0]
 80029c6:	f423 73d0 	bic.w	r3, r3, #416	; 0x1a0
 80029ca:	6003      	str	r3, [r0, #0]
 80029cc:	6883      	ldr	r3, [r0, #8]
 80029ce:	f023 0301 	bic.w	r3, r3, #1
 80029d2:	6083      	str	r3, [r0, #8]
 80029d4:	2320      	movs	r3, #32
 80029d6:	67a3      	str	r3, [r4, #120]	; 0x78
 80029d8:	67e3      	str	r3, [r4, #124]	; 0x7c
 80029da:	f8c4 3080 	str.w	r3, [r4, #128]	; 0x80
 80029de:	e7e3      	b.n	80029a8 <UART_WaitOnFlagUntilTimeout+0x54>

080029e0 <HAL_UART_Transmit>:
 80029e0:	e92d 41ff 	stmdb	sp!, {r0, r1, r2, r3, r4, r5, r6, r7, r8, lr}
 80029e4:	4698      	mov	r8, r3
 80029e6:	6f83      	ldr	r3, [r0, #120]	; 0x78
 80029e8:	2b20      	cmp	r3, #32
 80029ea:	4604      	mov	r4, r0
 80029ec:	460e      	mov	r6, r1
 80029ee:	4617      	mov	r7, r2
 80029f0:	d14e      	bne.n	8002a90 <HAL_UART_Transmit+0xb0>
 80029f2:	2900      	cmp	r1, #0
 80029f4:	d04a      	beq.n	8002a8c <HAL_UART_Transmit+0xac>
 80029f6:	2a00      	cmp	r2, #0
 80029f8:	d048      	beq.n	8002a8c <HAL_UART_Transmit+0xac>
 80029fa:	f890 3074 	ldrb.w	r3, [r0, #116]	; 0x74
 80029fe:	2b01      	cmp	r3, #1
 8002a00:	d046      	beq.n	8002a90 <HAL_UART_Transmit+0xb0>
 8002a02:	2301      	movs	r3, #1
 8002a04:	f880 3074 	strb.w	r3, [r0, #116]	; 0x74
 8002a08:	2500      	movs	r5, #0
 8002a0a:	2321      	movs	r3, #33	; 0x21
 8002a0c:	f8c0 5080 	str.w	r5, [r0, #128]	; 0x80
 8002a10:	6783      	str	r3, [r0, #120]	; 0x78
 8002a12:	f7fe fe9f 	bl	8001754 <HAL_GetTick>
 8002a16:	68a2      	ldr	r2, [r4, #8]
 8002a18:	f8a4 7050 	strh.w	r7, [r4, #80]	; 0x50
 8002a1c:	f5b2 5f80 	cmp.w	r2, #4096	; 0x1000
 8002a20:	4603      	mov	r3, r0
 8002a22:	f8a4 7052 	strh.w	r7, [r4, #82]	; 0x52
 8002a26:	d103      	bne.n	8002a30 <HAL_UART_Transmit+0x50>
 8002a28:	6922      	ldr	r2, [r4, #16]
 8002a2a:	b90a      	cbnz	r2, 8002a30 <HAL_UART_Transmit+0x50>
 8002a2c:	4635      	mov	r5, r6
 8002a2e:	4616      	mov	r6, r2
 8002a30:	2200      	movs	r2, #0
 8002a32:	f884 2074 	strb.w	r2, [r4, #116]	; 0x74
 8002a36:	f8b4 2052 	ldrh.w	r2, [r4, #82]	; 0x52
 8002a3a:	f8cd 8000 	str.w	r8, [sp]
 8002a3e:	b292      	uxth	r2, r2
 8002a40:	b93a      	cbnz	r2, 8002a52 <HAL_UART_Transmit+0x72>
 8002a42:	2140      	movs	r1, #64	; 0x40
 8002a44:	4620      	mov	r0, r4
 8002a46:	f7ff ff85 	bl	8002954 <UART_WaitOnFlagUntilTimeout>
 8002a4a:	b950      	cbnz	r0, 8002a62 <HAL_UART_Transmit+0x82>
 8002a4c:	2320      	movs	r3, #32
 8002a4e:	67a3      	str	r3, [r4, #120]	; 0x78
 8002a50:	e008      	b.n	8002a64 <HAL_UART_Transmit+0x84>
 8002a52:	2200      	movs	r2, #0
 8002a54:	2180      	movs	r1, #128	; 0x80
 8002a56:	4620      	mov	r0, r4
 8002a58:	9303      	str	r3, [sp, #12]
 8002a5a:	f7ff ff7b 	bl	8002954 <UART_WaitOnFlagUntilTimeout>
 8002a5e:	9b03      	ldr	r3, [sp, #12]
 8002a60:	b118      	cbz	r0, 8002a6a <HAL_UART_Transmit+0x8a>
 8002a62:	2003      	movs	r0, #3
 8002a64:	b004      	add	sp, #16
 8002a66:	e8bd 81f0 	ldmia.w	sp!, {r4, r5, r6, r7, r8, pc}
 8002a6a:	6821      	ldr	r1, [r4, #0]
 8002a6c:	b95e      	cbnz	r6, 8002a86 <HAL_UART_Transmit+0xa6>
 8002a6e:	f835 2b02 	ldrh.w	r2, [r5], #2
 8002a72:	f3c2 0208 	ubfx	r2, r2, #0, #9
 8002a76:	850a      	strh	r2, [r1, #40]	; 0x28
 8002a78:	f8b4 2052 	ldrh.w	r2, [r4, #82]	; 0x52
 8002a7c:	3a01      	subs	r2, #1
 8002a7e:	b292      	uxth	r2, r2
 8002a80:	f8a4 2052 	strh.w	r2, [r4, #82]	; 0x52
 8002a84:	e7d7      	b.n	8002a36 <HAL_UART_Transmit+0x56>
 8002a86:	f816 2b01 	ldrb.w	r2, [r6], #1
 8002a8a:	e7f4      	b.n	8002a76 <HAL_UART_Transmit+0x96>
 8002a8c:	2001      	movs	r0, #1
 8002a8e:	e7e9      	b.n	8002a64 <HAL_UART_Transmit+0x84>
 8002a90:	2002      	movs	r0, #2
 8002a92:	e7e7      	b.n	8002a64 <HAL_UART_Transmit+0x84>

08002a94 <UART_CheckIdleState>:
 8002a94:	b530      	push	{r4, r5, lr}
 8002a96:	4604      	mov	r4, r0
 8002a98:	2500      	movs	r5, #0
 8002a9a:	b085      	sub	sp, #20
 8002a9c:	f8c0 5080 	str.w	r5, [r0, #128]	; 0x80
 8002aa0:	f7fe fe58 	bl	8001754 <HAL_GetTick>
 8002aa4:	6822      	ldr	r2, [r4, #0]
 8002aa6:	6812      	ldr	r2, [r2, #0]
 8002aa8:	0711      	lsls	r1, r2, #28
 8002aaa:	4603      	mov	r3, r0
 8002aac:	d415      	bmi.n	8002ada <UART_CheckIdleState+0x46>
 8002aae:	6822      	ldr	r2, [r4, #0]
 8002ab0:	6812      	ldr	r2, [r2, #0]
 8002ab2:	0752      	lsls	r2, r2, #29
 8002ab4:	d509      	bpl.n	8002aca <UART_CheckIdleState+0x36>
 8002ab6:	f06f 427e 	mvn.w	r2, #4261412864	; 0xfe000000
 8002aba:	9200      	str	r2, [sp, #0]
 8002abc:	f44f 0180 	mov.w	r1, #4194304	; 0x400000
 8002ac0:	2200      	movs	r2, #0
 8002ac2:	4620      	mov	r0, r4
 8002ac4:	f7ff ff46 	bl	8002954 <UART_WaitOnFlagUntilTimeout>
 8002ac8:	b9a0      	cbnz	r0, 8002af4 <UART_CheckIdleState+0x60>
 8002aca:	2320      	movs	r3, #32
 8002acc:	2000      	movs	r0, #0
 8002ace:	67a3      	str	r3, [r4, #120]	; 0x78
 8002ad0:	f884 0074 	strb.w	r0, [r4, #116]	; 0x74
 8002ad4:	67e3      	str	r3, [r4, #124]	; 0x7c
 8002ad6:	6620      	str	r0, [r4, #96]	; 0x60
 8002ad8:	e00d      	b.n	8002af6 <UART_CheckIdleState+0x62>
 8002ada:	f06f 427e 	mvn.w	r2, #4261412864	; 0xfe000000
 8002ade:	9200      	str	r2, [sp, #0]
 8002ae0:	9003      	str	r0, [sp, #12]
 8002ae2:	462a      	mov	r2, r5
 8002ae4:	f44f 1100 	mov.w	r1, #2097152	; 0x200000
 8002ae8:	4620      	mov	r0, r4
 8002aea:	f7ff ff33 	bl	8002954 <UART_WaitOnFlagUntilTimeout>
 8002aee:	9b03      	ldr	r3, [sp, #12]
 8002af0:	2800      	cmp	r0, #0
 8002af2:	d0dc      	beq.n	8002aae <UART_CheckIdleState+0x1a>
 8002af4:	2003      	movs	r0, #3
 8002af6:	b005      	add	sp, #20
 8002af8:	bd30      	pop	{r4, r5, pc}

08002afa <HAL_UART_Init>:
 8002afa:	b510      	push	{r4, lr}
 8002afc:	4604      	mov	r4, r0
 8002afe:	b340      	cbz	r0, 8002b52 <HAL_UART_Init+0x58>
 8002b00:	6f83      	ldr	r3, [r0, #120]	; 0x78
 8002b02:	b91b      	cbnz	r3, 8002b0c <HAL_UART_Init+0x12>
 8002b04:	f880 3074 	strb.w	r3, [r0, #116]	; 0x74
 8002b08:	f7fe fce6 	bl	80014d8 <HAL_UART_MspInit>
 8002b0c:	6822      	ldr	r2, [r4, #0]
 8002b0e:	2324      	movs	r3, #36	; 0x24
 8002b10:	67a3      	str	r3, [r4, #120]	; 0x78
 8002b12:	6813      	ldr	r3, [r2, #0]
 8002b14:	f023 0301 	bic.w	r3, r3, #1
 8002b18:	6013      	str	r3, [r2, #0]
 8002b1a:	4620      	mov	r0, r4
 8002b1c:	f7ff fdd6 	bl	80026cc <UART_SetConfig>
 8002b20:	2801      	cmp	r0, #1
 8002b22:	d016      	beq.n	8002b52 <HAL_UART_Init+0x58>
 8002b24:	6a63      	ldr	r3, [r4, #36]	; 0x24
 8002b26:	b113      	cbz	r3, 8002b2e <HAL_UART_Init+0x34>
 8002b28:	4620      	mov	r0, r4
 8002b2a:	f7ff febf 	bl	80028ac <UART_AdvFeatureConfig>
 8002b2e:	6823      	ldr	r3, [r4, #0]
 8002b30:	685a      	ldr	r2, [r3, #4]
 8002b32:	f422 4290 	bic.w	r2, r2, #18432	; 0x4800
 8002b36:	605a      	str	r2, [r3, #4]
 8002b38:	689a      	ldr	r2, [r3, #8]
 8002b3a:	f022 022a 	bic.w	r2, r2, #42	; 0x2a
 8002b3e:	609a      	str	r2, [r3, #8]
 8002b40:	681a      	ldr	r2, [r3, #0]
 8002b42:	f042 0201 	orr.w	r2, r2, #1
 8002b46:	4620      	mov	r0, r4
 8002b48:	601a      	str	r2, [r3, #0]
 8002b4a:	e8bd 4010 	ldmia.w	sp!, {r4, lr}
 8002b4e:	f7ff bfa1 	b.w	8002a94 <UART_CheckIdleState>
 8002b52:	2001      	movs	r0, #1
 8002b54:	bd10      	pop	{r4, pc}

08002b56 <TfLiteIntArrayGetSizeInBytes>:
 8002b56:	3001      	adds	r0, #1
 8002b58:	0080      	lsls	r0, r0, #2
 8002b5a:	4770      	bx	lr

08002b5c <TfLiteTypeGetName>:
 8002b5c:	280c      	cmp	r0, #12
 8002b5e:	bf9a      	itte	ls
 8002b60:	4b02      	ldrls	r3, [pc, #8]	; (8002b6c <TfLiteTypeGetName+0x10>)
 8002b62:	f853 0020 	ldrls.w	r0, [r3, r0, lsl #2]
 8002b66:	4802      	ldrhi	r0, [pc, #8]	; (8002b70 <TfLiteTypeGetName+0x14>)
 8002b68:	4770      	bx	lr
 8002b6a:	bf00      	nop
 8002b6c:	0800891c 	.word	0x0800891c
 8002b70:	080088b4 	.word	0x080088b4

08002b74 <_ZN6tflite13ErrorReporter6ReportEPKcz>:
 8002b74:	b40e      	push	{r1, r2, r3}
 8002b76:	b503      	push	{r0, r1, lr}
 8002b78:	aa03      	add	r2, sp, #12
 8002b7a:	6803      	ldr	r3, [r0, #0]
 8002b7c:	f852 1b04 	ldr.w	r1, [r2], #4
 8002b80:	689b      	ldr	r3, [r3, #8]
 8002b82:	9201      	str	r2, [sp, #4]
 8002b84:	4798      	blx	r3
 8002b86:	b002      	add	sp, #8
 8002b88:	f85d eb04 	ldr.w	lr, [sp], #4
 8002b8c:	b003      	add	sp, #12
 8002b8e:	4770      	bx	lr

08002b90 <_ZN6tflite13ErrorReporter11ReportErrorEPvPKcz>:
 8002b90:	b40c      	push	{r2, r3}
 8002b92:	b507      	push	{r0, r1, r2, lr}
 8002b94:	aa04      	add	r2, sp, #16
 8002b96:	6803      	ldr	r3, [r0, #0]
 8002b98:	f852 1b04 	ldr.w	r1, [r2], #4
 8002b9c:	689b      	ldr	r3, [r3, #8]
 8002b9e:	9201      	str	r2, [sp, #4]
 8002ba0:	4798      	blx	r3
 8002ba2:	b003      	add	sp, #12
 8002ba4:	f85d eb04 	ldr.w	lr, [sp], #4
 8002ba8:	b002      	add	sp, #8
 8002baa:	4770      	bx	lr

08002bac <_ZN6tflite12_GLOBAL__N_123CheckParsePointerParamsEPKNS_8OperatorEPNS_13ErrorReporterEPNS_20BuiltinDataAllocatorEPPv>:
 8002bac:	b508      	push	{r3, lr}
 8002bae:	b908      	cbnz	r0, 8002bb4 <_ZN6tflite12_GLOBAL__N_123CheckParsePointerParamsEPKNS_8OperatorEPNS_13ErrorReporterEPNS_20BuiltinDataAllocatorEPPv+0x8>
 8002bb0:	f002 fe2e 	bl	8005810 <abort>
 8002bb4:	2900      	cmp	r1, #0
 8002bb6:	d0fb      	beq.n	8002bb0 <_ZN6tflite12_GLOBAL__N_123CheckParsePointerParamsEPKNS_8OperatorEPNS_13ErrorReporterEPNS_20BuiltinDataAllocatorEPPv+0x4>
 8002bb8:	2a00      	cmp	r2, #0
 8002bba:	d0f9      	beq.n	8002bb0 <_ZN6tflite12_GLOBAL__N_123CheckParsePointerParamsEPKNS_8OperatorEPNS_13ErrorReporterEPNS_20BuiltinDataAllocatorEPPv+0x4>
 8002bbc:	2b00      	cmp	r3, #0
 8002bbe:	d0f7      	beq.n	8002bb0 <_ZN6tflite12_GLOBAL__N_123CheckParsePointerParamsEPKNS_8OperatorEPNS_13ErrorReporterEPNS_20BuiltinDataAllocatorEPPv+0x4>
 8002bc0:	bd08      	pop	{r3, pc}

08002bc2 <_ZN6tflite12_GLOBAL__N_124SafeBuiltinDataAllocator18BuiltinDataDeleterclEPv.isra.0>:
 8002bc2:	6803      	ldr	r3, [r0, #0]
 8002bc4:	685b      	ldr	r3, [r3, #4]
 8002bc6:	4718      	bx	r3

08002bc8 <_ZNK11flatbuffers5Table22GetOptionalFieldOffsetEt>:
 8002bc8:	6803      	ldr	r3, [r0, #0]
 8002bca:	1ac0      	subs	r0, r0, r3
 8002bcc:	8803      	ldrh	r3, [r0, #0]
 8002bce:	428b      	cmp	r3, r1
 8002bd0:	bf8c      	ite	hi
 8002bd2:	5a40      	ldrhhi	r0, [r0, r1]
 8002bd4:	2000      	movls	r0, #0
 8002bd6:	4770      	bx	lr

08002bd8 <_ZNK6tflite8Operator15builtin_optionsEv>:
 8002bd8:	b510      	push	{r4, lr}
 8002bda:	210c      	movs	r1, #12
 8002bdc:	4604      	mov	r4, r0
 8002bde:	f7ff fff3 	bl	8002bc8 <_ZNK11flatbuffers5Table22GetOptionalFieldOffsetEt>
 8002be2:	b110      	cbz	r0, 8002bea <_ZNK6tflite8Operator15builtin_optionsEv+0x12>
 8002be4:	1823      	adds	r3, r4, r0
 8002be6:	5820      	ldr	r0, [r4, r0]
 8002be8:	4418      	add	r0, r3
 8002bea:	bd10      	pop	{r4, pc}

08002bec <_ZN6tflite17ConvertTensorTypeENS_10TensorTypeEP10TfLiteTypePNS_13ErrorReporterE>:
 8002bec:	b508      	push	{r3, lr}
 8002bee:	4603      	mov	r3, r0
 8002bf0:	4610      	mov	r0, r2
 8002bf2:	2b0b      	cmp	r3, #11
 8002bf4:	d823      	bhi.n	8002c3e <_ZN6tflite17ConvertTensorTypeENS_10TensorTypeEP10TfLiteTypePNS_13ErrorReporterE+0x52>
 8002bf6:	e8df f003 	tbb	[pc, r3]
 8002bfa:	060a      	.short	0x060a
 8002bfc:	1a181412 	.word	0x1a181412
 8002c00:	161e101c 	.word	0x161e101c
 8002c04:	200e      	.short	0x200e
 8002c06:	230a      	movs	r3, #10
 8002c08:	700b      	strb	r3, [r1, #0]
 8002c0a:	2300      	movs	r3, #0
 8002c0c:	e001      	b.n	8002c12 <_ZN6tflite17ConvertTensorTypeENS_10TensorTypeEP10TfLiteTypePNS_13ErrorReporterE+0x26>
 8002c0e:	2201      	movs	r2, #1
 8002c10:	700a      	strb	r2, [r1, #0]
 8002c12:	4618      	mov	r0, r3
 8002c14:	bd08      	pop	{r3, pc}
 8002c16:	230b      	movs	r3, #11
 8002c18:	e7f6      	b.n	8002c08 <_ZN6tflite17ConvertTensorTypeENS_10TensorTypeEP10TfLiteTypePNS_13ErrorReporterE+0x1c>
 8002c1a:	2307      	movs	r3, #7
 8002c1c:	e7f4      	b.n	8002c08 <_ZN6tflite17ConvertTensorTypeENS_10TensorTypeEP10TfLiteTypePNS_13ErrorReporterE+0x1c>
 8002c1e:	2302      	movs	r3, #2
 8002c20:	e7f2      	b.n	8002c08 <_ZN6tflite17ConvertTensorTypeENS_10TensorTypeEP10TfLiteTypePNS_13ErrorReporterE+0x1c>
 8002c22:	2303      	movs	r3, #3
 8002c24:	e7f0      	b.n	8002c08 <_ZN6tflite17ConvertTensorTypeENS_10TensorTypeEP10TfLiteTypePNS_13ErrorReporterE+0x1c>
 8002c26:	2309      	movs	r3, #9
 8002c28:	e7ee      	b.n	8002c08 <_ZN6tflite17ConvertTensorTypeENS_10TensorTypeEP10TfLiteTypePNS_13ErrorReporterE+0x1c>
 8002c2a:	2304      	movs	r3, #4
 8002c2c:	e7ec      	b.n	8002c08 <_ZN6tflite17ConvertTensorTypeENS_10TensorTypeEP10TfLiteTypePNS_13ErrorReporterE+0x1c>
 8002c2e:	2305      	movs	r3, #5
 8002c30:	e7ea      	b.n	8002c08 <_ZN6tflite17ConvertTensorTypeENS_10TensorTypeEP10TfLiteTypePNS_13ErrorReporterE+0x1c>
 8002c32:	2306      	movs	r3, #6
 8002c34:	e7e8      	b.n	8002c08 <_ZN6tflite17ConvertTensorTypeENS_10TensorTypeEP10TfLiteTypePNS_13ErrorReporterE+0x1c>
 8002c36:	2308      	movs	r3, #8
 8002c38:	e7e6      	b.n	8002c08 <_ZN6tflite17ConvertTensorTypeENS_10TensorTypeEP10TfLiteTypePNS_13ErrorReporterE+0x1c>
 8002c3a:	230c      	movs	r3, #12
 8002c3c:	e7e4      	b.n	8002c08 <_ZN6tflite17ConvertTensorTypeENS_10TensorTypeEP10TfLiteTypePNS_13ErrorReporterE+0x1c>
 8002c3e:	2200      	movs	r2, #0
 8002c40:	700a      	strb	r2, [r1, #0]
 8002c42:	461a      	mov	r2, r3
 8002c44:	4902      	ldr	r1, [pc, #8]	; (8002c50 <_ZN6tflite17ConvertTensorTypeENS_10TensorTypeEP10TfLiteTypePNS_13ErrorReporterE+0x64>)
 8002c46:	f7ff ff95 	bl	8002b74 <_ZN6tflite13ErrorReporter6ReportEPKcz>
 8002c4a:	2301      	movs	r3, #1
 8002c4c:	e7e1      	b.n	8002c12 <_ZN6tflite17ConvertTensorTypeENS_10TensorTypeEP10TfLiteTypePNS_13ErrorReporterE+0x26>
 8002c4e:	bf00      	nop
 8002c50:	08008950 	.word	0x08008950

08002c54 <_ZNK11flatbuffers5Table8GetFieldIhEET_tS2_>:
 8002c54:	b538      	push	{r3, r4, r5, lr}
 8002c56:	4605      	mov	r5, r0
 8002c58:	4614      	mov	r4, r2
 8002c5a:	f7ff ffb5 	bl	8002bc8 <_ZNK11flatbuffers5Table22GetOptionalFieldOffsetEt>
 8002c5e:	b100      	cbz	r0, 8002c62 <_ZNK11flatbuffers5Table8GetFieldIhEET_tS2_+0xe>
 8002c60:	5c2c      	ldrb	r4, [r5, r0]
 8002c62:	4620      	mov	r0, r4
 8002c64:	bd38      	pop	{r3, r4, r5, pc}

08002c66 <_ZNK6tflite8Operator20builtin_options_typeEv>:
 8002c66:	b508      	push	{r3, lr}
 8002c68:	2200      	movs	r2, #0
 8002c6a:	210a      	movs	r1, #10
 8002c6c:	f7ff fff2 	bl	8002c54 <_ZNK11flatbuffers5Table8GetFieldIhEET_tS2_>
 8002c70:	bd08      	pop	{r3, pc}

08002c72 <_ZNK11flatbuffers5Table8GetFieldIaEET_tS2_>:
 8002c72:	b538      	push	{r3, r4, r5, lr}
 8002c74:	4605      	mov	r5, r0
 8002c76:	4614      	mov	r4, r2
 8002c78:	f7ff ffa6 	bl	8002bc8 <_ZNK11flatbuffers5Table22GetOptionalFieldOffsetEt>
 8002c7c:	b100      	cbz	r0, 8002c80 <_ZNK11flatbuffers5Table8GetFieldIaEET_tS2_+0xe>
 8002c7e:	562c      	ldrsb	r4, [r5, r0]
 8002c80:	4620      	mov	r0, r4
 8002c82:	bd38      	pop	{r3, r4, r5, pc}

08002c84 <_ZN6tflite19ParseFullyConnectedEPKNS_8OperatorEPNS_13ErrorReporterEPNS_20BuiltinDataAllocatorEPPv>:
 8002c84:	e92d 47f3 	stmdb	sp!, {r0, r1, r4, r5, r6, r7, r8, r9, sl, lr}
 8002c88:	4617      	mov	r7, r2
 8002c8a:	4605      	mov	r5, r0
 8002c8c:	4688      	mov	r8, r1
 8002c8e:	4699      	mov	r9, r3
 8002c90:	f7ff ff8c 	bl	8002bac <_ZN6tflite12_GLOBAL__N_123CheckParsePointerParamsEPKNS_8OperatorEPNS_13ErrorReporterEPNS_20BuiltinDataAllocatorEPPv>
 8002c94:	683b      	ldr	r3, [r7, #0]
 8002c96:	2201      	movs	r2, #1
 8002c98:	681b      	ldr	r3, [r3, #0]
 8002c9a:	2104      	movs	r1, #4
 8002c9c:	4638      	mov	r0, r7
 8002c9e:	4798      	blx	r3
 8002ca0:	4604      	mov	r4, r0
 8002ca2:	b970      	cbnz	r0, 8002cc2 <_ZN6tflite19ParseFullyConnectedEPKNS_8OperatorEPNS_13ErrorReporterEPNS_20BuiltinDataAllocatorEPPv+0x3e>
 8002ca4:	4b25      	ldr	r3, [pc, #148]	; (8002d3c <_ZN6tflite19ParseFullyConnectedEPKNS_8OperatorEPNS_13ErrorReporterEPNS_20BuiltinDataAllocatorEPPv+0xb8>)
 8002ca6:	9301      	str	r3, [sp, #4]
 8002ca8:	f240 4352 	movw	r3, #1106	; 0x452
 8002cac:	9300      	str	r3, [sp, #0]
 8002cae:	4a24      	ldr	r2, [pc, #144]	; (8002d40 <_ZN6tflite19ParseFullyConnectedEPKNS_8OperatorEPNS_13ErrorReporterEPNS_20BuiltinDataAllocatorEPPv+0xbc>)
 8002cb0:	4b24      	ldr	r3, [pc, #144]	; (8002d44 <_ZN6tflite19ParseFullyConnectedEPKNS_8OperatorEPNS_13ErrorReporterEPNS_20BuiltinDataAllocatorEPPv+0xc0>)
 8002cb2:	4641      	mov	r1, r8
 8002cb4:	4640      	mov	r0, r8
 8002cb6:	f7ff ff6b 	bl	8002b90 <_ZN6tflite13ErrorReporter11ReportErrorEPvPKcz>
 8002cba:	2001      	movs	r0, #1
 8002cbc:	b002      	add	sp, #8
 8002cbe:	e8bd 87f0 	ldmia.w	sp!, {r4, r5, r6, r7, r8, r9, sl, pc}
 8002cc2:	4628      	mov	r0, r5
 8002cc4:	f7ff ffcf 	bl	8002c66 <_ZNK6tflite8Operator20builtin_options_typeEv>
 8002cc8:	2808      	cmp	r0, #8
 8002cca:	4682      	mov	sl, r0
 8002ccc:	d132      	bne.n	8002d34 <_ZN6tflite19ParseFullyConnectedEPKNS_8OperatorEPNS_13ErrorReporterEPNS_20BuiltinDataAllocatorEPPv+0xb0>
 8002cce:	4628      	mov	r0, r5
 8002cd0:	f7ff ff82 	bl	8002bd8 <_ZNK6tflite8Operator15builtin_optionsEv>
 8002cd4:	4605      	mov	r5, r0
 8002cd6:	b368      	cbz	r0, 8002d34 <_ZN6tflite19ParseFullyConnectedEPKNS_8OperatorEPNS_13ErrorReporterEPNS_20BuiltinDataAllocatorEPPv+0xb0>
 8002cd8:	2200      	movs	r2, #0
 8002cda:	2104      	movs	r1, #4
 8002cdc:	f7ff ffc9 	bl	8002c72 <_ZNK11flatbuffers5Table8GetFieldIaEET_tS2_>
 8002ce0:	b2c6      	uxtb	r6, r0
 8002ce2:	1e73      	subs	r3, r6, #1
 8002ce4:	2b04      	cmp	r3, #4
 8002ce6:	bf88      	it	hi
 8002ce8:	2600      	movhi	r6, #0
 8002cea:	2200      	movs	r2, #0
 8002cec:	4651      	mov	r1, sl
 8002cee:	7026      	strb	r6, [r4, #0]
 8002cf0:	4628      	mov	r0, r5
 8002cf2:	f7ff ffaf 	bl	8002c54 <_ZNK11flatbuffers5Table8GetFieldIhEET_tS2_>
 8002cf6:	3800      	subs	r0, #0
 8002cf8:	bf18      	it	ne
 8002cfa:	2001      	movne	r0, #1
 8002cfc:	70a0      	strb	r0, [r4, #2]
 8002cfe:	2200      	movs	r2, #0
 8002d00:	210a      	movs	r1, #10
 8002d02:	4628      	mov	r0, r5
 8002d04:	f7ff ffa6 	bl	8002c54 <_ZNK11flatbuffers5Table8GetFieldIhEET_tS2_>
 8002d08:	3800      	subs	r0, #0
 8002d0a:	bf18      	it	ne
 8002d0c:	2001      	movne	r0, #1
 8002d0e:	70e0      	strb	r0, [r4, #3]
 8002d10:	2200      	movs	r2, #0
 8002d12:	2106      	movs	r1, #6
 8002d14:	4628      	mov	r0, r5
 8002d16:	f7ff ffac 	bl	8002c72 <_ZNK11flatbuffers5Table8GetFieldIaEET_tS2_>
 8002d1a:	b150      	cbz	r0, 8002d32 <_ZN6tflite19ParseFullyConnectedEPKNS_8OperatorEPNS_13ErrorReporterEPNS_20BuiltinDataAllocatorEPPv+0xae>
 8002d1c:	2801      	cmp	r0, #1
 8002d1e:	d008      	beq.n	8002d32 <_ZN6tflite19ParseFullyConnectedEPKNS_8OperatorEPNS_13ErrorReporterEPNS_20BuiltinDataAllocatorEPPv+0xae>
 8002d20:	4909      	ldr	r1, [pc, #36]	; (8002d48 <_ZN6tflite19ParseFullyConnectedEPKNS_8OperatorEPNS_13ErrorReporterEPNS_20BuiltinDataAllocatorEPPv+0xc4>)
 8002d22:	4640      	mov	r0, r8
 8002d24:	f7ff ff26 	bl	8002b74 <_ZN6tflite13ErrorReporter6ReportEPKcz>
 8002d28:	4621      	mov	r1, r4
 8002d2a:	4638      	mov	r0, r7
 8002d2c:	f7ff ff49 	bl	8002bc2 <_ZN6tflite12_GLOBAL__N_124SafeBuiltinDataAllocator18BuiltinDataDeleterclEPv.isra.0>
 8002d30:	e7c3      	b.n	8002cba <_ZN6tflite19ParseFullyConnectedEPKNS_8OperatorEPNS_13ErrorReporterEPNS_20BuiltinDataAllocatorEPPv+0x36>
 8002d32:	7060      	strb	r0, [r4, #1]
 8002d34:	f8c9 4000 	str.w	r4, [r9]
 8002d38:	2000      	movs	r0, #0
 8002d3a:	e7bf      	b.n	8002cbc <_ZN6tflite19ParseFullyConnectedEPKNS_8OperatorEPNS_13ErrorReporterEPNS_20BuiltinDataAllocatorEPPv+0x38>
 8002d3c:	080089d1 	.word	0x080089d1
 8002d40:	080089ba 	.word	0x080089ba
 8002d44:	08008974 	.word	0x08008974
 8002d48:	080089eb 	.word	0x080089eb

08002d4c <_ZN6tflite25GetRegistrationFromOpCodeEPKNS_12OperatorCodeERKNS_10OpResolverEPNS_13ErrorReporterEPPK18TfLiteRegistration>:
 8002d4c:	e92d 41f3 	stmdb	sp!, {r0, r1, r4, r5, r6, r7, r8, lr}
 8002d50:	461e      	mov	r6, r3
 8002d52:	2300      	movs	r3, #0
 8002d54:	460f      	mov	r7, r1
 8002d56:	6033      	str	r3, [r6, #0]
 8002d58:	2104      	movs	r1, #4
 8002d5a:	4605      	mov	r5, r0
 8002d5c:	4690      	mov	r8, r2
 8002d5e:	f7ff ff33 	bl	8002bc8 <_ZNK11flatbuffers5Table22GetOptionalFieldOffsetEt>
 8002d62:	b100      	cbz	r0, 8002d66 <_ZN6tflite25GetRegistrationFromOpCodeEPKNS_12OperatorCodeERKNS_10OpResolverEPNS_13ErrorReporterEPPK18TfLiteRegistration+0x1a>
 8002d64:	5628      	ldrsb	r0, [r5, r0]
 8002d66:	b2c4      	uxtb	r4, r0
 8002d68:	2108      	movs	r1, #8
 8002d6a:	4628      	mov	r0, r5
 8002d6c:	f7ff ff2c 	bl	8002bc8 <_ZNK11flatbuffers5Table22GetOptionalFieldOffsetEt>
 8002d70:	b158      	cbz	r0, 8002d8a <_ZN6tflite25GetRegistrationFromOpCodeEPKNS_12OperatorCodeERKNS_10OpResolverEPNS_13ErrorReporterEPPK18TfLiteRegistration+0x3e>
 8002d72:	582a      	ldr	r2, [r5, r0]
 8002d74:	2c7e      	cmp	r4, #126	; 0x7e
 8002d76:	d90a      	bls.n	8002d8e <_ZN6tflite25GetRegistrationFromOpCodeEPKNS_12OperatorCodeERKNS_10OpResolverEPNS_13ErrorReporterEPPK18TfLiteRegistration+0x42>
 8002d78:	491c      	ldr	r1, [pc, #112]	; (8002dec <_ZN6tflite25GetRegistrationFromOpCodeEPKNS_12OperatorCodeERKNS_10OpResolverEPNS_13ErrorReporterEPPK18TfLiteRegistration+0xa0>)
 8002d7a:	4622      	mov	r2, r4
 8002d7c:	4640      	mov	r0, r8
 8002d7e:	f7ff fef9 	bl	8002b74 <_ZN6tflite13ErrorReporter6ReportEPKcz>
 8002d82:	2001      	movs	r0, #1
 8002d84:	b002      	add	sp, #8
 8002d86:	e8bd 81f0 	ldmia.w	sp!, {r4, r5, r6, r7, r8, pc}
 8002d8a:	2201      	movs	r2, #1
 8002d8c:	e7f2      	b.n	8002d74 <_ZN6tflite25GetRegistrationFromOpCodeEPKNS_12OperatorCodeERKNS_10OpResolverEPNS_13ErrorReporterEPPK18TfLiteRegistration+0x28>
 8002d8e:	2c20      	cmp	r4, #32
 8002d90:	d011      	beq.n	8002db6 <_ZN6tflite25GetRegistrationFromOpCodeEPKNS_12OperatorCodeERKNS_10OpResolverEPNS_13ErrorReporterEPPK18TfLiteRegistration+0x6a>
 8002d92:	683b      	ldr	r3, [r7, #0]
 8002d94:	9201      	str	r2, [sp, #4]
 8002d96:	681b      	ldr	r3, [r3, #0]
 8002d98:	4621      	mov	r1, r4
 8002d9a:	4638      	mov	r0, r7
 8002d9c:	4798      	blx	r3
 8002d9e:	9a01      	ldr	r2, [sp, #4]
 8002da0:	6030      	str	r0, [r6, #0]
 8002da2:	bb08      	cbnz	r0, 8002de8 <_ZN6tflite25GetRegistrationFromOpCodeEPKNS_12OperatorCodeERKNS_10OpResolverEPNS_13ErrorReporterEPPK18TfLiteRegistration+0x9c>
 8002da4:	4613      	mov	r3, r2
 8002da6:	4a12      	ldr	r2, [pc, #72]	; (8002df0 <_ZN6tflite25GetRegistrationFromOpCodeEPKNS_12OperatorCodeERKNS_10OpResolverEPNS_13ErrorReporterEPPK18TfLiteRegistration+0xa4>)
 8002da8:	4912      	ldr	r1, [pc, #72]	; (8002df4 <_ZN6tflite25GetRegistrationFromOpCodeEPKNS_12OperatorCodeERKNS_10OpResolverEPNS_13ErrorReporterEPPK18TfLiteRegistration+0xa8>)
 8002daa:	f852 2024 	ldr.w	r2, [r2, r4, lsl #2]
 8002dae:	4640      	mov	r0, r8
 8002db0:	f7ff fee0 	bl	8002b74 <_ZN6tflite13ErrorReporter6ReportEPKcz>
 8002db4:	e7e5      	b.n	8002d82 <_ZN6tflite25GetRegistrationFromOpCodeEPKNS_12OperatorCodeERKNS_10OpResolverEPNS_13ErrorReporterEPPK18TfLiteRegistration+0x36>
 8002db6:	2106      	movs	r1, #6
 8002db8:	4628      	mov	r0, r5
 8002dba:	9201      	str	r2, [sp, #4]
 8002dbc:	f7ff ff04 	bl	8002bc8 <_ZNK11flatbuffers5Table22GetOptionalFieldOffsetEt>
 8002dc0:	1829      	adds	r1, r5, r0
 8002dc2:	b160      	cbz	r0, 8002dde <_ZN6tflite25GetRegistrationFromOpCodeEPKNS_12OperatorCodeERKNS_10OpResolverEPNS_13ErrorReporterEPPK18TfLiteRegistration+0x92>
 8002dc4:	582b      	ldr	r3, [r5, r0]
 8002dc6:	9a01      	ldr	r2, [sp, #4]
 8002dc8:	4419      	add	r1, r3
 8002dca:	683b      	ldr	r3, [r7, #0]
 8002dcc:	3104      	adds	r1, #4
 8002dce:	685b      	ldr	r3, [r3, #4]
 8002dd0:	4638      	mov	r0, r7
 8002dd2:	4798      	blx	r3
 8002dd4:	6030      	str	r0, [r6, #0]
 8002dd6:	fab0 f080 	clz	r0, r0
 8002dda:	0940      	lsrs	r0, r0, #5
 8002ddc:	e7d2      	b.n	8002d84 <_ZN6tflite25GetRegistrationFromOpCodeEPKNS_12OperatorCodeERKNS_10OpResolverEPNS_13ErrorReporterEPPK18TfLiteRegistration+0x38>
 8002dde:	4906      	ldr	r1, [pc, #24]	; (8002df8 <_ZN6tflite25GetRegistrationFromOpCodeEPKNS_12OperatorCodeERKNS_10OpResolverEPNS_13ErrorReporterEPPK18TfLiteRegistration+0xac>)
 8002de0:	4640      	mov	r0, r8
 8002de2:	f7ff fec7 	bl	8002b74 <_ZN6tflite13ErrorReporter6ReportEPKcz>
 8002de6:	e7cc      	b.n	8002d82 <_ZN6tflite25GetRegistrationFromOpCodeEPKNS_12OperatorCodeERKNS_10OpResolverEPNS_13ErrorReporterEPPK18TfLiteRegistration+0x36>
 8002de8:	2000      	movs	r0, #0
 8002dea:	e7cb      	b.n	8002d84 <_ZN6tflite25GetRegistrationFromOpCodeEPKNS_12OperatorCodeERKNS_10OpResolverEPNS_13ErrorReporterEPPK18TfLiteRegistration+0x38>
 8002dec:	08008a15 	.word	0x08008a15
 8002df0:	08008fb4 	.word	0x08008fb4
 8002df4:	08008a69 	.word	0x08008a69
 8002df8:	08008a9e 	.word	0x08008a9e

08002dfc <_ZN6tflite18QuantizeMultiplierEdPlPi>:
 8002dfc:	b537      	push	{r0, r1, r2, r4, r5, lr}
 8002dfe:	2300      	movs	r3, #0
 8002e00:	4605      	mov	r5, r0
 8002e02:	460c      	mov	r4, r1
 8002e04:	2200      	movs	r2, #0
 8002e06:	ec51 0b10 	vmov	r0, r1, d0
 8002e0a:	ed8d 0b00 	vstr	d0, [sp]
 8002e0e:	f7fd fe6b 	bl	8000ae8 <__aeabi_dcmpeq>
 8002e12:	ed9d 0b00 	vldr	d0, [sp]
 8002e16:	b120      	cbz	r0, 8002e22 <_ZN6tflite18QuantizeMultiplierEdPlPi+0x26>
 8002e18:	2300      	movs	r3, #0
 8002e1a:	602b      	str	r3, [r5, #0]
 8002e1c:	6023      	str	r3, [r4, #0]
 8002e1e:	b003      	add	sp, #12
 8002e20:	bd30      	pop	{r4, r5, pc}
 8002e22:	4620      	mov	r0, r4
 8002e24:	f002 fc50 	bl	80056c8 <frexp>
 8002e28:	4b15      	ldr	r3, [pc, #84]	; (8002e80 <_ZN6tflite18QuantizeMultiplierEdPlPi+0x84>)
 8002e2a:	2200      	movs	r2, #0
 8002e2c:	ec51 0b10 	vmov	r0, r1, d0
 8002e30:	f7fd fbf2 	bl	8000618 <__aeabi_dmul>
 8002e34:	ec41 0b10 	vmov	d0, r0, r1
 8002e38:	f002 fc7e 	bl	8005738 <round>
 8002e3c:	ec51 0b10 	vmov	r0, r1, d0
 8002e40:	f7fd ff2a 	bl	8000c98 <__aeabi_d2lz>
 8002e44:	4602      	mov	r2, r0
 8002e46:	f04f 4000 	mov.w	r0, #2147483648	; 0x80000000
 8002e4a:	460b      	mov	r3, r1
 8002e4c:	4290      	cmp	r0, r2
 8002e4e:	f04f 0100 	mov.w	r1, #0
 8002e52:	eb71 0c03 	sbcs.w	ip, r1, r3
 8002e56:	da01      	bge.n	8002e5c <_ZN6tflite18QuantizeMultiplierEdPlPi+0x60>
 8002e58:	f002 fcda 	bl	8005810 <abort>
 8002e5c:	428b      	cmp	r3, r1
 8002e5e:	bf01      	itttt	eq
 8002e60:	4282      	cmpeq	r2, r0
 8002e62:	6823      	ldreq	r3, [r4, #0]
 8002e64:	3301      	addeq	r3, #1
 8002e66:	6023      	streq	r3, [r4, #0]
 8002e68:	6821      	ldr	r1, [r4, #0]
 8002e6a:	bf08      	it	eq
 8002e6c:	f04f 4280 	moveq.w	r2, #1073741824	; 0x40000000
 8002e70:	311f      	adds	r1, #31
 8002e72:	bfbe      	ittt	lt
 8002e74:	2300      	movlt	r3, #0
 8002e76:	2200      	movlt	r2, #0
 8002e78:	6023      	strlt	r3, [r4, #0]
 8002e7a:	602a      	str	r2, [r5, #0]
 8002e7c:	e7cf      	b.n	8002e1e <_ZN6tflite18QuantizeMultiplierEdPlPi+0x22>
 8002e7e:	bf00      	nop
 8002e80:	41e00000 	.word	0x41e00000

08002e84 <_ZZN6tflite12_GLOBAL__N_137CalculateActivationRangeQuantizedImplE21TfLiteFusedActivationllP12TfLiteTensorPlS4_ENKUlfE_clEf>:
 8002e84:	edd0 7a00 	vldr	s15, [r0]
 8002e88:	b510      	push	{r4, lr}
 8002e8a:	ee80 0a27 	vdiv.f32	s0, s0, s15
 8002e8e:	4604      	mov	r4, r0
 8002e90:	f002 fc98 	bl	80057c4 <roundf>
 8002e94:	6860      	ldr	r0, [r4, #4]
 8002e96:	eebd 0ac0 	vcvt.s32.f32	s0, s0
 8002e9a:	ee10 3a10 	vmov	r3, s0
 8002e9e:	4403      	add	r3, r0
 8002ea0:	4618      	mov	r0, r3
 8002ea2:	bd10      	pop	{r4, pc}

08002ea4 <_ZN6tflite8GetInputEPK13TfLiteContextPK10TfLiteNodei>:
 8002ea4:	6809      	ldr	r1, [r1, #0]
 8002ea6:	6883      	ldr	r3, [r0, #8]
 8002ea8:	eb01 0282 	add.w	r2, r1, r2, lsl #2
 8002eac:	b410      	push	{r4}
 8002eae:	6851      	ldr	r1, [r2, #4]
 8002eb0:	b123      	cbz	r3, 8002ebc <_ZN6tflite8GetInputEPK13TfLiteContextPK10TfLiteNodei+0x18>
 8002eb2:	eb03 1081 	add.w	r0, r3, r1, lsl #6
 8002eb6:	f85d 4b04 	ldr.w	r4, [sp], #4
 8002eba:	4770      	bx	lr
 8002ebc:	6d03      	ldr	r3, [r0, #80]	; 0x50
 8002ebe:	f85d 4b04 	ldr.w	r4, [sp], #4
 8002ec2:	4718      	bx	r3

08002ec4 <_ZN6tflite9GetOutputEP13TfLiteContextPK10TfLiteNodei>:
 8002ec4:	6849      	ldr	r1, [r1, #4]
 8002ec6:	6883      	ldr	r3, [r0, #8]
 8002ec8:	eb01 0282 	add.w	r2, r1, r2, lsl #2
 8002ecc:	b410      	push	{r4}
 8002ece:	6851      	ldr	r1, [r2, #4]
 8002ed0:	b123      	cbz	r3, 8002edc <_ZN6tflite9GetOutputEP13TfLiteContextPK10TfLiteNodei+0x18>
 8002ed2:	eb03 1081 	add.w	r0, r3, r1, lsl #6
 8002ed6:	f85d 4b04 	ldr.w	r4, [sp], #4
 8002eda:	4770      	bx	lr
 8002edc:	6d03      	ldr	r3, [r0, #80]	; 0x50
 8002ede:	f85d 4b04 	ldr.w	r4, [sp], #4
 8002ee2:	4718      	bx	r3

08002ee4 <_ZN6tflite22GetOptionalInputTensorEPK13TfLiteContextPK10TfLiteNodei>:
 8002ee4:	680b      	ldr	r3, [r1, #0]
 8002ee6:	6819      	ldr	r1, [r3, #0]
 8002ee8:	4291      	cmp	r1, r2
 8002eea:	b410      	push	{r4}
 8002eec:	dd0f      	ble.n	8002f0e <_ZN6tflite22GetOptionalInputTensorEPK13TfLiteContextPK10TfLiteNodei+0x2a>
 8002eee:	eb03 0282 	add.w	r2, r3, r2, lsl #2
 8002ef2:	6851      	ldr	r1, [r2, #4]
 8002ef4:	1c4b      	adds	r3, r1, #1
 8002ef6:	d00a      	beq.n	8002f0e <_ZN6tflite22GetOptionalInputTensorEPK13TfLiteContextPK10TfLiteNodei+0x2a>
 8002ef8:	6883      	ldr	r3, [r0, #8]
 8002efa:	b123      	cbz	r3, 8002f06 <_ZN6tflite22GetOptionalInputTensorEPK13TfLiteContextPK10TfLiteNodei+0x22>
 8002efc:	eb03 1081 	add.w	r0, r3, r1, lsl #6
 8002f00:	f85d 4b04 	ldr.w	r4, [sp], #4
 8002f04:	4770      	bx	lr
 8002f06:	6d03      	ldr	r3, [r0, #80]	; 0x50
 8002f08:	f85d 4b04 	ldr.w	r4, [sp], #4
 8002f0c:	4718      	bx	r3
 8002f0e:	2000      	movs	r0, #0
 8002f10:	e7f6      	b.n	8002f00 <_ZN6tflite22GetOptionalInputTensorEPK13TfLiteContextPK10TfLiteNodei+0x1c>
	...

08002f14 <_ZN6tflite32GetQuantizedConvolutionMultiplerEP13TfLiteContextPK12TfLiteTensorS4_PS2_Pd>:
 8002f14:	edd1 7a03 	vldr	s15, [r1, #12]
 8002f18:	ed92 7a03 	vldr	s14, [r2, #12]
 8002f1c:	ee67 7a87 	vmul.f32	s15, s15, s14
 8002f20:	b573      	push	{r0, r1, r4, r5, r6, lr}
 8002f22:	eef5 7ac0 	vcmpe.f32	s15, #0.0
 8002f26:	eef1 fa10 	vmrs	APSR_nzcv, fpscr
 8002f2a:	461e      	mov	r6, r3
 8002f2c:	da09      	bge.n	8002f42 <_ZN6tflite32GetQuantizedConvolutionMultiplerEP13TfLiteContextPK12TfLiteTensorS4_PS2_Pd+0x2e>
 8002f2e:	4b0f      	ldr	r3, [pc, #60]	; (8002f6c <_ZN6tflite32GetQuantizedConvolutionMultiplerEP13TfLiteContextPK12TfLiteTensorS4_PS2_Pd+0x58>)
 8002f30:	9300      	str	r3, [sp, #0]
 8002f32:	6944      	ldr	r4, [r0, #20]
 8002f34:	4a0e      	ldr	r2, [pc, #56]	; (8002f70 <_ZN6tflite32GetQuantizedConvolutionMultiplerEP13TfLiteContextPK12TfLiteTensorS4_PS2_Pd+0x5c>)
 8002f36:	490f      	ldr	r1, [pc, #60]	; (8002f74 <_ZN6tflite32GetQuantizedConvolutionMultiplerEP13TfLiteContextPK12TfLiteTensorS4_PS2_Pd+0x60>)
 8002f38:	23d2      	movs	r3, #210	; 0xd2
 8002f3a:	47a0      	blx	r4
 8002f3c:	2001      	movs	r0, #1
 8002f3e:	b002      	add	sp, #8
 8002f40:	bd70      	pop	{r4, r5, r6, pc}
 8002f42:	ee17 0a90 	vmov	r0, s15
 8002f46:	f7fd fb0f 	bl	8000568 <__aeabi_f2d>
 8002f4a:	4604      	mov	r4, r0
 8002f4c:	68f0      	ldr	r0, [r6, #12]
 8002f4e:	460d      	mov	r5, r1
 8002f50:	f7fd fb0a 	bl	8000568 <__aeabi_f2d>
 8002f54:	460b      	mov	r3, r1
 8002f56:	4602      	mov	r2, r0
 8002f58:	4629      	mov	r1, r5
 8002f5a:	4620      	mov	r0, r4
 8002f5c:	f7fd fc86 	bl	800086c <__aeabi_ddiv>
 8002f60:	9b06      	ldr	r3, [sp, #24]
 8002f62:	e9c3 0100 	strd	r0, r1, [r3]
 8002f66:	2000      	movs	r0, #0
 8002f68:	e7e9      	b.n	8002f3e <_ZN6tflite32GetQuantizedConvolutionMultiplerEP13TfLiteContextPK12TfLiteTensorS4_PS2_Pd+0x2a>
 8002f6a:	bf00      	nop
 8002f6c:	080091ee 	.word	0x080091ee
 8002f70:	080091b4 	.word	0x080091b4
 8002f74:	080089ba 	.word	0x080089ba

08002f78 <_ZN6tflite32GetQuantizedConvolutionMultiplerEP13TfLiteContextPK12TfLiteTensorS4_S4_PS2_Pd>:
 8002f78:	e92d 4ff7 	stmdb	sp!, {r0, r1, r2, r4, r5, r6, r7, r8, r9, sl, fp, lr}
 8002f7c:	4604      	mov	r4, r0
 8002f7e:	68c8      	ldr	r0, [r1, #12]
 8002f80:	4615      	mov	r5, r2
 8002f82:	461e      	mov	r6, r3
 8002f84:	468a      	mov	sl, r1
 8002f86:	f7fd faef 	bl	8000568 <__aeabi_f2d>
 8002f8a:	4680      	mov	r8, r0
 8002f8c:	68e8      	ldr	r0, [r5, #12]
 8002f8e:	4689      	mov	r9, r1
 8002f90:	f7fd faea 	bl	8000568 <__aeabi_f2d>
 8002f94:	4602      	mov	r2, r0
 8002f96:	460b      	mov	r3, r1
 8002f98:	4640      	mov	r0, r8
 8002f9a:	4649      	mov	r1, r9
 8002f9c:	f7fd fb3c 	bl	8000618 <__aeabi_dmul>
 8002fa0:	e9dd 7b0c 	ldrd	r7, fp, [sp, #48]	; 0x30
 8002fa4:	4680      	mov	r8, r0
 8002fa6:	4689      	mov	r9, r1
 8002fa8:	b1d6      	cbz	r6, 8002fe0 <_ZN6tflite32GetQuantizedConvolutionMultiplerEP13TfLiteContextPK12TfLiteTensorS4_S4_PS2_Pd+0x68>
 8002faa:	68f0      	ldr	r0, [r6, #12]
 8002fac:	f7fd fadc 	bl	8000568 <__aeabi_f2d>
 8002fb0:	4602      	mov	r2, r0
 8002fb2:	460b      	mov	r3, r1
 8002fb4:	4640      	mov	r0, r8
 8002fb6:	4649      	mov	r1, r9
 8002fb8:	f7fd f976 	bl	80002a8 <__aeabi_dsub>
 8002fbc:	4680      	mov	r8, r0
 8002fbe:	68f8      	ldr	r0, [r7, #12]
 8002fc0:	f021 4900 	bic.w	r9, r1, #2147483648	; 0x80000000
 8002fc4:	f7fd fad0 	bl	8000568 <__aeabi_f2d>
 8002fc8:	4602      	mov	r2, r0
 8002fca:	460b      	mov	r3, r1
 8002fcc:	4640      	mov	r0, r8
 8002fce:	4649      	mov	r1, r9
 8002fd0:	f7fd fc4c 	bl	800086c <__aeabi_ddiv>
 8002fd4:	a311      	add	r3, pc, #68	; (adr r3, 800301c <_ZN6tflite32GetQuantizedConvolutionMultiplerEP13TfLiteContextPK12TfLiteTensorS4_S4_PS2_Pd+0xa4>)
 8002fd6:	e9d3 2300 	ldrd	r2, r3, [r3]
 8002fda:	f7fd fd99 	bl	8000b10 <__aeabi_dcmple>
 8002fde:	b150      	cbz	r0, 8002ff6 <_ZN6tflite32GetQuantizedConvolutionMultiplerEP13TfLiteContextPK12TfLiteTensorS4_S4_PS2_Pd+0x7e>
 8002fe0:	463b      	mov	r3, r7
 8002fe2:	462a      	mov	r2, r5
 8002fe4:	4651      	mov	r1, sl
 8002fe6:	4620      	mov	r0, r4
 8002fe8:	f8cd b030 	str.w	fp, [sp, #48]	; 0x30
 8002fec:	b003      	add	sp, #12
 8002fee:	e8bd 4ff0 	ldmia.w	sp!, {r4, r5, r6, r7, r8, r9, sl, fp, lr}
 8002ff2:	f7ff bf8f 	b.w	8002f14 <_ZN6tflite32GetQuantizedConvolutionMultiplerEP13TfLiteContextPK12TfLiteTensorS4_PS2_Pd>
 8002ff6:	4b06      	ldr	r3, [pc, #24]	; (8003010 <_ZN6tflite32GetQuantizedConvolutionMultiplerEP13TfLiteContextPK12TfLiteTensorS4_S4_PS2_Pd+0x98>)
 8002ff8:	9300      	str	r3, [sp, #0]
 8002ffa:	4620      	mov	r0, r4
 8002ffc:	6965      	ldr	r5, [r4, #20]
 8002ffe:	4a05      	ldr	r2, [pc, #20]	; (8003014 <_ZN6tflite32GetQuantizedConvolutionMultiplerEP13TfLiteContextPK12TfLiteTensorS4_S4_PS2_Pd+0x9c>)
 8003000:	4905      	ldr	r1, [pc, #20]	; (8003018 <_ZN6tflite32GetQuantizedConvolutionMultiplerEP13TfLiteContextPK12TfLiteTensorS4_S4_PS2_Pd+0xa0>)
 8003002:	23c5      	movs	r3, #197	; 0xc5
 8003004:	47a8      	blx	r5
 8003006:	2001      	movs	r0, #1
 8003008:	b003      	add	sp, #12
 800300a:	e8bd 8ff0 	ldmia.w	sp!, {r4, r5, r6, r7, r8, r9, sl, fp, pc}
 800300e:	bf00      	nop
 8003010:	08009207 	.word	0x08009207
 8003014:	080091b4 	.word	0x080091b4
 8003018:	080089ba 	.word	0x080089ba
 800301c:	47ae147b 	.word	0x47ae147b
 8003020:	3f947ae1 	.word	0x3f947ae1

08003024 <_ZN6tflite33CalculateActivationRangeQuantizedEP13TfLiteContext21TfLiteFusedActivationP12TfLiteTensorPlS5_>:
 8003024:	b5f0      	push	{r4, r5, r6, r7, lr}
 8003026:	461d      	mov	r5, r3
 8003028:	7813      	ldrb	r3, [r2, #0]
 800302a:	b085      	sub	sp, #20
 800302c:	2b03      	cmp	r3, #3
 800302e:	9f0a      	ldr	r7, [sp, #40]	; 0x28
 8003030:	d00e      	beq.n	8003050 <_ZN6tflite33CalculateActivationRangeQuantizedEP13TfLiteContext21TfLiteFusedActivationP12TfLiteTensorPlS5_+0x2c>
 8003032:	2b09      	cmp	r3, #9
 8003034:	d01f      	beq.n	8003076 <_ZN6tflite33CalculateActivationRangeQuantizedEP13TfLiteContext21TfLiteFusedActivationP12TfLiteTensorPlS5_+0x52>
 8003036:	2b07      	cmp	r3, #7
 8003038:	d021      	beq.n	800307e <_ZN6tflite33CalculateActivationRangeQuantizedEP13TfLiteContext21TfLiteFusedActivationP12TfLiteTensorPlS5_+0x5a>
 800303a:	4b26      	ldr	r3, [pc, #152]	; (80030d4 <_ZN6tflite33CalculateActivationRangeQuantizedEP13TfLiteContext21TfLiteFusedActivationP12TfLiteTensorPlS5_+0xb0>)
 800303c:	9300      	str	r3, [sp, #0]
 800303e:	6944      	ldr	r4, [r0, #20]
 8003040:	4a25      	ldr	r2, [pc, #148]	; (80030d8 <_ZN6tflite33CalculateActivationRangeQuantizedEP13TfLiteContext21TfLiteFusedActivationP12TfLiteTensorPlS5_+0xb4>)
 8003042:	4926      	ldr	r1, [pc, #152]	; (80030dc <_ZN6tflite33CalculateActivationRangeQuantizedEP13TfLiteContext21TfLiteFusedActivationP12TfLiteTensorPlS5_+0xb8>)
 8003044:	f240 1305 	movw	r3, #261	; 0x105
 8003048:	47a0      	blx	r4
 800304a:	2001      	movs	r0, #1
 800304c:	b005      	add	sp, #20
 800304e:	bdf0      	pop	{r4, r5, r6, r7, pc}
 8003050:	24ff      	movs	r4, #255	; 0xff
 8003052:	2600      	movs	r6, #0
 8003054:	6913      	ldr	r3, [r2, #16]
 8003056:	68d2      	ldr	r2, [r2, #12]
 8003058:	9202      	str	r2, [sp, #8]
 800305a:	2901      	cmp	r1, #1
 800305c:	9303      	str	r3, [sp, #12]
 800305e:	d112      	bne.n	8003086 <_ZN6tflite33CalculateActivationRangeQuantizedEP13TfLiteContext21TfLiteFusedActivationP12TfLiteTensorPlS5_+0x62>
 8003060:	ed9f 0a1f 	vldr	s0, [pc, #124]	; 80030e0 <_ZN6tflite33CalculateActivationRangeQuantizedEP13TfLiteContext21TfLiteFusedActivationP12TfLiteTensorPlS5_+0xbc>
 8003064:	a802      	add	r0, sp, #8
 8003066:	f7ff ff0d 	bl	8002e84 <_ZZN6tflite12_GLOBAL__N_137CalculateActivationRangeQuantizedImplE21TfLiteFusedActivationllP12TfLiteTensorPlS4_ENKUlfE_clEf>
 800306a:	4286      	cmp	r6, r0
 800306c:	bfac      	ite	ge
 800306e:	602e      	strge	r6, [r5, #0]
 8003070:	6028      	strlt	r0, [r5, #0]
 8003072:	603c      	str	r4, [r7, #0]
 8003074:	e01b      	b.n	80030ae <_ZN6tflite33CalculateActivationRangeQuantizedEP13TfLiteContext21TfLiteFusedActivationP12TfLiteTensorPlS5_+0x8a>
 8003076:	247f      	movs	r4, #127	; 0x7f
 8003078:	f06f 067f 	mvn.w	r6, #127	; 0x7f
 800307c:	e7ea      	b.n	8003054 <_ZN6tflite33CalculateActivationRangeQuantizedEP13TfLiteContext21TfLiteFusedActivationP12TfLiteTensorPlS5_+0x30>
 800307e:	4e19      	ldr	r6, [pc, #100]	; (80030e4 <_ZN6tflite33CalculateActivationRangeQuantizedEP13TfLiteContext21TfLiteFusedActivationP12TfLiteTensorPlS5_+0xc0>)
 8003080:	f647 74ff 	movw	r4, #32767	; 0x7fff
 8003084:	e7e6      	b.n	8003054 <_ZN6tflite33CalculateActivationRangeQuantizedEP13TfLiteContext21TfLiteFusedActivationP12TfLiteTensorPlS5_+0x30>
 8003086:	2903      	cmp	r1, #3
 8003088:	d113      	bne.n	80030b2 <_ZN6tflite33CalculateActivationRangeQuantizedEP13TfLiteContext21TfLiteFusedActivationP12TfLiteTensorPlS5_+0x8e>
 800308a:	ed9f 0a15 	vldr	s0, [pc, #84]	; 80030e0 <_ZN6tflite33CalculateActivationRangeQuantizedEP13TfLiteContext21TfLiteFusedActivationP12TfLiteTensorPlS5_+0xbc>
 800308e:	a802      	add	r0, sp, #8
 8003090:	f7ff fef8 	bl	8002e84 <_ZZN6tflite12_GLOBAL__N_137CalculateActivationRangeQuantizedImplE21TfLiteFusedActivationllP12TfLiteTensorPlS4_ENKUlfE_clEf>
 8003094:	eeb1 0a08 	vmov.f32	s0, #24	; 0x40c00000  6.0
 8003098:	4286      	cmp	r6, r0
 800309a:	bfac      	ite	ge
 800309c:	602e      	strge	r6, [r5, #0]
 800309e:	6028      	strlt	r0, [r5, #0]
 80030a0:	a802      	add	r0, sp, #8
 80030a2:	f7ff feef 	bl	8002e84 <_ZZN6tflite12_GLOBAL__N_137CalculateActivationRangeQuantizedImplE21TfLiteFusedActivationllP12TfLiteTensorPlS4_ENKUlfE_clEf>
 80030a6:	4284      	cmp	r4, r0
 80030a8:	bfd4      	ite	le
 80030aa:	603c      	strle	r4, [r7, #0]
 80030ac:	6038      	strgt	r0, [r7, #0]
 80030ae:	2000      	movs	r0, #0
 80030b0:	e7cc      	b.n	800304c <_ZN6tflite33CalculateActivationRangeQuantizedEP13TfLiteContext21TfLiteFusedActivationP12TfLiteTensorPlS5_+0x28>
 80030b2:	2902      	cmp	r1, #2
 80030b4:	d10b      	bne.n	80030ce <_ZN6tflite33CalculateActivationRangeQuantizedEP13TfLiteContext21TfLiteFusedActivationP12TfLiteTensorPlS5_+0xaa>
 80030b6:	eebf 0a00 	vmov.f32	s0, #240	; 0xbf800000 -1.0
 80030ba:	a802      	add	r0, sp, #8
 80030bc:	f7ff fee2 	bl	8002e84 <_ZZN6tflite12_GLOBAL__N_137CalculateActivationRangeQuantizedImplE21TfLiteFusedActivationllP12TfLiteTensorPlS4_ENKUlfE_clEf>
 80030c0:	eeb7 0a00 	vmov.f32	s0, #112	; 0x3f800000  1.0
 80030c4:	4286      	cmp	r6, r0
 80030c6:	bfac      	ite	ge
 80030c8:	602e      	strge	r6, [r5, #0]
 80030ca:	6028      	strlt	r0, [r5, #0]
 80030cc:	e7e8      	b.n	80030a0 <_ZN6tflite33CalculateActivationRangeQuantizedEP13TfLiteContext21TfLiteFusedActivationP12TfLiteTensorPlS5_+0x7c>
 80030ce:	602e      	str	r6, [r5, #0]
 80030d0:	e7cf      	b.n	8003072 <_ZN6tflite33CalculateActivationRangeQuantizedEP13TfLiteContext21TfLiteFusedActivationP12TfLiteTensorPlS5_+0x4e>
 80030d2:	bf00      	nop
 80030d4:	08009229 	.word	0x08009229
 80030d8:	080091b4 	.word	0x080091b4
 80030dc:	080089ba 	.word	0x080089ba
 80030e0:	00000000 	.word	0x00000000
 80030e4:	ffff8000 	.word	0xffff8000

080030e8 <_ZN6tflite14AlignPointerUpEPhj>:
 80030e8:	1e4b      	subs	r3, r1, #1
 80030ea:	4403      	add	r3, r0
 80030ec:	fbb3 f3f1 	udiv	r3, r3, r1
 80030f0:	fb01 f003 	mul.w	r0, r1, r3
 80030f4:	4770      	bx	lr

080030f6 <_ZN6tflite16AlignPointerDownEPhj>:
 80030f6:	fbb0 f0f1 	udiv	r0, r0, r1
 80030fa:	4348      	muls	r0, r1
 80030fc:	4770      	bx	lr

080030fe <_ZN6tflite11AlignSizeUpEjj>:
 80030fe:	1e43      	subs	r3, r0, #1
 8003100:	440b      	add	r3, r1
 8003102:	fbb3 f3f1 	udiv	r3, r3, r1
 8003106:	fb01 f003 	mul.w	r0, r1, r3
 800310a:	4770      	bx	lr

0800310c <_ZN6tflite16TfLiteTypeSizeOfE10TfLiteTypePj>:
 800310c:	3801      	subs	r0, #1
 800310e:	280b      	cmp	r0, #11
 8003110:	d813      	bhi.n	800313a <_ZN6tflite16TfLiteTypeSizeOfE10TfLiteTypePj+0x2e>
 8003112:	e8df f000 	tbb	[pc, r0]
 8003116:	0606      	.short	0x0606
 8003118:	0c120e0c 	.word	0x0c120e0c
 800311c:	120c0e0a 	.word	0x120c0e0a
 8003120:	1012      	.short	0x1012
 8003122:	2304      	movs	r3, #4
 8003124:	600b      	str	r3, [r1, #0]
 8003126:	2000      	movs	r0, #0
 8003128:	4770      	bx	lr
 800312a:	2302      	movs	r3, #2
 800312c:	e7fa      	b.n	8003124 <_ZN6tflite16TfLiteTypeSizeOfE10TfLiteTypePj+0x18>
 800312e:	2301      	movs	r3, #1
 8003130:	e7f8      	b.n	8003124 <_ZN6tflite16TfLiteTypeSizeOfE10TfLiteTypePj+0x18>
 8003132:	2308      	movs	r3, #8
 8003134:	e7f6      	b.n	8003124 <_ZN6tflite16TfLiteTypeSizeOfE10TfLiteTypePj+0x18>
 8003136:	2310      	movs	r3, #16
 8003138:	e7f4      	b.n	8003124 <_ZN6tflite16TfLiteTypeSizeOfE10TfLiteTypePj+0x18>
 800313a:	2001      	movs	r0, #1
 800313c:	4770      	bx	lr

0800313e <_ZN6tflite22BytesRequiredForTensorERKNS_6TensorEPjS3_PNS_13ErrorReporterE>:
 800313e:	e92d 41f3 	stmdb	sp!, {r0, r1, r4, r5, r6, r7, r8, lr}
 8003142:	460e      	mov	r6, r1
 8003144:	6801      	ldr	r1, [r0, #0]
 8003146:	1a41      	subs	r1, r0, r1
 8003148:	4617      	mov	r7, r2
 800314a:	f8b1 c000 	ldrh.w	ip, [r1]
 800314e:	f1bc 0f04 	cmp.w	ip, #4
 8003152:	461a      	mov	r2, r3
 8003154:	d929      	bls.n	80031aa <_ZN6tflite22BytesRequiredForTensorERKNS_6TensorEPjS3_PNS_13ErrorReporterE+0x6c>
 8003156:	888b      	ldrh	r3, [r1, #4]
 8003158:	18c4      	adds	r4, r0, r3
 800315a:	b16b      	cbz	r3, 8003178 <_ZN6tflite22BytesRequiredForTensorERKNS_6TensorEPjS3_PNS_13ErrorReporterE+0x3a>
 800315c:	58c3      	ldr	r3, [r0, r3]
 800315e:	2501      	movs	r5, #1
 8003160:	f854 8003 	ldr.w	r8, [r4, r3]
 8003164:	441c      	add	r4, r3
 8003166:	2300      	movs	r3, #0
 8003168:	4543      	cmp	r3, r8
 800316a:	d006      	beq.n	800317a <_ZN6tflite22BytesRequiredForTensorERKNS_6TensorEPjS3_PNS_13ErrorReporterE+0x3c>
 800316c:	f854 ef04 	ldr.w	lr, [r4, #4]!
 8003170:	3301      	adds	r3, #1
 8003172:	fb0e f505 	mul.w	r5, lr, r5
 8003176:	e7f7      	b.n	8003168 <_ZN6tflite22BytesRequiredForTensorERKNS_6TensorEPjS3_PNS_13ErrorReporterE+0x2a>
 8003178:	2501      	movs	r5, #1
 800317a:	f1bc 0f06 	cmp.w	ip, #6
 800317e:	d915      	bls.n	80031ac <_ZN6tflite22BytesRequiredForTensorERKNS_6TensorEPjS3_PNS_13ErrorReporterE+0x6e>
 8003180:	88cc      	ldrh	r4, [r1, #6]
 8003182:	b104      	cbz	r4, 8003186 <_ZN6tflite22BytesRequiredForTensorERKNS_6TensorEPjS3_PNS_13ErrorReporterE+0x48>
 8003184:	5704      	ldrsb	r4, [r0, r4]
 8003186:	f10d 0107 	add.w	r1, sp, #7
 800318a:	b2e0      	uxtb	r0, r4
 800318c:	f7ff fd2e 	bl	8002bec <_ZN6tflite17ConvertTensorTypeENS_10TensorTypeEP10TfLiteTypePNS_13ErrorReporterE>
 8003190:	b940      	cbnz	r0, 80031a4 <_ZN6tflite22BytesRequiredForTensorERKNS_6TensorEPjS3_PNS_13ErrorReporterE+0x66>
 8003192:	f89d 0007 	ldrb.w	r0, [sp, #7]
 8003196:	4639      	mov	r1, r7
 8003198:	f7ff ffb8 	bl	800310c <_ZN6tflite16TfLiteTypeSizeOfE10TfLiteTypePj>
 800319c:	b910      	cbnz	r0, 80031a4 <_ZN6tflite22BytesRequiredForTensorERKNS_6TensorEPjS3_PNS_13ErrorReporterE+0x66>
 800319e:	683b      	ldr	r3, [r7, #0]
 80031a0:	435d      	muls	r5, r3
 80031a2:	6035      	str	r5, [r6, #0]
 80031a4:	b002      	add	sp, #8
 80031a6:	e8bd 81f0 	ldmia.w	sp!, {r4, r5, r6, r7, r8, pc}
 80031aa:	2501      	movs	r5, #1
 80031ac:	2400      	movs	r4, #0
 80031ae:	e7ea      	b.n	8003186 <_ZN6tflite22BytesRequiredForTensorERKNS_6TensorEPjS3_PNS_13ErrorReporterE+0x48>

080031b0 <_ZN6tflite26TfLiteEvalTensorByteLengthEPK16TfLiteEvalTensorPj>:
 80031b0:	b573      	push	{r0, r1, r4, r5, r6, lr}
 80031b2:	460c      	mov	r4, r1
 80031b4:	b909      	cbnz	r1, 80031ba <_ZN6tflite26TfLiteEvalTensorByteLengthEPK16TfLiteEvalTensorPj+0xa>
 80031b6:	f002 fb2b 	bl	8005810 <abort>
 80031ba:	6843      	ldr	r3, [r0, #4]
 80031bc:	b153      	cbz	r3, 80031d4 <_ZN6tflite26TfLiteEvalTensorByteLengthEPK16TfLiteEvalTensorPj+0x24>
 80031be:	f853 6b04 	ldr.w	r6, [r3], #4
 80031c2:	2100      	movs	r1, #0
 80031c4:	2201      	movs	r2, #1
 80031c6:	428e      	cmp	r6, r1
 80031c8:	dd05      	ble.n	80031d6 <_ZN6tflite26TfLiteEvalTensorByteLengthEPK16TfLiteEvalTensorPj+0x26>
 80031ca:	f853 5b04 	ldr.w	r5, [r3], #4
 80031ce:	3101      	adds	r1, #1
 80031d0:	436a      	muls	r2, r5
 80031d2:	e7f8      	b.n	80031c6 <_ZN6tflite26TfLiteEvalTensorByteLengthEPK16TfLiteEvalTensorPj+0x16>
 80031d4:	2201      	movs	r2, #1
 80031d6:	7a00      	ldrb	r0, [r0, #8]
 80031d8:	a901      	add	r1, sp, #4
 80031da:	f7ff ff97 	bl	800310c <_ZN6tflite16TfLiteTypeSizeOfE10TfLiteTypePj>
 80031de:	b910      	cbnz	r0, 80031e6 <_ZN6tflite26TfLiteEvalTensorByteLengthEPK16TfLiteEvalTensorPj+0x36>
 80031e0:	9b01      	ldr	r3, [sp, #4]
 80031e2:	435a      	muls	r2, r3
 80031e4:	6022      	str	r2, [r4, #0]
 80031e6:	b002      	add	sp, #8
 80031e8:	bd70      	pop	{r4, r5, r6, pc}

080031ea <_ZN6tflite12_GLOBAL__N_125MicroBuiltinDataAllocator8AllocateEjj>:
 80031ea:	6840      	ldr	r0, [r0, #4]
 80031ec:	6803      	ldr	r3, [r0, #0]
 80031ee:	68db      	ldr	r3, [r3, #12]
 80031f0:	4718      	bx	r3

080031f2 <_ZN6tflite12_GLOBAL__N_125MicroBuiltinDataAllocator10DeallocateEPv>:
 80031f2:	4770      	bx	lr

080031f4 <_ZN6tflite14MicroAllocatorD1Ev>:
 80031f4:	4770      	bx	lr

080031f6 <_ZN6tflite14MicroAllocator20ResetTempAllocationsEv>:
 80031f6:	6840      	ldr	r0, [r0, #4]
 80031f8:	6803      	ldr	r3, [r0, #0]
 80031fa:	695b      	ldr	r3, [r3, #20]
 80031fc:	4718      	bx	r3

080031fe <_ZN6tflite14MicroAllocator38AllocatePersistentTfLiteTensorInternalEPKNS_5ModelEP16TfLiteEvalTensori>:
 80031fe:	6840      	ldr	r0, [r0, #4]
 8003200:	6803      	ldr	r3, [r0, #0]
 8003202:	2204      	movs	r2, #4
 8003204:	68db      	ldr	r3, [r3, #12]
 8003206:	2140      	movs	r1, #64	; 0x40
 8003208:	4718      	bx	r3

0800320a <_ZN6tflite12_GLOBAL__N_125MicroBuiltinDataAllocatorD1Ev>:
 800320a:	4770      	bx	lr

0800320c <_ZN6tflite14MicroAllocatorD0Ev>:
 800320c:	b510      	push	{r4, lr}
 800320e:	2118      	movs	r1, #24
 8003210:	4604      	mov	r4, r0
 8003212:	f002 fa2b 	bl	800566c <_ZdlPvj>
 8003216:	4620      	mov	r0, r4
 8003218:	bd10      	pop	{r4, pc}

0800321a <_ZN6tflite12_GLOBAL__N_125MicroBuiltinDataAllocatorD0Ev>:
 800321a:	b510      	push	{r4, lr}
 800321c:	2108      	movs	r1, #8
 800321e:	4604      	mov	r4, r0
 8003220:	f002 fa24 	bl	800566c <_ZdlPvj>
 8003224:	4620      	mov	r0, r4
 8003226:	bd10      	pop	{r4, pc}

08003228 <_ZNK6tflite22QuantizationParameters5scaleEv>:
 8003228:	b510      	push	{r4, lr}
 800322a:	2108      	movs	r1, #8
 800322c:	4604      	mov	r4, r0
 800322e:	f7ff fccb 	bl	8002bc8 <_ZNK11flatbuffers5Table22GetOptionalFieldOffsetEt>
 8003232:	b110      	cbz	r0, 800323a <_ZNK6tflite22QuantizationParameters5scaleEv+0x12>
 8003234:	1823      	adds	r3, r4, r0
 8003236:	5820      	ldr	r0, [r4, r0]
 8003238:	4418      	add	r0, r3
 800323a:	bd10      	pop	{r4, pc}

0800323c <_ZNK6tflite22QuantizationParameters10zero_pointEv>:
 800323c:	b510      	push	{r4, lr}
 800323e:	210a      	movs	r1, #10
 8003240:	4604      	mov	r4, r0
 8003242:	f7ff fcc1 	bl	8002bc8 <_ZNK11flatbuffers5Table22GetOptionalFieldOffsetEt>
 8003246:	b110      	cbz	r0, 800324e <_ZNK6tflite22QuantizationParameters10zero_pointEv+0x12>
 8003248:	1823      	adds	r3, r4, r0
 800324a:	5820      	ldr	r0, [r4, r0]
 800324c:	4418      	add	r0, r3
 800324e:	bd10      	pop	{r4, pc}

08003250 <_ZNK6tflite6Tensor4typeEv>:
 8003250:	b510      	push	{r4, lr}
 8003252:	2106      	movs	r1, #6
 8003254:	4604      	mov	r4, r0
 8003256:	f7ff fcb7 	bl	8002bc8 <_ZNK11flatbuffers5Table22GetOptionalFieldOffsetEt>
 800325a:	b100      	cbz	r0, 800325e <_ZNK6tflite6Tensor4typeEv+0xe>
 800325c:	5620      	ldrsb	r0, [r4, r0]
 800325e:	b2c0      	uxtb	r0, r0
 8003260:	bd10      	pop	{r4, pc}

08003262 <_ZNK6tflite6Tensor11is_variableEv>:
 8003262:	b510      	push	{r4, lr}
 8003264:	210e      	movs	r1, #14
 8003266:	4604      	mov	r4, r0
 8003268:	f7ff fcae 	bl	8002bc8 <_ZNK11flatbuffers5Table22GetOptionalFieldOffsetEt>
 800326c:	b100      	cbz	r0, 8003270 <_ZNK6tflite6Tensor11is_variableEv+0xe>
 800326e:	5c20      	ldrb	r0, [r4, r0]
 8003270:	3800      	subs	r0, #0
 8003272:	bf18      	it	ne
 8003274:	2001      	movne	r0, #1
 8003276:	bd10      	pop	{r4, pc}

08003278 <_ZN6tflite14MicroAllocator6CreateEPNS_21SimpleMemoryAllocatorEPNS_13ErrorReporterE>:
 8003278:	b538      	push	{r3, r4, r5, lr}
 800327a:	460d      	mov	r5, r1
 800327c:	4604      	mov	r4, r0
 800327e:	b908      	cbnz	r0, 8003284 <_ZN6tflite14MicroAllocator6CreateEPNS_21SimpleMemoryAllocatorEPNS_13ErrorReporterE+0xc>
 8003280:	f002 fac6 	bl	8005810 <abort>
 8003284:	2900      	cmp	r1, #0
 8003286:	d0fb      	beq.n	8003280 <_ZN6tflite14MicroAllocator6CreateEPNS_21SimpleMemoryAllocatorEPNS_13ErrorReporterE+0x8>
 8003288:	6803      	ldr	r3, [r0, #0]
 800328a:	2204      	movs	r2, #4
 800328c:	68db      	ldr	r3, [r3, #12]
 800328e:	2118      	movs	r1, #24
 8003290:	4798      	blx	r3
 8003292:	4a04      	ldr	r2, [pc, #16]	; (80032a4 <_ZN6tflite14MicroAllocator6CreateEPNS_21SimpleMemoryAllocatorEPNS_13ErrorReporterE+0x2c>)
 8003294:	6085      	str	r5, [r0, #8]
 8003296:	e9c0 2400 	strd	r2, r4, [r0]
 800329a:	2200      	movs	r2, #0
 800329c:	e9c0 2204 	strd	r2, r2, [r0, #16]
 80032a0:	7302      	strb	r2, [r0, #12]
 80032a2:	bd38      	pop	{r3, r4, r5, pc}
 80032a4:	08009dd8 	.word	0x08009dd8

080032a8 <_ZN6tflite14MicroAllocator6CreateEPhjPNS_13ErrorReporterE>:
 80032a8:	b5f8      	push	{r3, r4, r5, r6, r7, lr}
 80032aa:	460f      	mov	r7, r1
 80032ac:	2110      	movs	r1, #16
 80032ae:	4604      	mov	r4, r0
 80032b0:	4616      	mov	r6, r2
 80032b2:	f7ff ff19 	bl	80030e8 <_ZN6tflite14AlignPointerUpEPhj>
 80032b6:	4284      	cmp	r4, r0
 80032b8:	4605      	mov	r5, r0
 80032ba:	d004      	beq.n	80032c6 <_ZN6tflite14MicroAllocator6CreateEPhjPNS_13ErrorReporterE+0x1e>
 80032bc:	1b02      	subs	r2, r0, r4
 80032be:	4907      	ldr	r1, [pc, #28]	; (80032dc <_ZN6tflite14MicroAllocator6CreateEPhjPNS_13ErrorReporterE+0x34>)
 80032c0:	4630      	mov	r0, r6
 80032c2:	f7ff fc57 	bl	8002b74 <_ZN6tflite13ErrorReporter6ReportEPKcz>
 80032c6:	19e2      	adds	r2, r4, r7
 80032c8:	4629      	mov	r1, r5
 80032ca:	1b52      	subs	r2, r2, r5
 80032cc:	4630      	mov	r0, r6
 80032ce:	f001 fb55 	bl	800497c <_ZN6tflite21SimpleMemoryAllocator6CreateEPNS_13ErrorReporterEPhj>
 80032d2:	4631      	mov	r1, r6
 80032d4:	e8bd 40f8 	ldmia.w	sp!, {r3, r4, r5, r6, r7, lr}
 80032d8:	f7ff bfce 	b.w	8003278 <_ZN6tflite14MicroAllocator6CreateEPNS_21SimpleMemoryAllocatorEPNS_13ErrorReporterE>
 80032dc:	0800922f 	.word	0x0800922f

080032e0 <_ZN6tflite14MicroAllocator20StartModelAllocationEPKNS_5ModelERKNS_15MicroOpResolverEPPNS_19NodeAndRegistrationEPP16TfLiteEvalTensor>:
 80032e0:	e92d 41f0 	stmdb	sp!, {r4, r5, r6, r7, r8, lr}
 80032e4:	4690      	mov	r8, r2
 80032e6:	4605      	mov	r5, r0
 80032e8:	9a06      	ldr	r2, [sp, #24]
 80032ea:	461f      	mov	r7, r3
 80032ec:	460e      	mov	r6, r1
 80032ee:	b909      	cbnz	r1, 80032f4 <_ZN6tflite14MicroAllocator20StartModelAllocationEPKNS_5ModelERKNS_15MicroOpResolverEPPNS_19NodeAndRegistrationEPP16TfLiteEvalTensor+0x14>
 80032f0:	f002 fa8e 	bl	8005810 <abort>
 80032f4:	7b03      	ldrb	r3, [r0, #12]
 80032f6:	2401      	movs	r4, #1
 80032f8:	b133      	cbz	r3, 8003308 <_ZN6tflite14MicroAllocator20StartModelAllocationEPKNS_5ModelERKNS_15MicroOpResolverEPPNS_19NodeAndRegistrationEPP16TfLiteEvalTensor+0x28>
 80032fa:	490f      	ldr	r1, [pc, #60]	; (8003338 <_ZN6tflite14MicroAllocator20StartModelAllocationEPKNS_5ModelERKNS_15MicroOpResolverEPPNS_19NodeAndRegistrationEPP16TfLiteEvalTensor+0x58>)
 80032fc:	6880      	ldr	r0, [r0, #8]
 80032fe:	f7ff fc39 	bl	8002b74 <_ZN6tflite13ErrorReporter6ReportEPKcz>
 8003302:	4620      	mov	r0, r4
 8003304:	e8bd 81f0 	ldmia.w	sp!, {r4, r5, r6, r7, r8, pc}
 8003308:	6803      	ldr	r3, [r0, #0]
 800330a:	7304      	strb	r4, [r0, #12]
 800330c:	69db      	ldr	r3, [r3, #28]
 800330e:	4798      	blx	r3
 8003310:	2800      	cmp	r0, #0
 8003312:	d1f7      	bne.n	8003304 <_ZN6tflite14MicroAllocator20StartModelAllocationEPKNS_5ModelERKNS_15MicroOpResolverEPPNS_19NodeAndRegistrationEPP16TfLiteEvalTensor+0x24>
 8003314:	682b      	ldr	r3, [r5, #0]
 8003316:	463a      	mov	r2, r7
 8003318:	695b      	ldr	r3, [r3, #20]
 800331a:	4631      	mov	r1, r6
 800331c:	4628      	mov	r0, r5
 800331e:	4798      	blx	r3
 8003320:	2800      	cmp	r0, #0
 8003322:	d1ef      	bne.n	8003304 <_ZN6tflite14MicroAllocator20StartModelAllocationEPKNS_5ModelERKNS_15MicroOpResolverEPPNS_19NodeAndRegistrationEPP16TfLiteEvalTensor+0x24>
 8003324:	682b      	ldr	r3, [r5, #0]
 8003326:	699c      	ldr	r4, [r3, #24]
 8003328:	683b      	ldr	r3, [r7, #0]
 800332a:	4642      	mov	r2, r8
 800332c:	4631      	mov	r1, r6
 800332e:	4628      	mov	r0, r5
 8003330:	46a4      	mov	ip, r4
 8003332:	e8bd 41f0 	ldmia.w	sp!, {r4, r5, r6, r7, r8, lr}
 8003336:	4760      	bx	ip
 8003338:	0800929a 	.word	0x0800929a

0800333c <_ZN6tflite14MicroAllocator24AllocatePersistentBufferEj>:
 800333c:	6840      	ldr	r0, [r0, #4]
 800333e:	6803      	ldr	r3, [r0, #0]
 8003340:	2210      	movs	r2, #16
 8003342:	68db      	ldr	r3, [r3, #12]
 8003344:	4718      	bx	r3
	...

08003348 <_ZN6tflite14MicroAllocator27RequestScratchBufferInArenaEijPi>:
 8003348:	e92d 41f0 	stmdb	sp!, {r4, r5, r6, r7, r8, lr}
 800334c:	6905      	ldr	r5, [r0, #16]
 800334e:	4604      	mov	r4, r0
 8003350:	460e      	mov	r6, r1
 8003352:	4690      	mov	r8, r2
 8003354:	461f      	mov	r7, r3
 8003356:	b15d      	cbz	r5, 8003370 <_ZN6tflite14MicroAllocator27RequestScratchBufferInArenaEijPi+0x28>
 8003358:	6840      	ldr	r0, [r0, #4]
 800335a:	f001 fb39 	bl	80049d0 <_ZNK6tflite21SimpleMemoryAllocator7GetTailEv>
 800335e:	4285      	cmp	r5, r0
 8003360:	d006      	beq.n	8003370 <_ZN6tflite14MicroAllocator27RequestScratchBufferInArenaEijPi+0x28>
 8003362:	4910      	ldr	r1, [pc, #64]	; (80033a4 <_ZN6tflite14MicroAllocator27RequestScratchBufferInArenaEijPi+0x5c>)
 8003364:	68a0      	ldr	r0, [r4, #8]
 8003366:	f7ff fc05 	bl	8002b74 <_ZN6tflite13ErrorReporter6ReportEPKcz>
 800336a:	2001      	movs	r0, #1
 800336c:	e8bd 81f0 	ldmia.w	sp!, {r4, r5, r6, r7, r8, pc}
 8003370:	6860      	ldr	r0, [r4, #4]
 8003372:	6803      	ldr	r3, [r0, #0]
 8003374:	2204      	movs	r2, #4
 8003376:	68db      	ldr	r3, [r3, #12]
 8003378:	210c      	movs	r1, #12
 800337a:	4798      	blx	r3
 800337c:	b928      	cbnz	r0, 800338a <_ZN6tflite14MicroAllocator27RequestScratchBufferInArenaEijPi+0x42>
 800337e:	490a      	ldr	r1, [pc, #40]	; (80033a8 <_ZN6tflite14MicroAllocator27RequestScratchBufferInArenaEijPi+0x60>)
 8003380:	68a0      	ldr	r0, [r4, #8]
 8003382:	4632      	mov	r2, r6
 8003384:	f7ff fbf6 	bl	8002b74 <_ZN6tflite13ErrorReporter6ReportEPKcz>
 8003388:	e7ef      	b.n	800336a <_ZN6tflite14MicroAllocator27RequestScratchBufferInArenaEijPi+0x22>
 800338a:	6963      	ldr	r3, [r4, #20]
 800338c:	6086      	str	r6, [r0, #8]
 800338e:	2500      	movs	r5, #0
 8003390:	e9c0 5800 	strd	r5, r8, [r0]
 8003394:	603b      	str	r3, [r7, #0]
 8003396:	6963      	ldr	r3, [r4, #20]
 8003398:	3301      	adds	r3, #1
 800339a:	e9c4 0304 	strd	r0, r3, [r4, #16]
 800339e:	4628      	mov	r0, r5
 80033a0:	e7e4      	b.n	800336c <_ZN6tflite14MicroAllocator27RequestScratchBufferInArenaEijPi+0x24>
 80033a2:	bf00      	nop
 80033a4:	080092ef 	.word	0x080092ef
 80033a8:	08009351 	.word	0x08009351

080033ac <_ZNK6tflite14MicroAllocator16GetScratchBufferEi>:
 80033ac:	b508      	push	{r3, lr}
 80033ae:	6943      	ldr	r3, [r0, #20]
 80033b0:	428b      	cmp	r3, r1
 80033b2:	460a      	mov	r2, r1
 80033b4:	d805      	bhi.n	80033c2 <_ZNK6tflite14MicroAllocator16GetScratchBufferEi+0x16>
 80033b6:	4907      	ldr	r1, [pc, #28]	; (80033d4 <_ZNK6tflite14MicroAllocator16GetScratchBufferEi+0x28>)
 80033b8:	6880      	ldr	r0, [r0, #8]
 80033ba:	f7ff fbdb 	bl	8002b74 <_ZN6tflite13ErrorReporter6ReportEPKcz>
 80033be:	2000      	movs	r0, #0
 80033c0:	bd08      	pop	{r3, pc}
 80033c2:	1a59      	subs	r1, r3, r1
 80033c4:	6903      	ldr	r3, [r0, #16]
 80033c6:	220c      	movs	r2, #12
 80033c8:	fb02 3101 	mla	r1, r2, r1, r3
 80033cc:	f851 0c0c 	ldr.w	r0, [r1, #-12]
 80033d0:	e7f6      	b.n	80033c0 <_ZNK6tflite14MicroAllocator16GetScratchBufferEi+0x14>
 80033d2:	bf00      	nop
 80033d4:	08009386 	.word	0x08009386

080033d8 <_ZN6tflite14MicroAllocator20GetSubGraphFromModelEPKNS_5ModelE>:
 80033d8:	b538      	push	{r3, r4, r5, lr}
 80033da:	460c      	mov	r4, r1
 80033dc:	4605      	mov	r5, r0
 80033de:	2108      	movs	r1, #8
 80033e0:	4620      	mov	r0, r4
 80033e2:	f7ff fbf1 	bl	8002bc8 <_ZNK11flatbuffers5Table22GetOptionalFieldOffsetEt>
 80033e6:	b178      	cbz	r0, 8003408 <_ZN6tflite14MicroAllocator20GetSubGraphFromModelEPKNS_5ModelE+0x30>
 80033e8:	5822      	ldr	r2, [r4, r0]
 80033ea:	1821      	adds	r1, r4, r0
 80033ec:	188b      	adds	r3, r1, r2
 80033ee:	588a      	ldr	r2, [r1, r2]
 80033f0:	2a01      	cmp	r2, #1
 80033f2:	d005      	beq.n	8003400 <_ZN6tflite14MicroAllocator20GetSubGraphFromModelEPKNS_5ModelE+0x28>
 80033f4:	4905      	ldr	r1, [pc, #20]	; (800340c <_ZN6tflite14MicroAllocator20GetSubGraphFromModelEPKNS_5ModelE+0x34>)
 80033f6:	68a8      	ldr	r0, [r5, #8]
 80033f8:	f7ff fbbc 	bl	8002b74 <_ZN6tflite13ErrorReporter6ReportEPKcz>
 80033fc:	2000      	movs	r0, #0
 80033fe:	bd38      	pop	{r3, r4, r5, pc}
 8003400:	1d18      	adds	r0, r3, #4
 8003402:	685b      	ldr	r3, [r3, #4]
 8003404:	4418      	add	r0, r3
 8003406:	e7fa      	b.n	80033fe <_ZN6tflite14MicroAllocator20GetSubGraphFromModelEPKNS_5ModelE+0x26>
 8003408:	6803      	ldr	r3, [r0, #0]
 800340a:	deff      	udf	#255	; 0xff
 800340c:	080093b1 	.word	0x080093b1

08003410 <_ZN6tflite14MicroAllocator21FinishModelAllocationEPKNS_5ModelEP16TfLiteEvalTensor>:
 8003410:	7b03      	ldrb	r3, [r0, #12]
 8003412:	e92d 41f0 	stmdb	sp!, {r4, r5, r6, r7, r8, lr}
 8003416:	4604      	mov	r4, r0
 8003418:	460f      	mov	r7, r1
 800341a:	4616      	mov	r6, r2
 800341c:	b933      	cbnz	r3, 800342c <_ZN6tflite14MicroAllocator21FinishModelAllocationEPKNS_5ModelEP16TfLiteEvalTensor+0x1c>
 800341e:	4910      	ldr	r1, [pc, #64]	; (8003460 <_ZN6tflite14MicroAllocator21FinishModelAllocationEPKNS_5ModelEP16TfLiteEvalTensor+0x50>)
 8003420:	6880      	ldr	r0, [r0, #8]
 8003422:	f7ff fba7 	bl	8002b74 <_ZN6tflite13ErrorReporter6ReportEPKcz>
 8003426:	2001      	movs	r0, #1
 8003428:	e8bd 81f0 	ldmia.w	sp!, {r4, r5, r6, r7, r8, pc}
 800342c:	f7ff ffd4 	bl	80033d8 <_ZN6tflite14MicroAllocator20GetSubGraphFromModelEPKNS_5ModelE>
 8003430:	4605      	mov	r5, r0
 8003432:	b908      	cbnz	r0, 8003438 <_ZN6tflite14MicroAllocator21FinishModelAllocationEPKNS_5ModelEP16TfLiteEvalTensor+0x28>
 8003434:	f002 f9ec 	bl	8005810 <abort>
 8003438:	6823      	ldr	r3, [r4, #0]
 800343a:	4602      	mov	r2, r0
 800343c:	f8d3 802c 	ldr.w	r8, [r3, #44]	; 0x2c
 8003440:	4639      	mov	r1, r7
 8003442:	4633      	mov	r3, r6
 8003444:	4620      	mov	r0, r4
 8003446:	47c0      	blx	r8
 8003448:	2800      	cmp	r0, #0
 800344a:	d1ed      	bne.n	8003428 <_ZN6tflite14MicroAllocator21FinishModelAllocationEPKNS_5ModelEP16TfLiteEvalTensor+0x18>
 800344c:	6823      	ldr	r3, [r4, #0]
 800344e:	4632      	mov	r2, r6
 8003450:	6a1b      	ldr	r3, [r3, #32]
 8003452:	4629      	mov	r1, r5
 8003454:	4620      	mov	r0, r4
 8003456:	4798      	blx	r3
 8003458:	2800      	cmp	r0, #0
 800345a:	d1e5      	bne.n	8003428 <_ZN6tflite14MicroAllocator21FinishModelAllocationEPKNS_5ModelEP16TfLiteEvalTensor+0x18>
 800345c:	7320      	strb	r0, [r4, #12]
 800345e:	e7e3      	b.n	8003428 <_ZN6tflite14MicroAllocator21FinishModelAllocationEPKNS_5ModelEP16TfLiteEvalTensor+0x18>
 8003460:	080093da 	.word	0x080093da

08003464 <_ZN6tflite14MicroAllocator30AllocatePersistentTfLiteTensorEPKNS_5ModelEP16TfLiteEvalTensori>:
 8003464:	e92d 4ff7 	stmdb	sp!, {r0, r1, r2, r4, r5, r6, r7, r8, r9, sl, fp, lr}
 8003468:	4604      	mov	r4, r0
 800346a:	4688      	mov	r8, r1
 800346c:	4616      	mov	r6, r2
 800346e:	461f      	mov	r7, r3
 8003470:	f7ff ffb2 	bl	80033d8 <_ZN6tflite14MicroAllocator20GetSubGraphFromModelEPKNS_5ModelE>
 8003474:	4681      	mov	r9, r0
 8003476:	b908      	cbnz	r0, 800347c <_ZN6tflite14MicroAllocator30AllocatePersistentTfLiteTensorEPKNS_5ModelEP16TfLiteEvalTensori+0x18>
 8003478:	f002 f9ca 	bl	8005810 <abort>
 800347c:	6823      	ldr	r3, [r4, #0]
 800347e:	4632      	mov	r2, r6
 8003480:	6a5d      	ldr	r5, [r3, #36]	; 0x24
 8003482:	4641      	mov	r1, r8
 8003484:	463b      	mov	r3, r7
 8003486:	4620      	mov	r0, r4
 8003488:	f04f 0a00 	mov.w	sl, #0
 800348c:	47a8      	blx	r5
 800348e:	e9cd 7a00 	strd	r7, sl, [sp]
 8003492:	6823      	ldr	r3, [r4, #0]
 8003494:	4605      	mov	r5, r0
 8003496:	f8d3 b028 	ldr.w	fp, [r3, #40]	; 0x28
 800349a:	464a      	mov	r2, r9
 800349c:	4603      	mov	r3, r0
 800349e:	4641      	mov	r1, r8
 80034a0:	4620      	mov	r0, r4
 80034a2:	47d8      	blx	fp
 80034a4:	b140      	cbz	r0, 80034b8 <_ZN6tflite14MicroAllocator30AllocatePersistentTfLiteTensorEPKNS_5ModelEP16TfLiteEvalTensori+0x54>
 80034a6:	4908      	ldr	r1, [pc, #32]	; (80034c8 <_ZN6tflite14MicroAllocator30AllocatePersistentTfLiteTensorEPKNS_5ModelEP16TfLiteEvalTensori+0x64>)
 80034a8:	68a0      	ldr	r0, [r4, #8]
 80034aa:	f7ff fb63 	bl	8002b74 <_ZN6tflite13ErrorReporter6ReportEPKcz>
 80034ae:	4655      	mov	r5, sl
 80034b0:	4628      	mov	r0, r5
 80034b2:	b003      	add	sp, #12
 80034b4:	e8bd 8ff0 	ldmia.w	sp!, {r4, r5, r6, r7, r8, r9, sl, fp, pc}
 80034b8:	2e00      	cmp	r6, #0
 80034ba:	d0f9      	beq.n	80034b0 <_ZN6tflite14MicroAllocator30AllocatePersistentTfLiteTensorEPKNS_5ModelEP16TfLiteEvalTensori+0x4c>
 80034bc:	230c      	movs	r3, #12
 80034be:	435f      	muls	r7, r3
 80034c0:	59f3      	ldr	r3, [r6, r7]
 80034c2:	606b      	str	r3, [r5, #4]
 80034c4:	e7f4      	b.n	80034b0 <_ZN6tflite14MicroAllocator30AllocatePersistentTfLiteTensorEPKNS_5ModelEP16TfLiteEvalTensori+0x4c>
 80034c6:	bf00      	nop
 80034c8:	08009425 	.word	0x08009425

080034cc <_ZN6tflite14MicroAllocator24AllocateTempTfLiteTensorEPKNS_5ModelEP16TfLiteEvalTensori>:
 80034cc:	e92d 47f3 	stmdb	sp!, {r0, r1, r4, r5, r6, r7, r8, r9, sl, lr}
 80034d0:	4605      	mov	r5, r0
 80034d2:	4689      	mov	r9, r1
 80034d4:	4616      	mov	r6, r2
 80034d6:	461f      	mov	r7, r3
 80034d8:	f7ff ff7e 	bl	80033d8 <_ZN6tflite14MicroAllocator20GetSubGraphFromModelEPKNS_5ModelE>
 80034dc:	4680      	mov	r8, r0
 80034de:	b908      	cbnz	r0, 80034e4 <_ZN6tflite14MicroAllocator24AllocateTempTfLiteTensorEPKNS_5ModelEP16TfLiteEvalTensori+0x18>
 80034e0:	f002 f996 	bl	8005810 <abort>
 80034e4:	6868      	ldr	r0, [r5, #4]
 80034e6:	6803      	ldr	r3, [r0, #0]
 80034e8:	2204      	movs	r2, #4
 80034ea:	691b      	ldr	r3, [r3, #16]
 80034ec:	2140      	movs	r1, #64	; 0x40
 80034ee:	4798      	blx	r3
 80034f0:	2201      	movs	r2, #1
 80034f2:	e9cd 7200 	strd	r7, r2, [sp]
 80034f6:	682b      	ldr	r3, [r5, #0]
 80034f8:	4604      	mov	r4, r0
 80034fa:	f8d3 a028 	ldr.w	sl, [r3, #40]	; 0x28
 80034fe:	4642      	mov	r2, r8
 8003500:	4603      	mov	r3, r0
 8003502:	4649      	mov	r1, r9
 8003504:	4628      	mov	r0, r5
 8003506:	47d0      	blx	sl
 8003508:	b140      	cbz	r0, 800351c <_ZN6tflite14MicroAllocator24AllocateTempTfLiteTensorEPKNS_5ModelEP16TfLiteEvalTensori+0x50>
 800350a:	4908      	ldr	r1, [pc, #32]	; (800352c <_ZN6tflite14MicroAllocator24AllocateTempTfLiteTensorEPKNS_5ModelEP16TfLiteEvalTensori+0x60>)
 800350c:	68a8      	ldr	r0, [r5, #8]
 800350e:	f7ff fb31 	bl	8002b74 <_ZN6tflite13ErrorReporter6ReportEPKcz>
 8003512:	2400      	movs	r4, #0
 8003514:	4620      	mov	r0, r4
 8003516:	b002      	add	sp, #8
 8003518:	e8bd 87f0 	ldmia.w	sp!, {r4, r5, r6, r7, r8, r9, sl, pc}
 800351c:	2e00      	cmp	r6, #0
 800351e:	d0f9      	beq.n	8003514 <_ZN6tflite14MicroAllocator24AllocateTempTfLiteTensorEPKNS_5ModelEP16TfLiteEvalTensori+0x48>
 8003520:	230c      	movs	r3, #12
 8003522:	435f      	muls	r7, r3
 8003524:	59f3      	ldr	r3, [r6, r7]
 8003526:	6063      	str	r3, [r4, #4]
 8003528:	e7f4      	b.n	8003514 <_ZN6tflite14MicroAllocator24AllocateTempTfLiteTensorEPKNS_5ModelEP16TfLiteEvalTensori+0x48>
 800352a:	bf00      	nop
 800352c:	0800946f 	.word	0x0800946f

08003530 <_ZNK11flatbuffers6VectorIxE3GetEm>:
 8003530:	b508      	push	{r3, lr}
 8003532:	6803      	ldr	r3, [r0, #0]
 8003534:	4299      	cmp	r1, r3
 8003536:	d306      	bcc.n	8003546 <_ZNK11flatbuffers6VectorIxE3GetEm+0x16>
 8003538:	4b05      	ldr	r3, [pc, #20]	; (8003550 <_ZNK11flatbuffers6VectorIxE3GetEm+0x20>)
 800353a:	4a06      	ldr	r2, [pc, #24]	; (8003554 <_ZNK11flatbuffers6VectorIxE3GetEm+0x24>)
 800353c:	4806      	ldr	r0, [pc, #24]	; (8003558 <_ZNK11flatbuffers6VectorIxE3GetEm+0x28>)
 800353e:	f240 1101 	movw	r1, #257	; 0x101
 8003542:	f002 f96d 	bl	8005820 <__assert_func>
 8003546:	eb00 01c1 	add.w	r1, r0, r1, lsl #3
 800354a:	e9d1 0101 	ldrd	r0, r1, [r1, #4]
 800354e:	bd08      	pop	{r3, pc}
 8003550:	080094b3 	.word	0x080094b3
 8003554:	080094be 	.word	0x080094be
 8003558:	08009596 	.word	0x08009596

0800355c <_ZNK11flatbuffers6VectorIlE3GetEm>:
 800355c:	b508      	push	{r3, lr}
 800355e:	6803      	ldr	r3, [r0, #0]
 8003560:	4299      	cmp	r1, r3
 8003562:	d306      	bcc.n	8003572 <_ZNK11flatbuffers6VectorIlE3GetEm+0x16>
 8003564:	4b05      	ldr	r3, [pc, #20]	; (800357c <_ZNK11flatbuffers6VectorIlE3GetEm+0x20>)
 8003566:	4a06      	ldr	r2, [pc, #24]	; (8003580 <_ZNK11flatbuffers6VectorIlE3GetEm+0x24>)
 8003568:	4806      	ldr	r0, [pc, #24]	; (8003584 <_ZNK11flatbuffers6VectorIlE3GetEm+0x28>)
 800356a:	f240 1101 	movw	r1, #257	; 0x101
 800356e:	f002 f957 	bl	8005820 <__assert_func>
 8003572:	eb00 0181 	add.w	r1, r0, r1, lsl #2
 8003576:	6848      	ldr	r0, [r1, #4]
 8003578:	bd08      	pop	{r3, pc}
 800357a:	bf00      	nop
 800357c:	080094b3 	.word	0x080094b3
 8003580:	0800962a 	.word	0x0800962a
 8003584:	08009596 	.word	0x08009596

08003588 <_ZNK11flatbuffers6VectorINS_6OffsetIN6tflite6TensorEEEE3GetEm>:
 8003588:	b508      	push	{r3, lr}
 800358a:	6803      	ldr	r3, [r0, #0]
 800358c:	4299      	cmp	r1, r3
 800358e:	d306      	bcc.n	800359e <_ZNK11flatbuffers6VectorINS_6OffsetIN6tflite6TensorEEEE3GetEm+0x16>
 8003590:	4b06      	ldr	r3, [pc, #24]	; (80035ac <_ZNK11flatbuffers6VectorINS_6OffsetIN6tflite6TensorEEEE3GetEm+0x24>)
 8003592:	4a07      	ldr	r2, [pc, #28]	; (80035b0 <_ZNK11flatbuffers6VectorINS_6OffsetIN6tflite6TensorEEEE3GetEm+0x28>)
 8003594:	4807      	ldr	r0, [pc, #28]	; (80035b4 <_ZNK11flatbuffers6VectorINS_6OffsetIN6tflite6TensorEEEE3GetEm+0x2c>)
 8003596:	f240 1101 	movw	r1, #257	; 0x101
 800359a:	f002 f941 	bl	8005820 <__assert_func>
 800359e:	3004      	adds	r0, #4
 80035a0:	eb00 0281 	add.w	r2, r0, r1, lsl #2
 80035a4:	f850 0021 	ldr.w	r0, [r0, r1, lsl #2]
 80035a8:	4410      	add	r0, r2
 80035aa:	bd08      	pop	{r3, pc}
 80035ac:	080094b3 	.word	0x080094b3
 80035b0:	080096f8 	.word	0x080096f8
 80035b4:	08009596 	.word	0x08009596

080035b8 <_ZNK11flatbuffers6VectorINS_6OffsetIN6tflite8OperatorEEEE3GetEm>:
 80035b8:	b508      	push	{r3, lr}
 80035ba:	6803      	ldr	r3, [r0, #0]
 80035bc:	4299      	cmp	r1, r3
 80035be:	d306      	bcc.n	80035ce <_ZNK11flatbuffers6VectorINS_6OffsetIN6tflite8OperatorEEEE3GetEm+0x16>
 80035c0:	4b06      	ldr	r3, [pc, #24]	; (80035dc <_ZNK11flatbuffers6VectorINS_6OffsetIN6tflite8OperatorEEEE3GetEm+0x24>)
 80035c2:	4a07      	ldr	r2, [pc, #28]	; (80035e0 <_ZNK11flatbuffers6VectorINS_6OffsetIN6tflite8OperatorEEEE3GetEm+0x28>)
 80035c4:	4807      	ldr	r0, [pc, #28]	; (80035e4 <_ZNK11flatbuffers6VectorINS_6OffsetIN6tflite8OperatorEEEE3GetEm+0x2c>)
 80035c6:	f240 1101 	movw	r1, #257	; 0x101
 80035ca:	f002 f929 	bl	8005820 <__assert_func>
 80035ce:	3004      	adds	r0, #4
 80035d0:	eb00 0281 	add.w	r2, r0, r1, lsl #2
 80035d4:	f850 0021 	ldr.w	r0, [r0, r1, lsl #2]
 80035d8:	4410      	add	r0, r2
 80035da:	bd08      	pop	{r3, pc}
 80035dc:	080094b3 	.word	0x080094b3
 80035e0:	080097ee 	.word	0x080097ee
 80035e4:	08009596 	.word	0x08009596

080035e8 <_ZNK11flatbuffers6VectorINS_6OffsetIN6tflite6BufferEEEE3GetEm>:
 80035e8:	b508      	push	{r3, lr}
 80035ea:	6803      	ldr	r3, [r0, #0]
 80035ec:	4299      	cmp	r1, r3
 80035ee:	d306      	bcc.n	80035fe <_ZNK11flatbuffers6VectorINS_6OffsetIN6tflite6BufferEEEE3GetEm+0x16>
 80035f0:	4b06      	ldr	r3, [pc, #24]	; (800360c <_ZNK11flatbuffers6VectorINS_6OffsetIN6tflite6BufferEEEE3GetEm+0x24>)
 80035f2:	4a07      	ldr	r2, [pc, #28]	; (8003610 <_ZNK11flatbuffers6VectorINS_6OffsetIN6tflite6BufferEEEE3GetEm+0x28>)
 80035f4:	4807      	ldr	r0, [pc, #28]	; (8003614 <_ZNK11flatbuffers6VectorINS_6OffsetIN6tflite6BufferEEEE3GetEm+0x2c>)
 80035f6:	f240 1101 	movw	r1, #257	; 0x101
 80035fa:	f002 f911 	bl	8005820 <__assert_func>
 80035fe:	3004      	adds	r0, #4
 8003600:	eb00 0281 	add.w	r2, r0, r1, lsl #2
 8003604:	f850 0021 	ldr.w	r0, [r0, r1, lsl #2]
 8003608:	4410      	add	r0, r2
 800360a:	bd08      	pop	{r3, pc}
 800360c:	080094b3 	.word	0x080094b3
 8003610:	080098e8 	.word	0x080098e8
 8003614:	08009596 	.word	0x08009596

08003618 <_ZN11flatbuffers5Table10GetPointerIPKNS_6VectorIhEEEET_t>:
 8003618:	b510      	push	{r4, lr}
 800361a:	4604      	mov	r4, r0
 800361c:	f7ff fad4 	bl	8002bc8 <_ZNK11flatbuffers5Table22GetOptionalFieldOffsetEt>
 8003620:	b110      	cbz	r0, 8003628 <_ZN11flatbuffers5Table10GetPointerIPKNS_6VectorIhEEEET_t+0x10>
 8003622:	1823      	adds	r3, r4, r0
 8003624:	5820      	ldr	r0, [r4, r0]
 8003626:	4418      	add	r0, r3
 8003628:	bd10      	pop	{r4, pc}

0800362a <_ZN6tflite8internal25GetFlatbufferTensorBufferERKNS_6TensorEPKN11flatbuffers6VectorINS4_6OffsetINS_6BufferEEEEE>:
 800362a:	b538      	push	{r3, r4, r5, lr}
 800362c:	460c      	mov	r4, r1
 800362e:	2108      	movs	r1, #8
 8003630:	4605      	mov	r5, r0
 8003632:	f7ff fac9 	bl	8002bc8 <_ZNK11flatbuffers5Table22GetOptionalFieldOffsetEt>
 8003636:	b178      	cbz	r0, 8003658 <_ZN6tflite8internal25GetFlatbufferTensorBufferERKNS_6TensorEPKN11flatbuffers6VectorINS4_6OffsetINS_6BufferEEEEE+0x2e>
 8003638:	5829      	ldr	r1, [r5, r0]
 800363a:	4620      	mov	r0, r4
 800363c:	f7ff ffd4 	bl	80035e8 <_ZNK11flatbuffers6VectorINS_6OffsetIN6tflite6BufferEEEE3GetEm>
 8003640:	4603      	mov	r3, r0
 8003642:	b138      	cbz	r0, 8003654 <_ZN6tflite8internal25GetFlatbufferTensorBufferERKNS_6TensorEPKN11flatbuffers6VectorINS4_6OffsetINS_6BufferEEEEE+0x2a>
 8003644:	2104      	movs	r1, #4
 8003646:	f7ff ffe7 	bl	8003618 <_ZN11flatbuffers5Table10GetPointerIPKNS_6VectorIhEEEET_t>
 800364a:	4603      	mov	r3, r0
 800364c:	b110      	cbz	r0, 8003654 <_ZN6tflite8internal25GetFlatbufferTensorBufferERKNS_6TensorEPKN11flatbuffers6VectorINS4_6OffsetINS_6BufferEEEEE+0x2a>
 800364e:	6802      	ldr	r2, [r0, #0]
 8003650:	b122      	cbz	r2, 800365c <_ZN6tflite8internal25GetFlatbufferTensorBufferERKNS_6TensorEPKN11flatbuffers6VectorINS4_6OffsetINS_6BufferEEEEE+0x32>
 8003652:	3304      	adds	r3, #4
 8003654:	4618      	mov	r0, r3
 8003656:	bd38      	pop	{r3, r4, r5, pc}
 8003658:	4601      	mov	r1, r0
 800365a:	e7ee      	b.n	800363a <_ZN6tflite8internal25GetFlatbufferTensorBufferERKNS_6TensorEPKN11flatbuffers6VectorINS4_6OffsetINS_6BufferEEEEE+0x10>
 800365c:	4613      	mov	r3, r2
 800365e:	e7f9      	b.n	8003654 <_ZN6tflite8internal25GetFlatbufferTensorBufferERKNS_6TensorEPKN11flatbuffers6VectorINS4_6OffsetINS_6BufferEEEEE+0x2a>

08003660 <_ZN11flatbuffers5Table10GetPointerIPKNS_6VectorIlEEEET_t>:
 8003660:	b510      	push	{r4, lr}
 8003662:	4604      	mov	r4, r0
 8003664:	f7ff fab0 	bl	8002bc8 <_ZNK11flatbuffers5Table22GetOptionalFieldOffsetEt>
 8003668:	b110      	cbz	r0, 8003670 <_ZN11flatbuffers5Table10GetPointerIPKNS_6VectorIlEEEET_t+0x10>
 800366a:	1823      	adds	r3, r4, r0
 800366c:	5820      	ldr	r0, [r4, r0]
 800366e:	4418      	add	r0, r3
 8003670:	bd10      	pop	{r4, pc}
	...

08003674 <_ZN6tflite8internal36InitializeTfLiteTensorFromFlatbufferEPNS_21SimpleMemoryAllocatorEbRKNS_6TensorEPKN11flatbuffers6VectorINS6_6OffsetINS_6BufferEEEEEPNS_13ErrorReporterEP12TfLiteTensor>:
 8003674:	e92d 4ff7 	stmdb	sp!, {r0, r1, r2, r4, r5, r6, r7, r8, r9, sl, fp, lr}
 8003678:	e9dd a40c 	ldrd	sl, r4, [sp, #48]	; 0x30
 800367c:	4683      	mov	fp, r0
 800367e:	460e      	mov	r6, r1
 8003680:	4615      	mov	r5, r2
 8003682:	4698      	mov	r8, r3
 8003684:	b90c      	cbnz	r4, 800368a <_ZN6tflite8internal36InitializeTfLiteTensorFromFlatbufferEPNS_21SimpleMemoryAllocatorEbRKNS_6TensorEPKN11flatbuffers6VectorINS6_6OffsetINS_6BufferEEEEEPNS_13ErrorReporterEP12TfLiteTensor+0x16>
 8003686:	f002 f8c3 	bl	8005810 <abort>
 800368a:	2240      	movs	r2, #64	; 0x40
 800368c:	2100      	movs	r1, #0
 800368e:	4620      	mov	r0, r4
 8003690:	f002 f962 	bl	8005958 <memset>
 8003694:	4628      	mov	r0, r5
 8003696:	f7ff fddb 	bl	8003250 <_ZNK6tflite6Tensor4typeEv>
 800369a:	4652      	mov	r2, sl
 800369c:	4621      	mov	r1, r4
 800369e:	f7ff faa5 	bl	8002bec <_ZN6tflite17ConvertTensorTypeENS_10TensorTypeEP10TfLiteTypePNS_13ErrorReporterE>
 80036a2:	4607      	mov	r7, r0
 80036a4:	2800      	cmp	r0, #0
 80036a6:	d153      	bne.n	8003750 <_ZN6tflite8internal36InitializeTfLiteTensorFromFlatbufferEPNS_21SimpleMemoryAllocatorEbRKNS_6TensorEPKN11flatbuffers6VectorINS6_6OffsetINS_6BufferEEEEEPNS_13ErrorReporterEP12TfLiteTensor+0xdc>
 80036a8:	4628      	mov	r0, r5
 80036aa:	f7ff fdda 	bl	8003262 <_ZNK6tflite6Tensor11is_variableEv>
 80036ae:	4641      	mov	r1, r8
 80036b0:	f884 002d 	strb.w	r0, [r4, #45]	; 0x2d
 80036b4:	4628      	mov	r0, r5
 80036b6:	f7ff ffb8 	bl	800362a <_ZN6tflite8internal25GetFlatbufferTensorBufferERKNS_6TensorEPKN11flatbuffers6VectorINS4_6OffsetINS_6BufferEEEEE>
 80036ba:	2800      	cmp	r0, #0
 80036bc:	bf0c      	ite	eq
 80036be:	2302      	moveq	r3, #2
 80036c0:	2301      	movne	r3, #1
 80036c2:	6060      	str	r0, [r4, #4]
 80036c4:	7523      	strb	r3, [r4, #20]
 80036c6:	aa01      	add	r2, sp, #4
 80036c8:	4653      	mov	r3, sl
 80036ca:	f104 0118 	add.w	r1, r4, #24
 80036ce:	4628      	mov	r0, r5
 80036d0:	f7ff fd35 	bl	800313e <_ZN6tflite22BytesRequiredForTensorERKNS_6TensorEPjS3_PNS_13ErrorReporterE>
 80036d4:	4607      	mov	r7, r0
 80036d6:	2800      	cmp	r0, #0
 80036d8:	d13a      	bne.n	8003750 <_ZN6tflite8internal36InitializeTfLiteTensorFromFlatbufferEPNS_21SimpleMemoryAllocatorEbRKNS_6TensorEPKN11flatbuffers6VectorINS6_6OffsetINS_6BufferEEEEEPNS_13ErrorReporterEP12TfLiteTensor+0xdc>
 80036da:	2104      	movs	r1, #4
 80036dc:	4628      	mov	r0, r5
 80036de:	f7ff ffbf 	bl	8003660 <_ZN11flatbuffers5Table10GetPointerIPKNS_6VectorIlEEEET_t>
 80036e2:	2800      	cmp	r0, #0
 80036e4:	d138      	bne.n	8003758 <_ZN6tflite8internal36InitializeTfLiteTensorFromFlatbufferEPNS_21SimpleMemoryAllocatorEbRKNS_6TensorEPKN11flatbuffers6VectorINS6_6OffsetINS_6BufferEEEEEPNS_13ErrorReporterEP12TfLiteTensor+0xe4>
 80036e6:	4b41      	ldr	r3, [pc, #260]	; (80037ec <_ZN6tflite8internal36InitializeTfLiteTensorFromFlatbufferEPNS_21SimpleMemoryAllocatorEbRKNS_6TensorEPKN11flatbuffers6VectorINS6_6OffsetINS_6BufferEEEEEPNS_13ErrorReporterEP12TfLiteTensor+0x178>)
 80036e8:	60a3      	str	r3, [r4, #8]
 80036ea:	210c      	movs	r1, #12
 80036ec:	4628      	mov	r0, r5
 80036ee:	f7ff fa6b 	bl	8002bc8 <_ZNK11flatbuffers5Table22GetOptionalFieldOffsetEt>
 80036f2:	b368      	cbz	r0, 8003750 <_ZN6tflite8internal36InitializeTfLiteTensorFromFlatbufferEPNS_21SimpleMemoryAllocatorEbRKNS_6TensorEPKN11flatbuffers6VectorINS6_6OffsetINS_6BufferEEEEEPNS_13ErrorReporterEP12TfLiteTensor+0xdc>
 80036f4:	582b      	ldr	r3, [r5, r0]
 80036f6:	eb05 0800 	add.w	r8, r5, r0
 80036fa:	4498      	add	r8, r3
 80036fc:	4640      	mov	r0, r8
 80036fe:	f7ff fd93 	bl	8003228 <_ZNK6tflite22QuantizationParameters5scaleEv>
 8003702:	4605      	mov	r5, r0
 8003704:	b320      	cbz	r0, 8003750 <_ZN6tflite8internal36InitializeTfLiteTensorFromFlatbufferEPNS_21SimpleMemoryAllocatorEbRKNS_6TensorEPKN11flatbuffers6VectorINS6_6OffsetINS_6BufferEEEEEPNS_13ErrorReporterEP12TfLiteTensor+0xdc>
 8003706:	6803      	ldr	r3, [r0, #0]
 8003708:	b313      	cbz	r3, 8003750 <_ZN6tflite8internal36InitializeTfLiteTensorFromFlatbufferEPNS_21SimpleMemoryAllocatorEbRKNS_6TensorEPKN11flatbuffers6VectorINS6_6OffsetINS_6BufferEEEEEPNS_13ErrorReporterEP12TfLiteTensor+0xdc>
 800370a:	4640      	mov	r0, r8
 800370c:	f7ff fd96 	bl	800323c <_ZNK6tflite22QuantizationParameters10zero_pointEv>
 8003710:	b1f0      	cbz	r0, 8003750 <_ZN6tflite8internal36InitializeTfLiteTensorFromFlatbufferEPNS_21SimpleMemoryAllocatorEbRKNS_6TensorEPKN11flatbuffers6VectorINS6_6OffsetINS_6BufferEEEEEPNS_13ErrorReporterEP12TfLiteTensor+0xdc>
 8003712:	6803      	ldr	r3, [r0, #0]
 8003714:	b1e3      	cbz	r3, 8003750 <_ZN6tflite8internal36InitializeTfLiteTensorFromFlatbufferEPNS_21SimpleMemoryAllocatorEbRKNS_6TensorEPKN11flatbuffers6VectorINS6_6OffsetINS_6BufferEEEEEPNS_13ErrorReporterEP12TfLiteTensor+0xdc>
 8003716:	686b      	ldr	r3, [r5, #4]
 8003718:	60e3      	str	r3, [r4, #12]
 800371a:	4640      	mov	r0, r8
 800371c:	f7ff fd8e 	bl	800323c <_ZNK6tflite22QuantizationParameters10zero_pointEv>
 8003720:	2100      	movs	r1, #0
 8003722:	f7ff ff05 	bl	8003530 <_ZNK11flatbuffers6VectorIxE3GetEm>
 8003726:	6120      	str	r0, [r4, #16]
 8003728:	4640      	mov	r0, r8
 800372a:	f7ff fd7d 	bl	8003228 <_ZNK6tflite22QuantizationParameters5scaleEv>
 800372e:	f8db 3000 	ldr.w	r3, [fp]
 8003732:	f8d0 9000 	ldr.w	r9, [r0]
 8003736:	b1a6      	cbz	r6, 8003762 <_ZN6tflite8internal36InitializeTfLiteTensorFromFlatbufferEPNS_21SimpleMemoryAllocatorEbRKNS_6TensorEPKN11flatbuffers6VectorINS6_6OffsetINS_6BufferEEEEEPNS_13ErrorReporterEP12TfLiteTensor+0xee>
 8003738:	691b      	ldr	r3, [r3, #16]
 800373a:	2204      	movs	r2, #4
 800373c:	210c      	movs	r1, #12
 800373e:	4658      	mov	r0, fp
 8003740:	4798      	blx	r3
 8003742:	4606      	mov	r6, r0
 8003744:	b9c8      	cbnz	r0, 800377a <_ZN6tflite8internal36InitializeTfLiteTensorFromFlatbufferEPNS_21SimpleMemoryAllocatorEbRKNS_6TensorEPKN11flatbuffers6VectorINS6_6OffsetINS_6BufferEEEEEPNS_13ErrorReporterEP12TfLiteTensor+0x106>
 8003746:	492a      	ldr	r1, [pc, #168]	; (80037f0 <_ZN6tflite8internal36InitializeTfLiteTensorFromFlatbufferEPNS_21SimpleMemoryAllocatorEbRKNS_6TensorEPKN11flatbuffers6VectorINS6_6OffsetINS_6BufferEEEEEPNS_13ErrorReporterEP12TfLiteTensor+0x17c>)
 8003748:	4650      	mov	r0, sl
 800374a:	f7ff fa13 	bl	8002b74 <_ZN6tflite13ErrorReporter6ReportEPKcz>
 800374e:	2701      	movs	r7, #1
 8003750:	4638      	mov	r0, r7
 8003752:	b003      	add	sp, #12
 8003754:	e8bd 8ff0 	ldmia.w	sp!, {r4, r5, r6, r7, r8, r9, sl, fp, pc}
 8003758:	f1ba 0f00 	cmp.w	sl, #0
 800375c:	d093      	beq.n	8003686 <_ZN6tflite8internal36InitializeTfLiteTensorFromFlatbufferEPNS_21SimpleMemoryAllocatorEbRKNS_6TensorEPKN11flatbuffers6VectorINS6_6OffsetINS_6BufferEEEEEPNS_13ErrorReporterEP12TfLiteTensor+0x12>
 800375e:	60a0      	str	r0, [r4, #8]
 8003760:	e7c3      	b.n	80036ea <_ZN6tflite8internal36InitializeTfLiteTensorFromFlatbufferEPNS_21SimpleMemoryAllocatorEbRKNS_6TensorEPKN11flatbuffers6VectorINS6_6OffsetINS_6BufferEEEEEPNS_13ErrorReporterEP12TfLiteTensor+0x76>
 8003762:	68db      	ldr	r3, [r3, #12]
 8003764:	2204      	movs	r2, #4
 8003766:	210c      	movs	r1, #12
 8003768:	4658      	mov	r0, fp
 800376a:	4798      	blx	r3
 800376c:	4606      	mov	r6, r0
 800376e:	2800      	cmp	r0, #0
 8003770:	d0e9      	beq.n	8003746 <_ZN6tflite8internal36InitializeTfLiteTensorFromFlatbufferEPNS_21SimpleMemoryAllocatorEbRKNS_6TensorEPKN11flatbuffers6VectorINS6_6OffsetINS_6BufferEEEEEPNS_13ErrorReporterEP12TfLiteTensor+0xd2>
 8003772:	f8db 3000 	ldr.w	r3, [fp]
 8003776:	68dd      	ldr	r5, [r3, #12]
 8003778:	e002      	b.n	8003780 <_ZN6tflite8internal36InitializeTfLiteTensorFromFlatbufferEPNS_21SimpleMemoryAllocatorEbRKNS_6TensorEPKN11flatbuffers6VectorINS6_6OffsetINS_6BufferEEEEEPNS_13ErrorReporterEP12TfLiteTensor+0x10c>
 800377a:	f8db 3000 	ldr.w	r3, [fp]
 800377e:	691d      	ldr	r5, [r3, #16]
 8003780:	4648      	mov	r0, r9
 8003782:	f7ff f9e8 	bl	8002b56 <TfLiteIntArrayGetSizeInBytes>
 8003786:	2204      	movs	r2, #4
 8003788:	4601      	mov	r1, r0
 800378a:	4658      	mov	r0, fp
 800378c:	47a8      	blx	r5
 800378e:	4605      	mov	r5, r0
 8003790:	6070      	str	r0, [r6, #4]
 8003792:	b908      	cbnz	r0, 8003798 <_ZN6tflite8internal36InitializeTfLiteTensorFromFlatbufferEPNS_21SimpleMemoryAllocatorEbRKNS_6TensorEPKN11flatbuffers6VectorINS6_6OffsetINS_6BufferEEEEEPNS_13ErrorReporterEP12TfLiteTensor+0x124>
 8003794:	4917      	ldr	r1, [pc, #92]	; (80037f4 <_ZN6tflite8internal36InitializeTfLiteTensorFromFlatbufferEPNS_21SimpleMemoryAllocatorEbRKNS_6TensorEPKN11flatbuffers6VectorINS6_6OffsetINS_6BufferEEEEEPNS_13ErrorReporterEP12TfLiteTensor+0x180>)
 8003796:	e7d7      	b.n	8003748 <_ZN6tflite8internal36InitializeTfLiteTensorFromFlatbufferEPNS_21SimpleMemoryAllocatorEbRKNS_6TensorEPKN11flatbuffers6VectorINS6_6OffsetINS_6BufferEEEEEPNS_13ErrorReporterEP12TfLiteTensor+0xd4>
 8003798:	4640      	mov	r0, r8
 800379a:	f7ff fd45 	bl	8003228 <_ZNK6tflite22QuantizationParameters5scaleEv>
 800379e:	f1ba 0f00 	cmp.w	sl, #0
 80037a2:	f43f af70 	beq.w	8003686 <_ZN6tflite8internal36InitializeTfLiteTensorFromFlatbufferEPNS_21SimpleMemoryAllocatorEbRKNS_6TensorEPKN11flatbuffers6VectorINS6_6OffsetINS_6BufferEEEEEPNS_13ErrorReporterEP12TfLiteTensor+0x12>
 80037a6:	2800      	cmp	r0, #0
 80037a8:	f43f af6d 	beq.w	8003686 <_ZN6tflite8internal36InitializeTfLiteTensorFromFlatbufferEPNS_21SimpleMemoryAllocatorEbRKNS_6TensorEPKN11flatbuffers6VectorINS6_6OffsetINS_6BufferEEEEEPNS_13ErrorReporterEP12TfLiteTensor+0x12>
 80037ac:	6030      	str	r0, [r6, #0]
 80037ae:	f04f 0a00 	mov.w	sl, #0
 80037b2:	f8c5 9000 	str.w	r9, [r5]
 80037b6:	45d1      	cmp	r9, sl
 80037b8:	dd0a      	ble.n	80037d0 <_ZN6tflite8internal36InitializeTfLiteTensorFromFlatbufferEPNS_21SimpleMemoryAllocatorEbRKNS_6TensorEPKN11flatbuffers6VectorINS6_6OffsetINS_6BufferEEEEEPNS_13ErrorReporterEP12TfLiteTensor+0x15c>
 80037ba:	4640      	mov	r0, r8
 80037bc:	f7ff fd3e 	bl	800323c <_ZNK6tflite22QuantizationParameters10zero_pointEv>
 80037c0:	4651      	mov	r1, sl
 80037c2:	f7ff feb5 	bl	8003530 <_ZNK11flatbuffers6VectorIxE3GetEm>
 80037c6:	f10a 0a01 	add.w	sl, sl, #1
 80037ca:	f845 0f04 	str.w	r0, [r5, #4]!
 80037ce:	e7f2      	b.n	80037b6 <_ZN6tflite8internal36InitializeTfLiteTensorFromFlatbufferEPNS_21SimpleMemoryAllocatorEbRKNS_6TensorEPKN11flatbuffers6VectorINS6_6OffsetINS_6BufferEEEEEPNS_13ErrorReporterEP12TfLiteTensor+0x142>
 80037d0:	2110      	movs	r1, #16
 80037d2:	4640      	mov	r0, r8
 80037d4:	f7ff f9f8 	bl	8002bc8 <_ZNK11flatbuffers5Table22GetOptionalFieldOffsetEt>
 80037d8:	b108      	cbz	r0, 80037de <_ZN6tflite8internal36InitializeTfLiteTensorFromFlatbufferEPNS_21SimpleMemoryAllocatorEbRKNS_6TensorEPKN11flatbuffers6VectorINS6_6OffsetINS_6BufferEEEEEPNS_13ErrorReporterEP12TfLiteTensor+0x16a>
 80037da:	f858 0000 	ldr.w	r0, [r8, r0]
 80037de:	60b0      	str	r0, [r6, #8]
 80037e0:	2301      	movs	r3, #1
 80037e2:	f884 3030 	strb.w	r3, [r4, #48]	; 0x30
 80037e6:	6366      	str	r6, [r4, #52]	; 0x34
 80037e8:	e7b2      	b.n	8003750 <_ZN6tflite8internal36InitializeTfLiteTensorFromFlatbufferEPNS_21SimpleMemoryAllocatorEbRKNS_6TensorEPKN11flatbuffers6VectorINS6_6OffsetINS_6BufferEEEEEPNS_13ErrorReporterEP12TfLiteTensor+0xdc>
 80037ea:	bf00      	nop
 80037ec:	08009d9c 	.word	0x08009d9c
 80037f0:	080099de 	.word	0x080099de
 80037f4:	08009a0c 	.word	0x08009a0c

080037f8 <_ZN6tflite8internal40InitializeTfLiteEvalTensorFromFlatbufferEPNS_21SimpleMemoryAllocatorERKNS_6TensorEPKN11flatbuffers6VectorINS6_6OffsetINS_6BufferEEEEEPNS_13ErrorReporterEP16TfLiteEvalTensor>:
 80037f8:	e92d 41f0 	stmdb	sp!, {r4, r5, r6, r7, r8, lr}
 80037fc:	9c06      	ldr	r4, [sp, #24]
 80037fe:	4626      	mov	r6, r4
 8003800:	461f      	mov	r7, r3
 8003802:	2300      	movs	r3, #0
 8003804:	e9c4 3300 	strd	r3, r3, [r4]
 8003808:	f846 3f08 	str.w	r3, [r6, #8]!
 800380c:	4608      	mov	r0, r1
 800380e:	460d      	mov	r5, r1
 8003810:	4690      	mov	r8, r2
 8003812:	f7ff fd1d 	bl	8003250 <_ZNK6tflite6Tensor4typeEv>
 8003816:	4631      	mov	r1, r6
 8003818:	463a      	mov	r2, r7
 800381a:	f7ff f9e7 	bl	8002bec <_ZN6tflite17ConvertTensorTypeENS_10TensorTypeEP10TfLiteTypePNS_13ErrorReporterE>
 800381e:	4606      	mov	r6, r0
 8003820:	b958      	cbnz	r0, 800383a <_ZN6tflite8internal40InitializeTfLiteEvalTensorFromFlatbufferEPNS_21SimpleMemoryAllocatorERKNS_6TensorEPKN11flatbuffers6VectorINS6_6OffsetINS_6BufferEEEEEPNS_13ErrorReporterEP16TfLiteEvalTensor+0x42>
 8003822:	4641      	mov	r1, r8
 8003824:	4628      	mov	r0, r5
 8003826:	f7ff ff00 	bl	800362a <_ZN6tflite8internal25GetFlatbufferTensorBufferERKNS_6TensorEPKN11flatbuffers6VectorINS4_6OffsetINS_6BufferEEEEE>
 800382a:	2104      	movs	r1, #4
 800382c:	6020      	str	r0, [r4, #0]
 800382e:	4628      	mov	r0, r5
 8003830:	f7ff ff16 	bl	8003660 <_ZN11flatbuffers5Table10GetPointerIPKNS_6VectorIlEEEET_t>
 8003834:	b920      	cbnz	r0, 8003840 <_ZN6tflite8internal40InitializeTfLiteEvalTensorFromFlatbufferEPNS_21SimpleMemoryAllocatorERKNS_6TensorEPKN11flatbuffers6VectorINS6_6OffsetINS_6BufferEEEEEPNS_13ErrorReporterEP16TfLiteEvalTensor+0x48>
 8003836:	4b05      	ldr	r3, [pc, #20]	; (800384c <_ZN6tflite8internal40InitializeTfLiteEvalTensorFromFlatbufferEPNS_21SimpleMemoryAllocatorERKNS_6TensorEPKN11flatbuffers6VectorINS6_6OffsetINS_6BufferEEEEEPNS_13ErrorReporterEP16TfLiteEvalTensor+0x54>)
 8003838:	6063      	str	r3, [r4, #4]
 800383a:	4630      	mov	r0, r6
 800383c:	e8bd 81f0 	ldmia.w	sp!, {r4, r5, r6, r7, r8, pc}
 8003840:	b90f      	cbnz	r7, 8003846 <_ZN6tflite8internal40InitializeTfLiteEvalTensorFromFlatbufferEPNS_21SimpleMemoryAllocatorERKNS_6TensorEPKN11flatbuffers6VectorINS6_6OffsetINS_6BufferEEEEEPNS_13ErrorReporterEP16TfLiteEvalTensor+0x4e>
 8003842:	f001 ffe5 	bl	8005810 <abort>
 8003846:	6060      	str	r0, [r4, #4]
 8003848:	e7f7      	b.n	800383a <_ZN6tflite8internal40InitializeTfLiteEvalTensorFromFlatbufferEPNS_21SimpleMemoryAllocatorERKNS_6TensorEPKN11flatbuffers6VectorINS6_6OffsetINS_6BufferEEEEEPNS_13ErrorReporterEP16TfLiteEvalTensor+0x42>
 800384a:	bf00      	nop
 800384c:	08009d9c 	.word	0x08009d9c

08003850 <_ZN11flatbuffers5Table10GetPointerIPKNS_6VectorINS_6OffsetIN6tflite6TensorEEEEEEET_t>:
 8003850:	b510      	push	{r4, lr}
 8003852:	4604      	mov	r4, r0
 8003854:	f7ff f9b8 	bl	8002bc8 <_ZNK11flatbuffers5Table22GetOptionalFieldOffsetEt>
 8003858:	b110      	cbz	r0, 8003860 <_ZN11flatbuffers5Table10GetPointerIPKNS_6VectorINS_6OffsetIN6tflite6TensorEEEEEEET_t+0x10>
 800385a:	1823      	adds	r3, r4, r0
 800385c:	5820      	ldr	r0, [r4, r0]
 800385e:	4418      	add	r0, r3
 8003860:	bd10      	pop	{r4, pc}
	...

08003864 <_ZN6tflite14MicroAllocator17AllocateVariablesEPKNS_8SubGraphEP16TfLiteEvalTensor>:
 8003864:	e92d 43f7 	stmdb	sp!, {r0, r1, r2, r4, r5, r6, r7, r8, r9, lr}
 8003868:	4605      	mov	r5, r0
 800386a:	460f      	mov	r7, r1
 800386c:	4616      	mov	r6, r2
 800386e:	2400      	movs	r4, #0
 8003870:	f04f 090c 	mov.w	r9, #12
 8003874:	2104      	movs	r1, #4
 8003876:	4638      	mov	r0, r7
 8003878:	f7ff ffea 	bl	8003850 <_ZN11flatbuffers5Table10GetPointerIPKNS_6VectorINS_6OffsetIN6tflite6TensorEEEEEEET_t>
 800387c:	6803      	ldr	r3, [r0, #0]
 800387e:	429c      	cmp	r4, r3
 8003880:	d221      	bcs.n	80038c6 <_ZN6tflite14MicroAllocator17AllocateVariablesEPKNS_8SubGraphEP16TfLiteEvalTensor+0x62>
 8003882:	4621      	mov	r1, r4
 8003884:	f7ff fe80 	bl	8003588 <_ZNK11flatbuffers6VectorINS_6OffsetIN6tflite6TensorEEEE3GetEm>
 8003888:	f7ff fceb 	bl	8003262 <_ZNK6tflite6Tensor11is_variableEv>
 800388c:	b1c8      	cbz	r0, 80038c2 <_ZN6tflite14MicroAllocator17AllocateVariablesEPKNS_8SubGraphEP16TfLiteEvalTensor+0x5e>
 800388e:	fb09 f804 	mul.w	r8, r9, r4
 8003892:	a901      	add	r1, sp, #4
 8003894:	eb06 0008 	add.w	r0, r6, r8
 8003898:	f7ff fc8a 	bl	80031b0 <_ZN6tflite26TfLiteEvalTensorByteLengthEPK16TfLiteEvalTensorPj>
 800389c:	b970      	cbnz	r0, 80038bc <_ZN6tflite14MicroAllocator17AllocateVariablesEPKNS_8SubGraphEP16TfLiteEvalTensor+0x58>
 800389e:	6868      	ldr	r0, [r5, #4]
 80038a0:	9901      	ldr	r1, [sp, #4]
 80038a2:	6803      	ldr	r3, [r0, #0]
 80038a4:	2210      	movs	r2, #16
 80038a6:	68db      	ldr	r3, [r3, #12]
 80038a8:	4798      	blx	r3
 80038aa:	f846 0008 	str.w	r0, [r6, r8]
 80038ae:	b940      	cbnz	r0, 80038c2 <_ZN6tflite14MicroAllocator17AllocateVariablesEPKNS_8SubGraphEP16TfLiteEvalTensor+0x5e>
 80038b0:	9a01      	ldr	r2, [sp, #4]
 80038b2:	4906      	ldr	r1, [pc, #24]	; (80038cc <_ZN6tflite14MicroAllocator17AllocateVariablesEPKNS_8SubGraphEP16TfLiteEvalTensor+0x68>)
 80038b4:	68a8      	ldr	r0, [r5, #8]
 80038b6:	f7ff f95d 	bl	8002b74 <_ZN6tflite13ErrorReporter6ReportEPKcz>
 80038ba:	2001      	movs	r0, #1
 80038bc:	b003      	add	sp, #12
 80038be:	e8bd 83f0 	ldmia.w	sp!, {r4, r5, r6, r7, r8, r9, pc}
 80038c2:	3401      	adds	r4, #1
 80038c4:	e7d6      	b.n	8003874 <_ZN6tflite14MicroAllocator17AllocateVariablesEPKNS_8SubGraphEP16TfLiteEvalTensor+0x10>
 80038c6:	2000      	movs	r0, #0
 80038c8:	e7f8      	b.n	80038bc <_ZN6tflite14MicroAllocator17AllocateVariablesEPKNS_8SubGraphEP16TfLiteEvalTensor+0x58>
 80038ca:	bf00      	nop
 80038cc:	08009a3a 	.word	0x08009a3a

080038d0 <_ZN11flatbuffers5Table10GetPointerIPKNS_6VectorINS_6OffsetIN6tflite8OperatorEEEEEEET_t>:
 80038d0:	b510      	push	{r4, lr}
 80038d2:	4604      	mov	r4, r0
 80038d4:	f7ff f978 	bl	8002bc8 <_ZNK11flatbuffers5Table22GetOptionalFieldOffsetEt>
 80038d8:	b110      	cbz	r0, 80038e0 <_ZN11flatbuffers5Table10GetPointerIPKNS_6VectorINS_6OffsetIN6tflite8OperatorEEEEEEET_t+0x10>
 80038da:	1823      	adds	r3, r4, r0
 80038dc:	5820      	ldr	r0, [r4, r0]
 80038de:	4418      	add	r0, r3
 80038e0:	bd10      	pop	{r4, pc}
	...

080038e4 <_ZN6tflite14MicroAllocator44PrepareNodeAndRegistrationDataFromFlatbufferEPKNS_5ModelERKNS_15MicroOpResolverEPNS_19NodeAndRegistrationE>:
 80038e4:	e92d 4ff0 	stmdb	sp!, {r4, r5, r6, r7, r8, r9, sl, fp, lr}
 80038e8:	ed2d 8b02 	vpush	{d8}
 80038ec:	4605      	mov	r5, r0
 80038ee:	b087      	sub	sp, #28
 80038f0:	4690      	mov	r8, r2
 80038f2:	461c      	mov	r4, r3
 80038f4:	460e      	mov	r6, r1
 80038f6:	b909      	cbnz	r1, 80038fc <_ZN6tflite14MicroAllocator44PrepareNodeAndRegistrationDataFromFlatbufferEPKNS_5ModelERKNS_15MicroOpResolverEPNS_19NodeAndRegistrationE+0x18>
 80038f8:	f001 ff8a 	bl	8005810 <abort>
 80038fc:	2b00      	cmp	r3, #0
 80038fe:	d0fb      	beq.n	80038f8 <_ZN6tflite14MicroAllocator44PrepareNodeAndRegistrationDataFromFlatbufferEPKNS_5ModelERKNS_15MicroOpResolverEPNS_19NodeAndRegistrationE+0x14>
 8003900:	f7ff fd6a 	bl	80033d8 <_ZN6tflite14MicroAllocator20GetSubGraphFromModelEPKNS_5ModelE>
 8003904:	9001      	str	r0, [sp, #4]
 8003906:	2800      	cmp	r0, #0
 8003908:	d0f6      	beq.n	80038f8 <_ZN6tflite14MicroAllocator44PrepareNodeAndRegistrationDataFromFlatbufferEPKNS_5ModelERKNS_15MicroOpResolverEPNS_19NodeAndRegistrationE+0x14>
 800390a:	2106      	movs	r1, #6
 800390c:	4630      	mov	r0, r6
 800390e:	f7ff f95b 	bl	8002bc8 <_ZNK11flatbuffers5Table22GetOptionalFieldOffsetEt>
 8003912:	b330      	cbz	r0, 8003962 <_ZN6tflite14MicroAllocator44PrepareNodeAndRegistrationDataFromFlatbufferEPKNS_5ModelERKNS_15MicroOpResolverEPNS_19NodeAndRegistrationE+0x7e>
 8003914:	1833      	adds	r3, r6, r0
 8003916:	5830      	ldr	r0, [r6, r0]
 8003918:	4403      	add	r3, r0
 800391a:	9300      	str	r3, [sp, #0]
 800391c:	686b      	ldr	r3, [r5, #4]
 800391e:	4a5e      	ldr	r2, [pc, #376]	; (8003a98 <_ZN6tflite14MicroAllocator44PrepareNodeAndRegistrationDataFromFlatbufferEPKNS_5ModelERKNS_15MicroOpResolverEPNS_19NodeAndRegistrationE+0x1b4>)
 8003920:	e9cd 2304 	strd	r2, r3, [sp, #16]
 8003924:	f04f 0b00 	mov.w	fp, #0
 8003928:	9801      	ldr	r0, [sp, #4]
 800392a:	210a      	movs	r1, #10
 800392c:	f7ff ffd0 	bl	80038d0 <_ZN11flatbuffers5Table10GetPointerIPKNS_6VectorINS_6OffsetIN6tflite8OperatorEEEEEEET_t>
 8003930:	6803      	ldr	r3, [r0, #0]
 8003932:	459b      	cmp	fp, r3
 8003934:	f080 80ac 	bcs.w	8003a90 <_ZN6tflite14MicroAllocator44PrepareNodeAndRegistrationDataFromFlatbufferEPKNS_5ModelERKNS_15MicroOpResolverEPNS_19NodeAndRegistrationE+0x1ac>
 8003938:	4659      	mov	r1, fp
 800393a:	f7ff fe3d 	bl	80035b8 <_ZNK11flatbuffers6VectorINS_6OffsetIN6tflite8OperatorEEEE3GetEm>
 800393e:	2104      	movs	r1, #4
 8003940:	4607      	mov	r7, r0
 8003942:	f7ff f941 	bl	8002bc8 <_ZNK11flatbuffers5Table22GetOptionalFieldOffsetEt>
 8003946:	b170      	cbz	r0, 8003966 <_ZN6tflite14MicroAllocator44PrepareNodeAndRegistrationDataFromFlatbufferEPKNS_5ModelERKNS_15MicroOpResolverEPNS_19NodeAndRegistrationE+0x82>
 8003948:	583e      	ldr	r6, [r7, r0]
 800394a:	9b00      	ldr	r3, [sp, #0]
 800394c:	68a8      	ldr	r0, [r5, #8]
 800394e:	681b      	ldr	r3, [r3, #0]
 8003950:	42b3      	cmp	r3, r6
 8003952:	d80a      	bhi.n	800396a <_ZN6tflite14MicroAllocator44PrepareNodeAndRegistrationDataFromFlatbufferEPKNS_5ModelERKNS_15MicroOpResolverEPNS_19NodeAndRegistrationE+0x86>
 8003954:	4951      	ldr	r1, [pc, #324]	; (8003a9c <_ZN6tflite14MicroAllocator44PrepareNodeAndRegistrationDataFromFlatbufferEPKNS_5ModelERKNS_15MicroOpResolverEPNS_19NodeAndRegistrationE+0x1b8>)
 8003956:	4632      	mov	r2, r6
 8003958:	f7ff f90c 	bl	8002b74 <_ZN6tflite13ErrorReporter6ReportEPKcz>
 800395c:	f04f 0a01 	mov.w	sl, #1
 8003960:	e028      	b.n	80039b4 <_ZN6tflite14MicroAllocator44PrepareNodeAndRegistrationDataFromFlatbufferEPKNS_5ModelERKNS_15MicroOpResolverEPNS_19NodeAndRegistrationE+0xd0>
 8003962:	9000      	str	r0, [sp, #0]
 8003964:	e7da      	b.n	800391c <_ZN6tflite14MicroAllocator44PrepareNodeAndRegistrationDataFromFlatbufferEPKNS_5ModelERKNS_15MicroOpResolverEPNS_19NodeAndRegistrationE+0x38>
 8003966:	4606      	mov	r6, r0
 8003968:	e7ef      	b.n	800394a <_ZN6tflite14MicroAllocator44PrepareNodeAndRegistrationDataFromFlatbufferEPKNS_5ModelERKNS_15MicroOpResolverEPNS_19NodeAndRegistrationE+0x66>
 800396a:	9b00      	ldr	r3, [sp, #0]
 800396c:	3304      	adds	r3, #4
 800396e:	eb03 0986 	add.w	r9, r3, r6, lsl #2
 8003972:	f853 3026 	ldr.w	r3, [r3, r6, lsl #2]
 8003976:	4499      	add	r9, r3
 8003978:	4602      	mov	r2, r0
 800397a:	f104 0324 	add.w	r3, r4, #36	; 0x24
 800397e:	4641      	mov	r1, r8
 8003980:	4648      	mov	r0, r9
 8003982:	f7ff f9e3 	bl	8002d4c <_ZN6tflite25GetRegistrationFromOpCodeEPKNS_12OperatorCodeERKNS_10OpResolverEPNS_13ErrorReporterEPPK18TfLiteRegistration>
 8003986:	ee08 4a10 	vmov	s16, r4
 800398a:	4682      	mov	sl, r0
 800398c:	b1c0      	cbz	r0, 80039c0 <_ZN6tflite14MicroAllocator44PrepareNodeAndRegistrationDataFromFlatbufferEPKNS_5ModelERKNS_15MicroOpResolverEPNS_19NodeAndRegistrationE+0xdc>
 800398e:	2104      	movs	r1, #4
 8003990:	4648      	mov	r0, r9
 8003992:	68ac      	ldr	r4, [r5, #8]
 8003994:	f7ff f918 	bl	8002bc8 <_ZNK11flatbuffers5Table22GetOptionalFieldOffsetEt>
 8003998:	b108      	cbz	r0, 800399e <_ZN6tflite14MicroAllocator44PrepareNodeAndRegistrationDataFromFlatbufferEPKNS_5ModelERKNS_15MicroOpResolverEPNS_19NodeAndRegistrationE+0xba>
 800399a:	f919 0000 	ldrsb.w	r0, [r9, r0]
 800399e:	4940      	ldr	r1, [pc, #256]	; (8003aa0 <_ZN6tflite14MicroAllocator44PrepareNodeAndRegistrationDataFromFlatbufferEPKNS_5ModelERKNS_15MicroOpResolverEPNS_19NodeAndRegistrationE+0x1bc>)
 80039a0:	b2c0      	uxtb	r0, r0
 80039a2:	287e      	cmp	r0, #126	; 0x7e
 80039a4:	bf96      	itet	ls
 80039a6:	4b3f      	ldrls	r3, [pc, #252]	; (8003aa4 <_ZN6tflite14MicroAllocator44PrepareNodeAndRegistrationDataFromFlatbufferEPKNS_5ModelERKNS_15MicroOpResolverEPNS_19NodeAndRegistrationE+0x1c0>)
 80039a8:	4a3f      	ldrhi	r2, [pc, #252]	; (8003aa8 <_ZN6tflite14MicroAllocator44PrepareNodeAndRegistrationDataFromFlatbufferEPKNS_5ModelERKNS_15MicroOpResolverEPNS_19NodeAndRegistrationE+0x1c4>)
 80039aa:	f853 2020 	ldrls.w	r2, [r3, r0, lsl #2]
 80039ae:	4620      	mov	r0, r4
 80039b0:	f7ff f8e0 	bl	8002b74 <_ZN6tflite13ErrorReporter6ReportEPKcz>
 80039b4:	4650      	mov	r0, sl
 80039b6:	b007      	add	sp, #28
 80039b8:	ecbd 8b02 	vpop	{d8}
 80039bc:	e8bd 8ff0 	ldmia.w	sp!, {r4, r5, r6, r7, r8, r9, sl, fp, pc}
 80039c0:	6a63      	ldr	r3, [r4, #36]	; 0x24
 80039c2:	b91b      	cbnz	r3, 80039cc <_ZN6tflite14MicroAllocator44PrepareNodeAndRegistrationDataFromFlatbufferEPKNS_5ModelERKNS_15MicroOpResolverEPNS_19NodeAndRegistrationE+0xe8>
 80039c4:	4939      	ldr	r1, [pc, #228]	; (8003aac <_ZN6tflite14MicroAllocator44PrepareNodeAndRegistrationDataFromFlatbufferEPKNS_5ModelERKNS_15MicroOpResolverEPNS_19NodeAndRegistrationE+0x1c8>)
 80039c6:	68a8      	ldr	r0, [r5, #8]
 80039c8:	4632      	mov	r2, r6
 80039ca:	e7c5      	b.n	8003958 <_ZN6tflite14MicroAllocator44PrepareNodeAndRegistrationDataFromFlatbufferEPKNS_5ModelERKNS_15MicroOpResolverEPNS_19NodeAndRegistrationE+0x74>
 80039cc:	f893 9014 	ldrb.w	r9, [r3, #20]
 80039d0:	9003      	str	r0, [sp, #12]
 80039d2:	f1b9 0f20 	cmp.w	r9, #32
 80039d6:	f04f 010e 	mov.w	r1, #14
 80039da:	4638      	mov	r0, r7
 80039dc:	d12e      	bne.n	8003a3c <_ZN6tflite14MicroAllocator44PrepareNodeAndRegistrationDataFromFlatbufferEPKNS_5ModelERKNS_15MicroOpResolverEPNS_19NodeAndRegistrationE+0x158>
 80039de:	f7ff fe1b 	bl	8003618 <_ZN11flatbuffers5Table10GetPointerIPKNS_6VectorIhEEEET_t>
 80039e2:	bb38      	cbnz	r0, 8003a34 <_ZN6tflite14MicroAllocator44PrepareNodeAndRegistrationDataFromFlatbufferEPKNS_5ModelERKNS_15MicroOpResolverEPNS_19NodeAndRegistrationE+0x150>
 80039e4:	f04f 0a00 	mov.w	sl, #0
 80039e8:	4656      	mov	r6, sl
 80039ea:	2106      	movs	r1, #6
 80039ec:	4638      	mov	r0, r7
 80039ee:	f7ff fe37 	bl	8003660 <_ZN11flatbuffers5Table10GetPointerIPKNS_6VectorIlEEEET_t>
 80039f2:	68ab      	ldr	r3, [r5, #8]
 80039f4:	4681      	mov	r9, r0
 80039f6:	2b00      	cmp	r3, #0
 80039f8:	f43f af7e 	beq.w	80038f8 <_ZN6tflite14MicroAllocator44PrepareNodeAndRegistrationDataFromFlatbufferEPKNS_5ModelERKNS_15MicroOpResolverEPNS_19NodeAndRegistrationE+0x14>
 80039fc:	2800      	cmp	r0, #0
 80039fe:	f43f af7b 	beq.w	80038f8 <_ZN6tflite14MicroAllocator44PrepareNodeAndRegistrationDataFromFlatbufferEPKNS_5ModelERKNS_15MicroOpResolverEPNS_19NodeAndRegistrationE+0x14>
 8003a02:	4638      	mov	r0, r7
 8003a04:	2108      	movs	r1, #8
 8003a06:	f7ff fe2b 	bl	8003660 <_ZN11flatbuffers5Table10GetPointerIPKNS_6VectorIlEEEET_t>
 8003a0a:	3428      	adds	r4, #40	; 0x28
 8003a0c:	4607      	mov	r7, r0
 8003a0e:	2800      	cmp	r0, #0
 8003a10:	f43f af72 	beq.w	80038f8 <_ZN6tflite14MicroAllocator44PrepareNodeAndRegistrationDataFromFlatbufferEPKNS_5ModelERKNS_15MicroOpResolverEPNS_19NodeAndRegistrationE+0x14>
 8003a14:	ee18 0a10 	vmov	r0, s16
 8003a18:	2224      	movs	r2, #36	; 0x24
 8003a1a:	2100      	movs	r1, #0
 8003a1c:	f001 ff9c 	bl	8005958 <memset>
 8003a20:	9b03      	ldr	r3, [sp, #12]
 8003a22:	f844 ac0c 	str.w	sl, [r4, #-12]
 8003a26:	e944 970a 	strd	r9, r7, [r4, #-40]	; 0x28
 8003a2a:	e944 3605 	strd	r3, r6, [r4, #-20]
 8003a2e:	f10b 0b01 	add.w	fp, fp, #1
 8003a32:	e779      	b.n	8003928 <_ZN6tflite14MicroAllocator44PrepareNodeAndRegistrationDataFromFlatbufferEPKNS_5ModelERKNS_15MicroOpResolverEPNS_19NodeAndRegistrationE+0x44>
 8003a34:	4606      	mov	r6, r0
 8003a36:	f856 ab04 	ldr.w	sl, [r6], #4
 8003a3a:	e7d6      	b.n	80039ea <_ZN6tflite14MicroAllocator44PrepareNodeAndRegistrationDataFromFlatbufferEPKNS_5ModelERKNS_15MicroOpResolverEPNS_19NodeAndRegistrationE+0x106>
 8003a3c:	f7ff fdec 	bl	8003618 <_ZN11flatbuffers5Table10GetPointerIPKNS_6VectorIhEEEET_t>
 8003a40:	b150      	cbz	r0, 8003a58 <_ZN6tflite14MicroAllocator44PrepareNodeAndRegistrationDataFromFlatbufferEPKNS_5ModelERKNS_15MicroOpResolverEPNS_19NodeAndRegistrationE+0x174>
 8003a42:	f1b9 0f7e 	cmp.w	r9, #126	; 0x7e
 8003a46:	bf98      	it	ls
 8003a48:	4b16      	ldrls	r3, [pc, #88]	; (8003aa4 <_ZN6tflite14MicroAllocator44PrepareNodeAndRegistrationDataFromFlatbufferEPKNS_5ModelERKNS_15MicroOpResolverEPNS_19NodeAndRegistrationE+0x1c0>)
 8003a4a:	68a8      	ldr	r0, [r5, #8]
 8003a4c:	bf94      	ite	ls
 8003a4e:	f853 2029 	ldrls.w	r2, [r3, r9, lsl #2]
 8003a52:	4a15      	ldrhi	r2, [pc, #84]	; (8003aa8 <_ZN6tflite14MicroAllocator44PrepareNodeAndRegistrationDataFromFlatbufferEPKNS_5ModelERKNS_15MicroOpResolverEPNS_19NodeAndRegistrationE+0x1c4>)
 8003a54:	4916      	ldr	r1, [pc, #88]	; (8003ab0 <_ZN6tflite14MicroAllocator44PrepareNodeAndRegistrationDataFromFlatbufferEPKNS_5ModelERKNS_15MicroOpResolverEPNS_19NodeAndRegistrationE+0x1cc>)
 8003a56:	e77f      	b.n	8003958 <_ZN6tflite14MicroAllocator44PrepareNodeAndRegistrationDataFromFlatbufferEPKNS_5ModelERKNS_15MicroOpResolverEPNS_19NodeAndRegistrationE+0x74>
 8003a58:	f8d8 3000 	ldr.w	r3, [r8]
 8003a5c:	4649      	mov	r1, r9
 8003a5e:	699b      	ldr	r3, [r3, #24]
 8003a60:	4640      	mov	r0, r8
 8003a62:	4798      	blx	r3
 8003a64:	4606      	mov	r6, r0
 8003a66:	b950      	cbnz	r0, 8003a7e <_ZN6tflite14MicroAllocator44PrepareNodeAndRegistrationDataFromFlatbufferEPKNS_5ModelERKNS_15MicroOpResolverEPNS_19NodeAndRegistrationE+0x19a>
 8003a68:	f1b9 0f7e 	cmp.w	r9, #126	; 0x7e
 8003a6c:	bf98      	it	ls
 8003a6e:	4b0d      	ldrls	r3, [pc, #52]	; (8003aa4 <_ZN6tflite14MicroAllocator44PrepareNodeAndRegistrationDataFromFlatbufferEPKNS_5ModelERKNS_15MicroOpResolverEPNS_19NodeAndRegistrationE+0x1c0>)
 8003a70:	68a8      	ldr	r0, [r5, #8]
 8003a72:	bf94      	ite	ls
 8003a74:	f853 2029 	ldrls.w	r2, [r3, r9, lsl #2]
 8003a78:	4a0b      	ldrhi	r2, [pc, #44]	; (8003aa8 <_ZN6tflite14MicroAllocator44PrepareNodeAndRegistrationDataFromFlatbufferEPKNS_5ModelERKNS_15MicroOpResolverEPNS_19NodeAndRegistrationE+0x1c4>)
 8003a7a:	490e      	ldr	r1, [pc, #56]	; (8003ab4 <_ZN6tflite14MicroAllocator44PrepareNodeAndRegistrationDataFromFlatbufferEPKNS_5ModelERKNS_15MicroOpResolverEPNS_19NodeAndRegistrationE+0x1d0>)
 8003a7c:	e76c      	b.n	8003958 <_ZN6tflite14MicroAllocator44PrepareNodeAndRegistrationDataFromFlatbufferEPKNS_5ModelERKNS_15MicroOpResolverEPNS_19NodeAndRegistrationE+0x74>
 8003a7e:	68a9      	ldr	r1, [r5, #8]
 8003a80:	ab03      	add	r3, sp, #12
 8003a82:	aa04      	add	r2, sp, #16
 8003a84:	4638      	mov	r0, r7
 8003a86:	47b0      	blx	r6
 8003a88:	4682      	mov	sl, r0
 8003a8a:	2800      	cmp	r0, #0
 8003a8c:	d0aa      	beq.n	80039e4 <_ZN6tflite14MicroAllocator44PrepareNodeAndRegistrationDataFromFlatbufferEPKNS_5ModelERKNS_15MicroOpResolverEPNS_19NodeAndRegistrationE+0x100>
 8003a8e:	e791      	b.n	80039b4 <_ZN6tflite14MicroAllocator44PrepareNodeAndRegistrationDataFromFlatbufferEPKNS_5ModelERKNS_15MicroOpResolverEPNS_19NodeAndRegistrationE+0xd0>
 8003a90:	f04f 0a00 	mov.w	sl, #0
 8003a94:	e78e      	b.n	80039b4 <_ZN6tflite14MicroAllocator44PrepareNodeAndRegistrationDataFromFlatbufferEPKNS_5ModelERKNS_15MicroOpResolverEPNS_19NodeAndRegistrationE+0xd0>
 8003a96:	bf00      	nop
 8003a98:	08009dc0 	.word	0x08009dc0
 8003a9c:	08009a68 	.word	0x08009a68
 8003aa0:	08009a92 	.word	0x08009a92
 8003aa4:	08008fb4 	.word	0x08008fb4
 8003aa8:	08008835 	.word	0x08008835
 8003aac:	08009abf 	.word	0x08009abf
 8003ab0:	08009ae0 	.word	0x08009ae0
 8003ab4:	08009b26 	.word	0x08009b26

08003ab8 <_ZN6tflite14MicroAllocator28AllocateNodeAndRegistrationsEPKNS_5ModelEPPNS_19NodeAndRegistrationE>:
 8003ab8:	b570      	push	{r4, r5, r6, lr}
 8003aba:	4605      	mov	r5, r0
 8003abc:	4614      	mov	r4, r2
 8003abe:	b90a      	cbnz	r2, 8003ac4 <_ZN6tflite14MicroAllocator28AllocateNodeAndRegistrationsEPKNS_5ModelEPPNS_19NodeAndRegistrationE+0xc>
 8003ac0:	f001 fea6 	bl	8005810 <abort>
 8003ac4:	f7ff fc88 	bl	80033d8 <_ZN6tflite14MicroAllocator20GetSubGraphFromModelEPKNS_5ModelE>
 8003ac8:	2800      	cmp	r0, #0
 8003aca:	d0f9      	beq.n	8003ac0 <_ZN6tflite14MicroAllocator28AllocateNodeAndRegistrationsEPKNS_5ModelEPPNS_19NodeAndRegistrationE+0x8>
 8003acc:	210a      	movs	r1, #10
 8003ace:	f7ff feff 	bl	80038d0 <_ZN11flatbuffers5Table10GetPointerIPKNS_6VectorINS_6OffsetIN6tflite8OperatorEEEEEEET_t>
 8003ad2:	686e      	ldr	r6, [r5, #4]
 8003ad4:	6801      	ldr	r1, [r0, #0]
 8003ad6:	6833      	ldr	r3, [r6, #0]
 8003ad8:	2028      	movs	r0, #40	; 0x28
 8003ada:	4341      	muls	r1, r0
 8003adc:	68db      	ldr	r3, [r3, #12]
 8003ade:	2204      	movs	r2, #4
 8003ae0:	4630      	mov	r0, r6
 8003ae2:	4798      	blx	r3
 8003ae4:	b928      	cbnz	r0, 8003af2 <_ZN6tflite14MicroAllocator28AllocateNodeAndRegistrationsEPKNS_5ModelEPPNS_19NodeAndRegistrationE+0x3a>
 8003ae6:	4904      	ldr	r1, [pc, #16]	; (8003af8 <_ZN6tflite14MicroAllocator28AllocateNodeAndRegistrationsEPKNS_5ModelEPPNS_19NodeAndRegistrationE+0x40>)
 8003ae8:	68a8      	ldr	r0, [r5, #8]
 8003aea:	f7ff f843 	bl	8002b74 <_ZN6tflite13ErrorReporter6ReportEPKcz>
 8003aee:	2001      	movs	r0, #1
 8003af0:	bd70      	pop	{r4, r5, r6, pc}
 8003af2:	6020      	str	r0, [r4, #0]
 8003af4:	2000      	movs	r0, #0
 8003af6:	e7fb      	b.n	8003af0 <_ZN6tflite14MicroAllocator28AllocateNodeAndRegistrationsEPKNS_5ModelEPPNS_19NodeAndRegistrationE+0x38>
 8003af8:	08009b43 	.word	0x08009b43

08003afc <_ZN11flatbuffers5Table10GetPointerIPKNS_6VectorINS_6OffsetIN6tflite6BufferEEEEEEET_t>:
 8003afc:	b510      	push	{r4, lr}
 8003afe:	4604      	mov	r4, r0
 8003b00:	f7ff f862 	bl	8002bc8 <_ZNK11flatbuffers5Table22GetOptionalFieldOffsetEt>
 8003b04:	b110      	cbz	r0, 8003b0c <_ZN11flatbuffers5Table10GetPointerIPKNS_6VectorINS_6OffsetIN6tflite6BufferEEEEEEET_t+0x10>
 8003b06:	1823      	adds	r3, r4, r0
 8003b08:	5820      	ldr	r0, [r4, r0]
 8003b0a:	4418      	add	r0, r3
 8003b0c:	bd10      	pop	{r4, pc}

08003b0e <_ZN6tflite14MicroAllocator34PopulateTfLiteTensorFromFlatbufferEPKNS_5ModelEPKNS_8SubGraphEP12TfLiteTensorib>:
 8003b0e:	b5f7      	push	{r0, r1, r2, r4, r5, r6, r7, lr}
 8003b10:	4604      	mov	r4, r0
 8003b12:	460e      	mov	r6, r1
 8003b14:	4610      	mov	r0, r2
 8003b16:	2104      	movs	r1, #4
 8003b18:	461d      	mov	r5, r3
 8003b1a:	f7ff fe99 	bl	8003850 <_ZN11flatbuffers5Table10GetPointerIPKNS_6VectorINS_6OffsetIN6tflite6TensorEEEEEEET_t>
 8003b1e:	9908      	ldr	r1, [sp, #32]
 8003b20:	f89d 7024 	ldrb.w	r7, [sp, #36]	; 0x24
 8003b24:	f7ff fd30 	bl	8003588 <_ZNK11flatbuffers6VectorINS_6OffsetIN6tflite6TensorEEEE3GetEm>
 8003b28:	210c      	movs	r1, #12
 8003b2a:	9001      	str	r0, [sp, #4]
 8003b2c:	4630      	mov	r0, r6
 8003b2e:	f7ff ffe5 	bl	8003afc <_ZN11flatbuffers5Table10GetPointerIPKNS_6VectorINS_6OffsetIN6tflite6BufferEEEEEEET_t>
 8003b32:	68a1      	ldr	r1, [r4, #8]
 8003b34:	9a01      	ldr	r2, [sp, #4]
 8003b36:	9108      	str	r1, [sp, #32]
 8003b38:	4603      	mov	r3, r0
 8003b3a:	6860      	ldr	r0, [r4, #4]
 8003b3c:	9509      	str	r5, [sp, #36]	; 0x24
 8003b3e:	4639      	mov	r1, r7
 8003b40:	b003      	add	sp, #12
 8003b42:	e8bd 40f0 	ldmia.w	sp!, {r4, r5, r6, r7, lr}
 8003b46:	f7ff bd95 	b.w	8003674 <_ZN6tflite8internal36InitializeTfLiteTensorFromFlatbufferEPNS_21SimpleMemoryAllocatorEbRKNS_6TensorEPKN11flatbuffers6VectorINS6_6OffsetINS_6BufferEEEEEPNS_13ErrorReporterEP12TfLiteTensor>
	...

08003b4c <_ZN6tflite14MicroAllocator25AllocateTfLiteEvalTensorsEPKNS_5ModelEPP16TfLiteEvalTensor>:
 8003b4c:	e92d 4ff0 	stmdb	sp!, {r4, r5, r6, r7, r8, r9, sl, fp, lr}
 8003b50:	4604      	mov	r4, r0
 8003b52:	b085      	sub	sp, #20
 8003b54:	4689      	mov	r9, r1
 8003b56:	4617      	mov	r7, r2
 8003b58:	b90a      	cbnz	r2, 8003b5e <_ZN6tflite14MicroAllocator25AllocateTfLiteEvalTensorsEPKNS_5ModelEPP16TfLiteEvalTensor+0x12>
 8003b5a:	f001 fe59 	bl	8005810 <abort>
 8003b5e:	f7ff fc3b 	bl	80033d8 <_ZN6tflite14MicroAllocator20GetSubGraphFromModelEPKNS_5ModelE>
 8003b62:	4680      	mov	r8, r0
 8003b64:	2800      	cmp	r0, #0
 8003b66:	d0f8      	beq.n	8003b5a <_ZN6tflite14MicroAllocator25AllocateTfLiteEvalTensorsEPKNS_5ModelEPP16TfLiteEvalTensor+0xe>
 8003b68:	2104      	movs	r1, #4
 8003b6a:	f7ff fe71 	bl	8003850 <_ZN11flatbuffers5Table10GetPointerIPKNS_6VectorINS_6OffsetIN6tflite6TensorEEEEEEET_t>
 8003b6e:	f8d0 b000 	ldr.w	fp, [r0]
 8003b72:	6860      	ldr	r0, [r4, #4]
 8003b74:	f04f 0a0c 	mov.w	sl, #12
 8003b78:	6803      	ldr	r3, [r0, #0]
 8003b7a:	fb0a f50b 	mul.w	r5, sl, fp
 8003b7e:	68db      	ldr	r3, [r3, #12]
 8003b80:	2204      	movs	r2, #4
 8003b82:	4629      	mov	r1, r5
 8003b84:	4798      	blx	r3
 8003b86:	4606      	mov	r6, r0
 8003b88:	b940      	cbnz	r0, 8003b9c <_ZN6tflite14MicroAllocator25AllocateTfLiteEvalTensorsEPKNS_5ModelEPP16TfLiteEvalTensor+0x50>
 8003b8a:	4916      	ldr	r1, [pc, #88]	; (8003be4 <_ZN6tflite14MicroAllocator25AllocateTfLiteEvalTensorsEPKNS_5ModelEPP16TfLiteEvalTensor+0x98>)
 8003b8c:	462a      	mov	r2, r5
 8003b8e:	68a0      	ldr	r0, [r4, #8]
 8003b90:	f7fe fff0 	bl	8002b74 <_ZN6tflite13ErrorReporter6ReportEPKcz>
 8003b94:	2001      	movs	r0, #1
 8003b96:	b005      	add	sp, #20
 8003b98:	e8bd 8ff0 	ldmia.w	sp!, {r4, r5, r6, r7, r8, r9, sl, fp, pc}
 8003b9c:	2500      	movs	r5, #0
 8003b9e:	f8cd a00c 	str.w	sl, [sp, #12]
 8003ba2:	455d      	cmp	r5, fp
 8003ba4:	d01b      	beq.n	8003bde <_ZN6tflite14MicroAllocator25AllocateTfLiteEvalTensorsEPKNS_5ModelEPP16TfLiteEvalTensor+0x92>
 8003ba6:	2104      	movs	r1, #4
 8003ba8:	4640      	mov	r0, r8
 8003baa:	f7ff fe51 	bl	8003850 <_ZN11flatbuffers5Table10GetPointerIPKNS_6VectorINS_6OffsetIN6tflite6TensorEEEEEEET_t>
 8003bae:	4629      	mov	r1, r5
 8003bb0:	f7ff fcea 	bl	8003588 <_ZNK11flatbuffers6VectorINS_6OffsetIN6tflite6TensorEEEE3GetEm>
 8003bb4:	210c      	movs	r1, #12
 8003bb6:	4682      	mov	sl, r0
 8003bb8:	4648      	mov	r0, r9
 8003bba:	f7ff ff9f 	bl	8003afc <_ZN11flatbuffers5Table10GetPointerIPKNS_6VectorINS_6OffsetIN6tflite6BufferEEEEEEET_t>
 8003bbe:	9b03      	ldr	r3, [sp, #12]
 8003bc0:	fb03 6305 	mla	r3, r3, r5, r6
 8003bc4:	4602      	mov	r2, r0
 8003bc6:	9300      	str	r3, [sp, #0]
 8003bc8:	6860      	ldr	r0, [r4, #4]
 8003bca:	68a3      	ldr	r3, [r4, #8]
 8003bcc:	4651      	mov	r1, sl
 8003bce:	f7ff fe13 	bl	80037f8 <_ZN6tflite8internal40InitializeTfLiteEvalTensorFromFlatbufferEPNS_21SimpleMemoryAllocatorERKNS_6TensorEPKN11flatbuffers6VectorINS6_6OffsetINS_6BufferEEEEEPNS_13ErrorReporterEP16TfLiteEvalTensor>
 8003bd2:	b110      	cbz	r0, 8003bda <_ZN6tflite14MicroAllocator25AllocateTfLiteEvalTensorsEPKNS_5ModelEPP16TfLiteEvalTensor+0x8e>
 8003bd4:	4904      	ldr	r1, [pc, #16]	; (8003be8 <_ZN6tflite14MicroAllocator25AllocateTfLiteEvalTensorsEPKNS_5ModelEPP16TfLiteEvalTensor+0x9c>)
 8003bd6:	462a      	mov	r2, r5
 8003bd8:	e7d9      	b.n	8003b8e <_ZN6tflite14MicroAllocator25AllocateTfLiteEvalTensorsEPKNS_5ModelEPP16TfLiteEvalTensor+0x42>
 8003bda:	3501      	adds	r5, #1
 8003bdc:	e7e1      	b.n	8003ba2 <_ZN6tflite14MicroAllocator25AllocateTfLiteEvalTensorsEPKNS_5ModelEPP16TfLiteEvalTensor+0x56>
 8003bde:	603e      	str	r6, [r7, #0]
 8003be0:	2000      	movs	r0, #0
 8003be2:	e7d8      	b.n	8003b96 <_ZN6tflite14MicroAllocator25AllocateTfLiteEvalTensorsEPKNS_5ModelEPP16TfLiteEvalTensor+0x4a>
 8003be4:	08009b79 	.word	0x08009b79
 8003be8:	08009bc0 	.word	0x08009bc0

08003bec <_ZN6tflite14MicroAllocator22CommitStaticMemoryPlanEPKNS_5ModelEPKNS_8SubGraphEP16TfLiteEvalTensor>:
 8003bec:	e92d 4ff0 	stmdb	sp!, {r4, r5, r6, r7, r8, r9, sl, fp, lr}
 8003bf0:	ed2d 8b02 	vpush	{d8}
 8003bf4:	b09b      	sub	sp, #108	; 0x6c
 8003bf6:	4605      	mov	r5, r0
 8003bf8:	4688      	mov	r8, r1
 8003bfa:	6881      	ldr	r1, [r0, #8]
 8003bfc:	6840      	ldr	r0, [r0, #4]
 8003bfe:	9304      	str	r3, [sp, #16]
 8003c00:	4692      	mov	sl, r2
 8003c02:	9103      	str	r1, [sp, #12]
 8003c04:	f000 fee2 	bl	80049cc <_ZNK6tflite21SimpleMemoryAllocator7GetHeadEv>
 8003c08:	9002      	str	r0, [sp, #8]
 8003c0a:	6868      	ldr	r0, [r5, #4]
 8003c0c:	f000 fee0 	bl	80049d0 <_ZNK6tflite21SimpleMemoryAllocator7GetTailEv>
 8003c10:	e9dd 2102 	ldrd	r2, r1, [sp, #8]
 8003c14:	4603      	mov	r3, r0
 8003c16:	a808      	add	r0, sp, #32
 8003c18:	f000 fea4 	bl	8004964 <_ZN6tflite21SimpleMemoryAllocatorC1EPNS_13ErrorReporterEPhS3_>
 8003c1c:	68ab      	ldr	r3, [r5, #8]
 8003c1e:	2104      	movs	r1, #4
 8003c20:	4650      	mov	r0, sl
 8003c22:	ee08 3a10 	vmov	s16, r3
 8003c26:	f7ff fe13 	bl	8003850 <_ZN11flatbuffers5Table10GetPointerIPKNS_6VectorINS_6OffsetIN6tflite6TensorEEEEEEET_t>
 8003c2a:	696b      	ldr	r3, [r5, #20]
 8003c2c:	f8d0 b000 	ldr.w	fp, [r0]
 8003c30:	2418      	movs	r4, #24
 8003c32:	445b      	add	r3, fp
 8003c34:	9302      	str	r3, [sp, #8]
 8003c36:	4363      	muls	r3, r4
 8003c38:	2204      	movs	r2, #4
 8003c3a:	4619      	mov	r1, r3
 8003c3c:	a808      	add	r0, sp, #32
 8003c3e:	ee08 3a90 	vmov	s17, r3
 8003c42:	f000 fe47 	bl	80048d4 <_ZN6tflite21SimpleMemoryAllocator16AllocateFromTailEjj>
 8003c46:	4604      	mov	r4, r0
 8003c48:	2800      	cmp	r0, #0
 8003c4a:	d03b      	beq.n	8003cc4 <_ZN6tflite14MicroAllocator22CommitStaticMemoryPlanEPKNS_5ModelEPKNS_8SubGraphEP16TfLiteEvalTensor+0xd8>
 8003c4c:	2110      	movs	r1, #16
 8003c4e:	4640      	mov	r0, r8
 8003c50:	f7fe ffba 	bl	8002bc8 <_ZNK11flatbuffers5Table22GetOptionalFieldOffsetEt>
 8003c54:	2800      	cmp	r0, #0
 8003c56:	d143      	bne.n	8003ce0 <_ZN6tflite14MicroAllocator22CommitStaticMemoryPlanEPKNS_5ModelEPKNS_8SubGraphEP16TfLiteEvalTensor+0xf4>
 8003c58:	4607      	mov	r7, r0
 8003c5a:	9b04      	ldr	r3, [sp, #16]
 8003c5c:	2b00      	cmp	r3, #0
 8003c5e:	f000 8084 	beq.w	8003d6a <_ZN6tflite14MicroAllocator22CommitStaticMemoryPlanEPKNS_5ModelEPKNS_8SubGraphEP16TfLiteEvalTensor+0x17e>
 8003c62:	46a0      	mov	r8, r4
 8003c64:	4699      	mov	r9, r3
 8003c66:	4622      	mov	r2, r4
 8003c68:	2600      	movs	r6, #0
 8003c6a:	45b3      	cmp	fp, r6
 8003c6c:	f000 8084 	beq.w	8003d78 <_ZN6tflite14MicroAllocator22CommitStaticMemoryPlanEPKNS_5ModelEPKNS_8SubGraphEP16TfLiteEvalTensor+0x18c>
 8003c70:	4611      	mov	r1, r2
 8003c72:	f8c2 9004 	str.w	r9, [r2, #4]
 8003c76:	4648      	mov	r0, r9
 8003c78:	9203      	str	r2, [sp, #12]
 8003c7a:	f7ff fa99 	bl	80031b0 <_ZN6tflite26TfLiteEvalTensorByteLengthEPK16TfLiteEvalTensorPj>
 8003c7e:	4601      	mov	r1, r0
 8003c80:	bb40      	cbnz	r0, 8003cd4 <_ZN6tflite14MicroAllocator22CommitStaticMemoryPlanEPKNS_5ModelEPKNS_8SubGraphEP16TfLiteEvalTensor+0xe8>
 8003c82:	9a03      	ldr	r2, [sp, #12]
 8003c84:	f8d9 0000 	ldr.w	r0, [r9]
 8003c88:	f04f 33ff 	mov.w	r3, #4294967295
 8003c8c:	e9c2 3302 	strd	r3, r3, [r2, #8]
 8003c90:	2800      	cmp	r0, #0
 8003c92:	d16c      	bne.n	8003d6e <_ZN6tflite14MicroAllocator22CommitStaticMemoryPlanEPKNS_5ModelEPKNS_8SubGraphEP16TfLiteEvalTensor+0x182>
 8003c94:	2104      	movs	r1, #4
 8003c96:	4650      	mov	r0, sl
 8003c98:	f7ff fdda 	bl	8003850 <_ZN11flatbuffers5Table10GetPointerIPKNS_6VectorINS_6OffsetIN6tflite6TensorEEEEEEET_t>
 8003c9c:	4631      	mov	r1, r6
 8003c9e:	f7ff fc73 	bl	8003588 <_ZNK11flatbuffers6VectorINS_6OffsetIN6tflite6TensorEEEE3GetEm>
 8003ca2:	f7ff fade 	bl	8003262 <_ZNK6tflite6Tensor11is_variableEv>
 8003ca6:	9a03      	ldr	r2, [sp, #12]
 8003ca8:	f080 0001 	eor.w	r0, r0, #1
 8003cac:	b2c0      	uxtb	r0, r0
 8003cae:	7510      	strb	r0, [r2, #20]
 8003cb0:	2f00      	cmp	r7, #0
 8003cb2:	d05e      	beq.n	8003d72 <_ZN6tflite14MicroAllocator22CommitStaticMemoryPlanEPKNS_5ModelEPKNS_8SubGraphEP16TfLiteEvalTensor+0x186>
 8003cb4:	f857 1026 	ldr.w	r1, [r7, r6, lsl #2]
 8003cb8:	6111      	str	r1, [r2, #16]
 8003cba:	3601      	adds	r6, #1
 8003cbc:	3218      	adds	r2, #24
 8003cbe:	f109 090c 	add.w	r9, r9, #12
 8003cc2:	e7d2      	b.n	8003c6a <_ZN6tflite14MicroAllocator22CommitStaticMemoryPlanEPKNS_5ModelEPKNS_8SubGraphEP16TfLiteEvalTensor+0x7e>
 8003cc4:	ee18 2a90 	vmov	r2, s17
 8003cc8:	49af      	ldr	r1, [pc, #700]	; (8003f88 <_ZN6tflite14MicroAllocator22CommitStaticMemoryPlanEPKNS_5ModelEPKNS_8SubGraphEP16TfLiteEvalTensor+0x39c>)
 8003cca:	ee18 0a10 	vmov	r0, s16
 8003cce:	f7fe ff51 	bl	8002b74 <_ZN6tflite13ErrorReporter6ReportEPKcz>
 8003cd2:	2101      	movs	r1, #1
 8003cd4:	a808      	add	r0, sp, #32
 8003cd6:	9102      	str	r1, [sp, #8]
 8003cd8:	f000 fdf0 	bl	80048bc <_ZN6tflite21SimpleMemoryAllocatorD1Ev>
 8003cdc:	9902      	ldr	r1, [sp, #8]
 8003cde:	e14d      	b.n	8003f7c <_ZN6tflite14MicroAllocator22CommitStaticMemoryPlanEPKNS_5ModelEPKNS_8SubGraphEP16TfLiteEvalTensor+0x390>
 8003ce0:	f858 3000 	ldr.w	r3, [r8, r0]
 8003ce4:	eb08 0200 	add.w	r2, r8, r0
 8003ce8:	eb02 0903 	add.w	r9, r2, r3
 8003cec:	2700      	movs	r7, #0
 8003cee:	58d3      	ldr	r3, [r2, r3]
 8003cf0:	9305      	str	r3, [sp, #20]
 8003cf2:	f109 0904 	add.w	r9, r9, #4
 8003cf6:	9703      	str	r7, [sp, #12]
 8003cf8:	9b05      	ldr	r3, [sp, #20]
 8003cfa:	9a03      	ldr	r2, [sp, #12]
 8003cfc:	4293      	cmp	r3, r2
 8003cfe:	d0ac      	beq.n	8003c5a <_ZN6tflite14MicroAllocator22CommitStaticMemoryPlanEPKNS_5ModelEPKNS_8SubGraphEP16TfLiteEvalTensor+0x6e>
 8003d00:	464e      	mov	r6, r9
 8003d02:	2104      	movs	r1, #4
 8003d04:	6833      	ldr	r3, [r6, #0]
 8003d06:	441e      	add	r6, r3
 8003d08:	4630      	mov	r0, r6
 8003d0a:	f109 0904 	add.w	r9, r9, #4
 8003d0e:	f7fe ff5b 	bl	8002bc8 <_ZNK11flatbuffers5Table22GetOptionalFieldOffsetEt>
 8003d12:	b110      	cbz	r0, 8003d1a <_ZN6tflite14MicroAllocator22CommitStaticMemoryPlanEPKNS_5ModelEPKNS_8SubGraphEP16TfLiteEvalTensor+0x12e>
 8003d14:	1833      	adds	r3, r6, r0
 8003d16:	5830      	ldr	r0, [r6, r0]
 8003d18:	4418      	add	r0, r3
 8003d1a:	499c      	ldr	r1, [pc, #624]	; (8003f8c <_ZN6tflite14MicroAllocator22CommitStaticMemoryPlanEPKNS_5ModelEPKNS_8SubGraphEP16TfLiteEvalTensor+0x3a0>)
 8003d1c:	2217      	movs	r2, #23
 8003d1e:	3004      	adds	r0, #4
 8003d20:	f002 fd04 	bl	800672c <strncmp>
 8003d24:	b9e8      	cbnz	r0, 8003d62 <_ZN6tflite14MicroAllocator22CommitStaticMemoryPlanEPKNS_5ModelEPKNS_8SubGraphEP16TfLiteEvalTensor+0x176>
 8003d26:	210c      	movs	r1, #12
 8003d28:	4640      	mov	r0, r8
 8003d2a:	f7ff fee7 	bl	8003afc <_ZN11flatbuffers5Table10GetPointerIPKNS_6VectorINS_6OffsetIN6tflite6BufferEEEEEEET_t>
 8003d2e:	2106      	movs	r1, #6
 8003d30:	4607      	mov	r7, r0
 8003d32:	4630      	mov	r0, r6
 8003d34:	f7fe ff48 	bl	8002bc8 <_ZNK11flatbuffers5Table22GetOptionalFieldOffsetEt>
 8003d38:	4601      	mov	r1, r0
 8003d3a:	b100      	cbz	r0, 8003d3e <_ZN6tflite14MicroAllocator22CommitStaticMemoryPlanEPKNS_5ModelEPKNS_8SubGraphEP16TfLiteEvalTensor+0x152>
 8003d3c:	5831      	ldr	r1, [r6, r0]
 8003d3e:	4638      	mov	r0, r7
 8003d40:	f7ff fc52 	bl	80035e8 <_ZNK11flatbuffers6VectorINS_6OffsetIN6tflite6BufferEEEE3GetEm>
 8003d44:	2104      	movs	r1, #4
 8003d46:	f7ff fc67 	bl	8003618 <_ZN11flatbuffers5Table10GetPointerIPKNS_6VectorIhEEEET_t>
 8003d4a:	68c2      	ldr	r2, [r0, #12]
 8003d4c:	4593      	cmp	fp, r2
 8003d4e:	f100 0710 	add.w	r7, r0, #16
 8003d52:	d006      	beq.n	8003d62 <_ZN6tflite14MicroAllocator22CommitStaticMemoryPlanEPKNS_5ModelEPKNS_8SubGraphEP16TfLiteEvalTensor+0x176>
 8003d54:	498e      	ldr	r1, [pc, #568]	; (8003f90 <_ZN6tflite14MicroAllocator22CommitStaticMemoryPlanEPKNS_5ModelEPKNS_8SubGraphEP16TfLiteEvalTensor+0x3a4>)
 8003d56:	ee18 0a10 	vmov	r0, s16
 8003d5a:	465b      	mov	r3, fp
 8003d5c:	f7fe ff0a 	bl	8002b74 <_ZN6tflite13ErrorReporter6ReportEPKcz>
 8003d60:	e7b7      	b.n	8003cd2 <_ZN6tflite14MicroAllocator22CommitStaticMemoryPlanEPKNS_5ModelEPKNS_8SubGraphEP16TfLiteEvalTensor+0xe6>
 8003d62:	9b03      	ldr	r3, [sp, #12]
 8003d64:	3301      	adds	r3, #1
 8003d66:	9303      	str	r3, [sp, #12]
 8003d68:	e7c6      	b.n	8003cf8 <_ZN6tflite14MicroAllocator22CommitStaticMemoryPlanEPKNS_5ModelEPKNS_8SubGraphEP16TfLiteEvalTensor+0x10c>
 8003d6a:	f001 fd51 	bl	8005810 <abort>
 8003d6e:	4608      	mov	r0, r1
 8003d70:	e79d      	b.n	8003cae <_ZN6tflite14MicroAllocator22CommitStaticMemoryPlanEPKNS_5ModelEPKNS_8SubGraphEP16TfLiteEvalTensor+0xc2>
 8003d72:	f04f 31ff 	mov.w	r1, #4294967295
 8003d76:	e79f      	b.n	8003cb8 <_ZN6tflite14MicroAllocator22CommitStaticMemoryPlanEPKNS_5ModelEPKNS_8SubGraphEP16TfLiteEvalTensor+0xcc>
 8003d78:	f04f 0b00 	mov.w	fp, #0
 8003d7c:	f04f 0918 	mov.w	r9, #24
 8003d80:	465f      	mov	r7, fp
 8003d82:	2106      	movs	r1, #6
 8003d84:	4650      	mov	r0, sl
 8003d86:	f7ff fc6b 	bl	8003660 <_ZN11flatbuffers5Table10GetPointerIPKNS_6VectorIlEEEET_t>
 8003d8a:	6803      	ldr	r3, [r0, #0]
 8003d8c:	455b      	cmp	r3, fp
 8003d8e:	d908      	bls.n	8003da2 <_ZN6tflite14MicroAllocator22CommitStaticMemoryPlanEPKNS_5ModelEPKNS_8SubGraphEP16TfLiteEvalTensor+0x1b6>
 8003d90:	4659      	mov	r1, fp
 8003d92:	f7ff fbe3 	bl	800355c <_ZNK11flatbuffers6VectorIlE3GetEm>
 8003d96:	fb09 4000 	mla	r0, r9, r0, r4
 8003d9a:	f10b 0b01 	add.w	fp, fp, #1
 8003d9e:	6087      	str	r7, [r0, #8]
 8003da0:	e7ef      	b.n	8003d82 <_ZN6tflite14MicroAllocator22CommitStaticMemoryPlanEPKNS_5ModelEPKNS_8SubGraphEP16TfLiteEvalTensor+0x196>
 8003da2:	f04f 0b00 	mov.w	fp, #0
 8003da6:	f04f 0918 	mov.w	r9, #24
 8003daa:	2108      	movs	r1, #8
 8003dac:	4650      	mov	r0, sl
 8003dae:	f7ff fc57 	bl	8003660 <_ZN11flatbuffers5Table10GetPointerIPKNS_6VectorIlEEEET_t>
 8003db2:	210a      	movs	r1, #10
 8003db4:	9003      	str	r0, [sp, #12]
 8003db6:	4650      	mov	r0, sl
 8003db8:	f7ff fd8a 	bl	80038d0 <_ZN11flatbuffers5Table10GetPointerIPKNS_6VectorINS_6OffsetIN6tflite8OperatorEEEEEEET_t>
 8003dbc:	9b03      	ldr	r3, [sp, #12]
 8003dbe:	681a      	ldr	r2, [r3, #0]
 8003dc0:	455a      	cmp	r2, fp
 8003dc2:	4607      	mov	r7, r0
 8003dc4:	d90b      	bls.n	8003dde <_ZN6tflite14MicroAllocator22CommitStaticMemoryPlanEPKNS_5ModelEPKNS_8SubGraphEP16TfLiteEvalTensor+0x1f2>
 8003dc6:	4659      	mov	r1, fp
 8003dc8:	4618      	mov	r0, r3
 8003dca:	f7ff fbc7 	bl	800355c <_ZNK11flatbuffers6VectorIlE3GetEm>
 8003dce:	683b      	ldr	r3, [r7, #0]
 8003dd0:	fb09 4000 	mla	r0, r9, r0, r4
 8003dd4:	3b01      	subs	r3, #1
 8003dd6:	60c3      	str	r3, [r0, #12]
 8003dd8:	f10b 0b01 	add.w	fp, fp, #1
 8003ddc:	e7e5      	b.n	8003daa <_ZN6tflite14MicroAllocator22CommitStaticMemoryPlanEPKNS_5ModelEPKNS_8SubGraphEP16TfLiteEvalTensor+0x1be>
 8003dde:	6807      	ldr	r7, [r0, #0]
 8003de0:	3f01      	subs	r7, #1
 8003de2:	2f00      	cmp	r7, #0
 8003de4:	db37      	blt.n	8003e56 <_ZN6tflite14MicroAllocator22CommitStaticMemoryPlanEPKNS_5ModelEPKNS_8SubGraphEP16TfLiteEvalTensor+0x26a>
 8003de6:	210a      	movs	r1, #10
 8003de8:	4650      	mov	r0, sl
 8003dea:	f7ff fd71 	bl	80038d0 <_ZN11flatbuffers5Table10GetPointerIPKNS_6VectorINS_6OffsetIN6tflite8OperatorEEEEEEET_t>
 8003dee:	4639      	mov	r1, r7
 8003df0:	f7ff fbe2 	bl	80035b8 <_ZNK11flatbuffers6VectorINS_6OffsetIN6tflite8OperatorEEEE3GetEm>
 8003df4:	f04f 0b00 	mov.w	fp, #0
 8003df8:	4681      	mov	r9, r0
 8003dfa:	2106      	movs	r1, #6
 8003dfc:	4648      	mov	r0, r9
 8003dfe:	f7ff fc2f 	bl	8003660 <_ZN11flatbuffers5Table10GetPointerIPKNS_6VectorIlEEEET_t>
 8003e02:	6802      	ldr	r2, [r0, #0]
 8003e04:	455a      	cmp	r2, fp
 8003e06:	d90e      	bls.n	8003e26 <_ZN6tflite14MicroAllocator22CommitStaticMemoryPlanEPKNS_5ModelEPKNS_8SubGraphEP16TfLiteEvalTensor+0x23a>
 8003e08:	4659      	mov	r1, fp
 8003e0a:	f7ff fba7 	bl	800355c <_ZNK11flatbuffers6VectorIlE3GetEm>
 8003e0e:	2318      	movs	r3, #24
 8003e10:	fb03 4000 	mla	r0, r3, r0, r4
 8003e14:	68c2      	ldr	r2, [r0, #12]
 8003e16:	1c51      	adds	r1, r2, #1
 8003e18:	d001      	beq.n	8003e1e <_ZN6tflite14MicroAllocator22CommitStaticMemoryPlanEPKNS_5ModelEPKNS_8SubGraphEP16TfLiteEvalTensor+0x232>
 8003e1a:	4297      	cmp	r7, r2
 8003e1c:	dd00      	ble.n	8003e20 <_ZN6tflite14MicroAllocator22CommitStaticMemoryPlanEPKNS_5ModelEPKNS_8SubGraphEP16TfLiteEvalTensor+0x234>
 8003e1e:	60c7      	str	r7, [r0, #12]
 8003e20:	f10b 0b01 	add.w	fp, fp, #1
 8003e24:	e7e9      	b.n	8003dfa <_ZN6tflite14MicroAllocator22CommitStaticMemoryPlanEPKNS_5ModelEPKNS_8SubGraphEP16TfLiteEvalTensor+0x20e>
 8003e26:	f04f 0b00 	mov.w	fp, #0
 8003e2a:	2108      	movs	r1, #8
 8003e2c:	4648      	mov	r0, r9
 8003e2e:	f7ff fc17 	bl	8003660 <_ZN11flatbuffers5Table10GetPointerIPKNS_6VectorIlEEEET_t>
 8003e32:	6802      	ldr	r2, [r0, #0]
 8003e34:	455a      	cmp	r2, fp
 8003e36:	d9d3      	bls.n	8003de0 <_ZN6tflite14MicroAllocator22CommitStaticMemoryPlanEPKNS_5ModelEPKNS_8SubGraphEP16TfLiteEvalTensor+0x1f4>
 8003e38:	4659      	mov	r1, fp
 8003e3a:	f7ff fb8f 	bl	800355c <_ZNK11flatbuffers6VectorIlE3GetEm>
 8003e3e:	2318      	movs	r3, #24
 8003e40:	fb03 4000 	mla	r0, r3, r0, r4
 8003e44:	6882      	ldr	r2, [r0, #8]
 8003e46:	1c53      	adds	r3, r2, #1
 8003e48:	d001      	beq.n	8003e4e <_ZN6tflite14MicroAllocator22CommitStaticMemoryPlanEPKNS_5ModelEPKNS_8SubGraphEP16TfLiteEvalTensor+0x262>
 8003e4a:	4297      	cmp	r7, r2
 8003e4c:	da00      	bge.n	8003e50 <_ZN6tflite14MicroAllocator22CommitStaticMemoryPlanEPKNS_5ModelEPKNS_8SubGraphEP16TfLiteEvalTensor+0x264>
 8003e4e:	6087      	str	r7, [r0, #8]
 8003e50:	f10b 0b01 	add.w	fp, fp, #1
 8003e54:	e7e9      	b.n	8003e2a <_ZN6tflite14MicroAllocator22CommitStaticMemoryPlanEPKNS_5ModelEPKNS_8SubGraphEP16TfLiteEvalTensor+0x23e>
 8003e56:	2200      	movs	r2, #0
 8003e58:	4621      	mov	r1, r4
 8003e5a:	4617      	mov	r7, r2
 8003e5c:	4296      	cmp	r6, r2
 8003e5e:	f000 80ce 	beq.w	8003ffe <_ZN6tflite14MicroAllocator22CommitStaticMemoryPlanEPKNS_5ModelEPKNS_8SubGraphEP16TfLiteEvalTensor+0x412>
 8003e62:	e9d1 3002 	ldrd	r3, r0, [r1, #8]
 8003e66:	f1b3 3fff 	cmp.w	r3, #4294967295
 8003e6a:	d105      	bne.n	8003e78 <_ZN6tflite14MicroAllocator22CommitStaticMemoryPlanEPKNS_5ModelEPKNS_8SubGraphEP16TfLiteEvalTensor+0x28c>
 8003e6c:	3001      	adds	r0, #1
 8003e6e:	d005      	beq.n	8003e7c <_ZN6tflite14MicroAllocator22CommitStaticMemoryPlanEPKNS_5ModelEPKNS_8SubGraphEP16TfLiteEvalTensor+0x290>
 8003e70:	750f      	strb	r7, [r1, #20]
 8003e72:	3201      	adds	r2, #1
 8003e74:	3118      	adds	r1, #24
 8003e76:	e7f1      	b.n	8003e5c <_ZN6tflite14MicroAllocator22CommitStaticMemoryPlanEPKNS_5ModelEPKNS_8SubGraphEP16TfLiteEvalTensor+0x270>
 8003e78:	3001      	adds	r0, #1
 8003e7a:	d1fa      	bne.n	8003e72 <_ZN6tflite14MicroAllocator22CommitStaticMemoryPlanEPKNS_5ModelEPKNS_8SubGraphEP16TfLiteEvalTensor+0x286>
 8003e7c:	7d08      	ldrb	r0, [r1, #20]
 8003e7e:	2800      	cmp	r0, #0
 8003e80:	d0f7      	beq.n	8003e72 <_ZN6tflite14MicroAllocator22CommitStaticMemoryPlanEPKNS_5ModelEPKNS_8SubGraphEP16TfLiteEvalTensor+0x286>
 8003e82:	f04f 31ff 	mov.w	r1, #4294967295
 8003e86:	9100      	str	r1, [sp, #0]
 8003e88:	ee18 0a10 	vmov	r0, s16
 8003e8c:	4941      	ldr	r1, [pc, #260]	; (8003f94 <_ZN6tflite14MicroAllocator22CommitStaticMemoryPlanEPKNS_5ModelEPKNS_8SubGraphEP16TfLiteEvalTensor+0x3a8>)
 8003e8e:	f7fe fe71 	bl	8002b74 <_ZN6tflite13ErrorReporter6ReportEPKcz>
 8003e92:	e71e      	b.n	8003cd2 <_ZN6tflite14MicroAllocator22CommitStaticMemoryPlanEPKNS_5ModelEPKNS_8SubGraphEP16TfLiteEvalTensor+0xe6>
 8003e94:	a808      	add	r0, sp, #32
 8003e96:	f000 fd9d 	bl	80049d4 <_ZNK6tflite21SimpleMemoryAllocator18GetAvailableMemoryEv>
 8003e9a:	2201      	movs	r2, #1
 8003e9c:	4601      	mov	r1, r0
 8003e9e:	4606      	mov	r6, r0
 8003ea0:	a808      	add	r0, sp, #32
 8003ea2:	f000 fd4b 	bl	800493c <_ZN6tflite21SimpleMemoryAllocator16AllocateFromHeadEjj>
 8003ea6:	4601      	mov	r1, r0
 8003ea8:	b958      	cbnz	r0, 8003ec2 <_ZN6tflite14MicroAllocator22CommitStaticMemoryPlanEPKNS_5ModelEPKNS_8SubGraphEP16TfLiteEvalTensor+0x2d6>
 8003eaa:	68a9      	ldr	r1, [r5, #8]
 8003eac:	4b3a      	ldr	r3, [pc, #232]	; (8003f98 <_ZN6tflite14MicroAllocator22CommitStaticMemoryPlanEPKNS_5ModelEPKNS_8SubGraphEP16TfLiteEvalTensor+0x3ac>)
 8003eae:	9301      	str	r3, [sp, #4]
 8003eb0:	f240 4313 	movw	r3, #1043	; 0x413
 8003eb4:	9300      	str	r3, [sp, #0]
 8003eb6:	4a39      	ldr	r2, [pc, #228]	; (8003f9c <_ZN6tflite14MicroAllocator22CommitStaticMemoryPlanEPKNS_5ModelEPKNS_8SubGraphEP16TfLiteEvalTensor+0x3b0>)
 8003eb8:	4b39      	ldr	r3, [pc, #228]	; (8003fa0 <_ZN6tflite14MicroAllocator22CommitStaticMemoryPlanEPKNS_5ModelEPKNS_8SubGraphEP16TfLiteEvalTensor+0x3b4>)
 8003eba:	4608      	mov	r0, r1
 8003ebc:	f7fe fe68 	bl	8002b90 <_ZN6tflite13ErrorReporter11ReportErrorEPvPKcz>
 8003ec0:	e707      	b.n	8003cd2 <_ZN6tflite14MicroAllocator22CommitStaticMemoryPlanEPKNS_5ModelEPKNS_8SubGraphEP16TfLiteEvalTensor+0xe6>
 8003ec2:	4632      	mov	r2, r6
 8003ec4:	a80f      	add	r0, sp, #60	; 0x3c
 8003ec6:	f001 fa7f 	bl	80053c8 <_ZN6tflite19GreedyMemoryPlannerC1EPhi>
 8003eca:	f8d5 9008 	ldr.w	r9, [r5, #8]
 8003ece:	4626      	mov	r6, r4
 8003ed0:	2700      	movs	r7, #0
 8003ed2:	9b02      	ldr	r3, [sp, #8]
 8003ed4:	42bb      	cmp	r3, r7
 8003ed6:	d07d      	beq.n	8003fd4 <_ZN6tflite14MicroAllocator22CommitStaticMemoryPlanEPKNS_5ModelEPKNS_8SubGraphEP16TfLiteEvalTensor+0x3e8>
 8003ed8:	7d33      	ldrb	r3, [r6, #20]
 8003eda:	b913      	cbnz	r3, 8003ee2 <_ZN6tflite14MicroAllocator22CommitStaticMemoryPlanEPKNS_5ModelEPKNS_8SubGraphEP16TfLiteEvalTensor+0x2f6>
 8003edc:	3701      	adds	r7, #1
 8003ede:	3618      	adds	r6, #24
 8003ee0:	e7f7      	b.n	8003ed2 <_ZN6tflite14MicroAllocator22CommitStaticMemoryPlanEPKNS_5ModelEPKNS_8SubGraphEP16TfLiteEvalTensor+0x2e6>
 8003ee2:	2110      	movs	r1, #16
 8003ee4:	6830      	ldr	r0, [r6, #0]
 8003ee6:	f7ff f90a 	bl	80030fe <_ZN6tflite11AlignSizeUpEjj>
 8003eea:	6933      	ldr	r3, [r6, #16]
 8003eec:	1c59      	adds	r1, r3, #1
 8003eee:	4602      	mov	r2, r0
 8003ef0:	d10f      	bne.n	8003f12 <_ZN6tflite14MicroAllocator22CommitStaticMemoryPlanEPKNS_5ModelEPKNS_8SubGraphEP16TfLiteEvalTensor+0x326>
 8003ef2:	68f3      	ldr	r3, [r6, #12]
 8003ef4:	9300      	str	r3, [sp, #0]
 8003ef6:	68b3      	ldr	r3, [r6, #8]
 8003ef8:	4649      	mov	r1, r9
 8003efa:	a80f      	add	r0, sp, #60	; 0x3c
 8003efc:	f001 fa24 	bl	8005348 <_ZN6tflite19GreedyMemoryPlanner9AddBufferEPNS_13ErrorReporterEiii>
 8003f00:	4601      	mov	r1, r0
 8003f02:	2800      	cmp	r0, #0
 8003f04:	d0ea      	beq.n	8003edc <_ZN6tflite14MicroAllocator22CommitStaticMemoryPlanEPKNS_5ModelEPKNS_8SubGraphEP16TfLiteEvalTensor+0x2f0>
 8003f06:	a80f      	add	r0, sp, #60	; 0x3c
 8003f08:	9102      	str	r1, [sp, #8]
 8003f0a:	f001 fa13 	bl	8005334 <_ZN6tflite19GreedyMemoryPlannerD1Ev>
 8003f0e:	9902      	ldr	r1, [sp, #8]
 8003f10:	e6e0      	b.n	8003cd4 <_ZN6tflite14MicroAllocator22CommitStaticMemoryPlanEPKNS_5ModelEPKNS_8SubGraphEP16TfLiteEvalTensor+0xe8>
 8003f12:	9301      	str	r3, [sp, #4]
 8003f14:	68f3      	ldr	r3, [r6, #12]
 8003f16:	9300      	str	r3, [sp, #0]
 8003f18:	68b3      	ldr	r3, [r6, #8]
 8003f1a:	4649      	mov	r1, r9
 8003f1c:	a80f      	add	r0, sp, #60	; 0x3c
 8003f1e:	f001 fa71 	bl	8005404 <_ZN6tflite19GreedyMemoryPlanner9AddBufferEPNS_13ErrorReporterEiiii>
 8003f22:	e7ed      	b.n	8003f00 <_ZN6tflite14MicroAllocator22CommitStaticMemoryPlanEPKNS_5ModelEPKNS_8SubGraphEP16TfLiteEvalTensor+0x314>
 8003f24:	6868      	ldr	r0, [r5, #4]
 8003f26:	f000 fd51 	bl	80049cc <_ZNK6tflite21SimpleMemoryAllocator7GetHeadEv>
 8003f2a:	ee18 3a90 	vmov	r3, s17
 8003f2e:	4606      	mov	r6, r0
 8003f30:	441c      	add	r4, r3
 8003f32:	f04f 0900 	mov.w	r9, #0
 8003f36:	f04f 3aff 	mov.w	sl, #4294967295
 8003f3a:	45a0      	cmp	r8, r4
 8003f3c:	d032      	beq.n	8003fa4 <_ZN6tflite14MicroAllocator22CommitStaticMemoryPlanEPKNS_5ModelEPKNS_8SubGraphEP16TfLiteEvalTensor+0x3b8>
 8003f3e:	f898 3014 	ldrb.w	r3, [r8, #20]
 8003f42:	b18b      	cbz	r3, 8003f68 <_ZN6tflite14MicroAllocator22CommitStaticMemoryPlanEPKNS_5ModelEPKNS_8SubGraphEP16TfLiteEvalTensor+0x37c>
 8003f44:	4639      	mov	r1, r7
 8003f46:	ab07      	add	r3, sp, #28
 8003f48:	464a      	mov	r2, r9
 8003f4a:	a80f      	add	r0, sp, #60	; 0x3c
 8003f4c:	f8cd a01c 	str.w	sl, [sp, #28]
 8003f50:	f001 fb6e 	bl	8005630 <_ZN6tflite19GreedyMemoryPlanner18GetOffsetForBufferEPNS_13ErrorReporterEiPi>
 8003f54:	4601      	mov	r1, r0
 8003f56:	2800      	cmp	r0, #0
 8003f58:	d1d5      	bne.n	8003f06 <_ZN6tflite14MicroAllocator22CommitStaticMemoryPlanEPKNS_5ModelEPKNS_8SubGraphEP16TfLiteEvalTensor+0x31a>
 8003f5a:	9b07      	ldr	r3, [sp, #28]
 8003f5c:	f8d8 2004 	ldr.w	r2, [r8, #4]
 8003f60:	4433      	add	r3, r6
 8003f62:	6013      	str	r3, [r2, #0]
 8003f64:	f109 0901 	add.w	r9, r9, #1
 8003f68:	f108 0818 	add.w	r8, r8, #24
 8003f6c:	e7e5      	b.n	8003f3a <_ZN6tflite14MicroAllocator22CommitStaticMemoryPlanEPKNS_5ModelEPKNS_8SubGraphEP16TfLiteEvalTensor+0x34e>
 8003f6e:	a80f      	add	r0, sp, #60	; 0x3c
 8003f70:	f001 f9e0 	bl	8005334 <_ZN6tflite19GreedyMemoryPlannerD1Ev>
 8003f74:	a808      	add	r0, sp, #32
 8003f76:	f000 fca1 	bl	80048bc <_ZN6tflite21SimpleMemoryAllocatorD1Ev>
 8003f7a:	2100      	movs	r1, #0
 8003f7c:	4608      	mov	r0, r1
 8003f7e:	b01b      	add	sp, #108	; 0x6c
 8003f80:	ecbd 8b02 	vpop	{d8}
 8003f84:	e8bd 8ff0 	ldmia.w	sp!, {r4, r5, r6, r7, r8, r9, sl, fp, pc}
 8003f88:	08009bdf 	.word	0x08009bdf
 8003f8c:	08009da0 	.word	0x08009da0
 8003f90:	08009c20 	.word	0x08009c20
 8003f94:	08009c6b 	.word	0x08009c6b
 8003f98:	08009d0a 	.word	0x08009d0a
 8003f9c:	080089ba 	.word	0x080089ba
 8003fa0:	08009cce 	.word	0x08009cce
 8003fa4:	686c      	ldr	r4, [r5, #4]
 8003fa6:	6823      	ldr	r3, [r4, #0]
 8003fa8:	a80f      	add	r0, sp, #60	; 0x3c
 8003faa:	689e      	ldr	r6, [r3, #8]
 8003fac:	f001 fb22 	bl	80055f4 <_ZN6tflite19GreedyMemoryPlanner20GetMaximumMemorySizeEv>
 8003fb0:	2201      	movs	r2, #1
 8003fb2:	4601      	mov	r1, r0
 8003fb4:	4620      	mov	r0, r4
 8003fb6:	47b0      	blx	r6
 8003fb8:	2800      	cmp	r0, #0
 8003fba:	d1d8      	bne.n	8003f6e <_ZN6tflite14MicroAllocator22CommitStaticMemoryPlanEPKNS_5ModelEPKNS_8SubGraphEP16TfLiteEvalTensor+0x382>
 8003fbc:	68a9      	ldr	r1, [r5, #8]
 8003fbe:	4b1e      	ldr	r3, [pc, #120]	; (8004038 <_ZN6tflite14MicroAllocator22CommitStaticMemoryPlanEPKNS_5ModelEPKNS_8SubGraphEP16TfLiteEvalTensor+0x44c>)
 8003fc0:	9301      	str	r3, [sp, #4]
 8003fc2:	f240 432c 	movw	r3, #1068	; 0x42c
 8003fc6:	9300      	str	r3, [sp, #0]
 8003fc8:	4a1c      	ldr	r2, [pc, #112]	; (800403c <_ZN6tflite14MicroAllocator22CommitStaticMemoryPlanEPKNS_5ModelEPKNS_8SubGraphEP16TfLiteEvalTensor+0x450>)
 8003fca:	4b1d      	ldr	r3, [pc, #116]	; (8004040 <_ZN6tflite14MicroAllocator22CommitStaticMemoryPlanEPKNS_5ModelEPKNS_8SubGraphEP16TfLiteEvalTensor+0x454>)
 8003fcc:	4608      	mov	r0, r1
 8003fce:	f7fe fddf 	bl	8002b90 <_ZN6tflite13ErrorReporter11ReportErrorEPvPKcz>
 8003fd2:	e012      	b.n	8003ffa <_ZN6tflite14MicroAllocator22CommitStaticMemoryPlanEPKNS_5ModelEPKNS_8SubGraphEP16TfLiteEvalTensor+0x40e>
 8003fd4:	6868      	ldr	r0, [r5, #4]
 8003fd6:	f000 fcfd 	bl	80049d4 <_ZNK6tflite21SimpleMemoryAllocator18GetAvailableMemoryEv>
 8003fda:	4606      	mov	r6, r0
 8003fdc:	a80f      	add	r0, sp, #60	; 0x3c
 8003fde:	f001 fb09 	bl	80055f4 <_ZN6tflite19GreedyMemoryPlanner20GetMaximumMemorySizeEv>
 8003fe2:	42b0      	cmp	r0, r6
 8003fe4:	68af      	ldr	r7, [r5, #8]
 8003fe6:	d99d      	bls.n	8003f24 <_ZN6tflite14MicroAllocator22CommitStaticMemoryPlanEPKNS_5ModelEPKNS_8SubGraphEP16TfLiteEvalTensor+0x338>
 8003fe8:	a80f      	add	r0, sp, #60	; 0x3c
 8003fea:	f001 fb03 	bl	80055f4 <_ZN6tflite19GreedyMemoryPlanner20GetMaximumMemorySizeEv>
 8003fee:	4915      	ldr	r1, [pc, #84]	; (8004044 <_ZN6tflite14MicroAllocator22CommitStaticMemoryPlanEPKNS_5ModelEPKNS_8SubGraphEP16TfLiteEvalTensor+0x458>)
 8003ff0:	4602      	mov	r2, r0
 8003ff2:	4633      	mov	r3, r6
 8003ff4:	4638      	mov	r0, r7
 8003ff6:	f7fe fdbd 	bl	8002b74 <_ZN6tflite13ErrorReporter6ReportEPKcz>
 8003ffa:	2101      	movs	r1, #1
 8003ffc:	e783      	b.n	8003f06 <_ZN6tflite14MicroAllocator22CommitStaticMemoryPlanEPKNS_5ModelEPKNS_8SubGraphEP16TfLiteEvalTensor+0x31a>
 8003ffe:	2318      	movs	r3, #24
 8004000:	692a      	ldr	r2, [r5, #16]
 8004002:	fb03 4306 	mla	r3, r3, r6, r4
 8004006:	2701      	movs	r7, #1
 8004008:	f04f 30ff 	mov.w	r0, #4294967295
 800400c:	9902      	ldr	r1, [sp, #8]
 800400e:	42b1      	cmp	r1, r6
 8004010:	f103 0318 	add.w	r3, r3, #24
 8004014:	f67f af3e 	bls.w	8003e94 <_ZN6tflite14MicroAllocator22CommitStaticMemoryPlanEPKNS_5ModelEPKNS_8SubGraphEP16TfLiteEvalTensor+0x2a8>
 8004018:	6851      	ldr	r1, [r2, #4]
 800401a:	f843 1c18 	str.w	r1, [r3, #-24]
 800401e:	6891      	ldr	r1, [r2, #8]
 8004020:	f843 2c14 	str.w	r2, [r3, #-20]
 8004024:	e943 1104 	strd	r1, r1, [r3, #-16]
 8004028:	f803 7c04 	strb.w	r7, [r3, #-4]
 800402c:	f843 0c08 	str.w	r0, [r3, #-8]
 8004030:	3601      	adds	r6, #1
 8004032:	320c      	adds	r2, #12
 8004034:	e7ea      	b.n	800400c <_ZN6tflite14MicroAllocator22CommitStaticMemoryPlanEPKNS_5ModelEPKNS_8SubGraphEP16TfLiteEvalTensor+0x420>
 8004036:	bf00      	nop
 8004038:	08009d78 	.word	0x08009d78
 800403c:	080089ba 	.word	0x080089ba
 8004040:	08009cce 	.word	0x08009cce
 8004044:	08009d23 	.word	0x08009d23

08004048 <_ZN6tflite18MicroErrorReporterD1Ev>:
 8004048:	4770      	bx	lr
	...

0800404c <_ZN6tflite18MicroErrorReporter6ReportEPKcSt9__va_list>:
 800404c:	b500      	push	{lr}
 800404e:	b0c1      	sub	sp, #260	; 0x104
 8004050:	4613      	mov	r3, r2
 8004052:	4668      	mov	r0, sp
 8004054:	460a      	mov	r2, r1
 8004056:	f44f 7180 	mov.w	r1, #256	; 0x100
 800405a:	f000 faf9 	bl	8004650 <MicroVsnprintf>
 800405e:	4668      	mov	r0, sp
 8004060:	f7fd f9fc 	bl	800145c <DebugLog>
 8004064:	4803      	ldr	r0, [pc, #12]	; (8004074 <_ZN6tflite18MicroErrorReporter6ReportEPKcSt9__va_list+0x28>)
 8004066:	f7fd f9f9 	bl	800145c <DebugLog>
 800406a:	2000      	movs	r0, #0
 800406c:	b041      	add	sp, #260	; 0x104
 800406e:	f85d fb04 	ldr.w	pc, [sp], #4
 8004072:	bf00      	nop
 8004074:	08008833 	.word	0x08008833

08004078 <_ZN6tflite18MicroErrorReporterD0Ev>:
 8004078:	b510      	push	{r4, lr}
 800407a:	2104      	movs	r1, #4
 800407c:	4604      	mov	r4, r0
 800407e:	f001 faf5 	bl	800566c <_ZdlPvj>
 8004082:	4620      	mov	r0, r4
 8004084:	bd10      	pop	{r4, pc}
	...

08004088 <_ZN6tflite12_GLOBAL__N_122OpNameFromRegistrationEPK18TfLiteRegistration>:
 8004088:	6943      	ldr	r3, [r0, #20]
 800408a:	2b20      	cmp	r3, #32
 800408c:	d101      	bne.n	8004092 <_ZN6tflite12_GLOBAL__N_122OpNameFromRegistrationEPK18TfLiteRegistration+0xa>
 800408e:	6980      	ldr	r0, [r0, #24]
 8004090:	4770      	bx	lr
 8004092:	b2db      	uxtb	r3, r3
 8004094:	2b7e      	cmp	r3, #126	; 0x7e
 8004096:	bf9a      	itte	ls
 8004098:	4a02      	ldrls	r2, [pc, #8]	; (80040a4 <_ZN6tflite12_GLOBAL__N_122OpNameFromRegistrationEPK18TfLiteRegistration+0x1c>)
 800409a:	f852 0023 	ldrls.w	r0, [r2, r3, lsl #2]
 800409e:	4802      	ldrhi	r0, [pc, #8]	; (80040a8 <_ZN6tflite12_GLOBAL__N_122OpNameFromRegistrationEPK18TfLiteRegistration+0x20>)
 80040a0:	4770      	bx	lr
 80040a2:	bf00      	nop
 80040a4:	08008fb4 	.word	0x08008fb4
 80040a8:	08008835 	.word	0x08008835

080040ac <_ZN6tflite8internal13ContextHelper9GetTensorEPK13TfLiteContexti>:
 80040ac:	b430      	push	{r4, r5}
 80040ae:	68c4      	ldr	r4, [r0, #12]
 80040b0:	6820      	ldr	r0, [r4, #0]
 80040b2:	6802      	ldr	r2, [r0, #0]
 80040b4:	6855      	ldr	r5, [r2, #4]
 80040b6:	460b      	mov	r3, r1
 80040b8:	46ac      	mov	ip, r5
 80040ba:	e9d4 1202 	ldrd	r1, r2, [r4, #8]
 80040be:	bc30      	pop	{r4, r5}
 80040c0:	4760      	bx	ip

080040c2 <_ZN6tflite8internal13ContextHelper13GetEvalTensorEPK13TfLiteContexti>:
 80040c2:	68c3      	ldr	r3, [r0, #12]
 80040c4:	68db      	ldr	r3, [r3, #12]
 80040c6:	200c      	movs	r0, #12
 80040c8:	fb00 3001 	mla	r0, r0, r1, r3
 80040cc:	4770      	bx	lr

080040ce <_ZN6tflite8internal13ContextHelper24AllocatePersistentBufferEP13TfLiteContextj>:
 80040ce:	68c3      	ldr	r3, [r0, #12]
 80040d0:	6818      	ldr	r0, [r3, #0]
 80040d2:	f7ff b933 	b.w	800333c <_ZN6tflite14MicroAllocator24AllocatePersistentBufferEj>

080040d6 <_ZN6tflite8internal13ContextHelper27RequestScratchBufferInArenaEP13TfLiteContextjPi>:
 80040d6:	68c0      	ldr	r0, [r0, #12]
 80040d8:	4613      	mov	r3, r2
 80040da:	460a      	mov	r2, r1
 80040dc:	6901      	ldr	r1, [r0, #16]
 80040de:	6800      	ldr	r0, [r0, #0]
 80040e0:	f7ff b932 	b.w	8003348 <_ZN6tflite14MicroAllocator27RequestScratchBufferInArenaEijPi>

080040e4 <_ZN6tflite8internal13ContextHelper16GetScratchBufferEP13TfLiteContexti>:
 80040e4:	68c3      	ldr	r3, [r0, #12]
 80040e6:	6818      	ldr	r0, [r3, #0]
 80040e8:	f7ff b960 	b.w	80033ac <_ZNK6tflite14MicroAllocator16GetScratchBufferEi>

080040ec <_ZN6tflite8internal13ContextHelper13ReportOpErrorEP13TfLiteContextPKcz>:
 80040ec:	b40e      	push	{r1, r2, r3}
 80040ee:	b503      	push	{r0, r1, lr}
 80040f0:	68c3      	ldr	r3, [r0, #12]
 80040f2:	6858      	ldr	r0, [r3, #4]
 80040f4:	aa03      	add	r2, sp, #12
 80040f6:	6803      	ldr	r3, [r0, #0]
 80040f8:	f852 1b04 	ldr.w	r1, [r2], #4
 80040fc:	689b      	ldr	r3, [r3, #8]
 80040fe:	9201      	str	r2, [sp, #4]
 8004100:	4798      	blx	r3
 8004102:	b002      	add	sp, #8
 8004104:	f85d eb04 	ldr.w	lr, [sp], #4
 8004108:	b003      	add	sp, #12
 800410a:	4770      	bx	lr

0800410c <_ZN6tflite13ScopedProfileD1Ev>:
 800410c:	b510      	push	{r4, lr}
 800410e:	4604      	mov	r4, r0
 8004110:	6800      	ldr	r0, [r0, #0]
 8004112:	b118      	cbz	r0, 800411c <_ZN6tflite13ScopedProfileD1Ev+0x10>
 8004114:	6803      	ldr	r3, [r0, #0]
 8004116:	6861      	ldr	r1, [r4, #4]
 8004118:	691b      	ldr	r3, [r3, #16]
 800411a:	4798      	blx	r3
 800411c:	4620      	mov	r0, r4
 800411e:	bd10      	pop	{r4, pc}

08004120 <_ZN6tflite16MicroInterpreter4InitEPNS_8ProfilerE>:
 8004120:	b570      	push	{r4, r5, r6, lr}
 8004122:	6846      	ldr	r6, [r0, #4]
 8004124:	4604      	mov	r4, r0
 8004126:	460d      	mov	r5, r1
 8004128:	4630      	mov	r0, r6
 800412a:	2108      	movs	r1, #8
 800412c:	f7fe fd4c 	bl	8002bc8 <_ZNK11flatbuffers5Table22GetOptionalFieldOffsetEt>
 8004130:	b1f0      	cbz	r0, 8004170 <_ZN6tflite16MicroInterpreter4InitEPNS_8ProfilerE+0x50>
 8004132:	5833      	ldr	r3, [r6, r0]
 8004134:	1832      	adds	r2, r6, r0
 8004136:	18d1      	adds	r1, r2, r3
 8004138:	58d2      	ldr	r2, [r2, r3]
 800413a:	2a01      	cmp	r2, #1
 800413c:	d007      	beq.n	800414e <_ZN6tflite16MicroInterpreter4InitEPNS_8ProfilerE+0x2e>
 800413e:	490d      	ldr	r1, [pc, #52]	; (8004174 <_ZN6tflite16MicroInterpreter4InitEPNS_8ProfilerE+0x54>)
 8004140:	68e0      	ldr	r0, [r4, #12]
 8004142:	f7fe fd17 	bl	8002b74 <_ZN6tflite13ErrorReporter6ReportEPKcz>
 8004146:	2301      	movs	r3, #1
 8004148:	f884 306d 	strb.w	r3, [r4, #109]	; 0x6d
 800414c:	bd70      	pop	{r4, r5, r6, pc}
 800414e:	1d0b      	adds	r3, r1, #4
 8004150:	6849      	ldr	r1, [r1, #4]
 8004152:	6362      	str	r2, [r4, #52]	; 0x34
 8004154:	440b      	add	r3, r1
 8004156:	6723      	str	r3, [r4, #112]	; 0x70
 8004158:	f104 0378 	add.w	r3, r4, #120	; 0x78
 800415c:	61e3      	str	r3, [r4, #28]
 800415e:	4b06      	ldr	r3, [pc, #24]	; (8004178 <_ZN6tflite16MicroInterpreter4InitEPNS_8ProfilerE+0x58>)
 8004160:	6263      	str	r3, [r4, #36]	; 0x24
 8004162:	4b06      	ldr	r3, [pc, #24]	; (800417c <_ZN6tflite16MicroInterpreter4InitEPNS_8ProfilerE+0x5c>)
 8004164:	6623      	str	r3, [r4, #96]	; 0x60
 8004166:	4b06      	ldr	r3, [pc, #24]	; (8004180 <_ZN6tflite16MicroInterpreter4InitEPNS_8ProfilerE+0x60>)
 8004168:	6663      	str	r3, [r4, #100]	; 0x64
 800416a:	6465      	str	r5, [r4, #68]	; 0x44
 800416c:	2300      	movs	r3, #0
 800416e:	e7eb      	b.n	8004148 <_ZN6tflite16MicroInterpreter4InitEPNS_8ProfilerE+0x28>
 8004170:	6803      	ldr	r3, [r0, #0]
 8004172:	deff      	udf	#255	; 0xff
 8004174:	080093b1 	.word	0x080093b1
 8004178:	080040ed 	.word	0x080040ed
 800417c:	080040ad 	.word	0x080040ad
 8004180:	080040c3 	.word	0x080040c3

08004184 <_ZN6tflite16MicroInterpreterC1EPKNS_5ModelERKNS_15MicroOpResolverEPhjPNS_13ErrorReporterEPNS_8ProfilerE>:
 8004184:	e92d 41f0 	stmdb	sp!, {r4, r5, r6, r7, r8, lr}
 8004188:	f8dd 801c 	ldr.w	r8, [sp, #28]
 800418c:	2500      	movs	r5, #0
 800418e:	4604      	mov	r4, r0
 8004190:	461f      	mov	r7, r3
 8004192:	e9c0 5100 	strd	r5, r1, [r0]
 8004196:	e9c0 2802 	strd	r2, r8, [r0, #8]
 800419a:	460e      	mov	r6, r1
 800419c:	2258      	movs	r2, #88	; 0x58
 800419e:	4629      	mov	r1, r5
 80041a0:	3010      	adds	r0, #16
 80041a2:	f001 fbd9 	bl	8005958 <memset>
 80041a6:	9906      	ldr	r1, [sp, #24]
 80041a8:	4642      	mov	r2, r8
 80041aa:	4638      	mov	r0, r7
 80041ac:	f7ff f87c 	bl	80032a8 <_ZN6tflite14MicroAllocator6CreateEPhjPNS_13ErrorReporterE>
 80041b0:	f44f 7380 	mov.w	r3, #256	; 0x100
 80041b4:	f8a4 306c 	strh.w	r3, [r4, #108]	; 0x6c
 80041b8:	68e3      	ldr	r3, [r4, #12]
 80041ba:	66a0      	str	r0, [r4, #104]	; 0x68
 80041bc:	e9c4 031e 	strd	r0, r3, [r4, #120]	; 0x78
 80041c0:	f04f 33ff 	mov.w	r3, #4294967295
 80041c4:	4620      	mov	r0, r4
 80041c6:	e9c4 3522 	strd	r3, r5, [r4, #136]	; 0x88
 80041ca:	9908      	ldr	r1, [sp, #32]
 80041cc:	6765      	str	r5, [r4, #116]	; 0x74
 80041ce:	f8c4 6080 	str.w	r6, [r4, #128]	; 0x80
 80041d2:	f8c4 5090 	str.w	r5, [r4, #144]	; 0x90
 80041d6:	f7ff ffa3 	bl	8004120 <_ZN6tflite16MicroInterpreter4InitEPNS_8ProfilerE>
 80041da:	4620      	mov	r0, r4
 80041dc:	e8bd 81f0 	ldmia.w	sp!, {r4, r5, r6, r7, r8, pc}

080041e0 <_ZN6tflite16MicroInterpreter20ResetVariableTensorsEv>:
 80041e0:	e92d 43f7 	stmdb	sp!, {r0, r1, r2, r4, r5, r6, r7, r8, r9, lr}
 80041e4:	4606      	mov	r6, r0
 80041e6:	2500      	movs	r5, #0
 80041e8:	f04f 080c 	mov.w	r8, #12
 80041ec:	6f34      	ldr	r4, [r6, #112]	; 0x70
 80041ee:	2104      	movs	r1, #4
 80041f0:	4620      	mov	r0, r4
 80041f2:	f7fe fce9 	bl	8002bc8 <_ZNK11flatbuffers5Table22GetOptionalFieldOffsetEt>
 80041f6:	2800      	cmp	r0, #0
 80041f8:	d052      	beq.n	80042a0 <_ZN6tflite16MicroInterpreter20ResetVariableTensorsEv+0xc0>
 80041fa:	5822      	ldr	r2, [r4, r0]
 80041fc:	1821      	adds	r1, r4, r0
 80041fe:	188b      	adds	r3, r1, r2
 8004200:	588a      	ldr	r2, [r1, r2]
 8004202:	4295      	cmp	r5, r2
 8004204:	d247      	bcs.n	8004296 <_ZN6tflite16MicroInterpreter20ResetVariableTensorsEv+0xb6>
 8004206:	3304      	adds	r3, #4
 8004208:	eb03 0985 	add.w	r9, r3, r5, lsl #2
 800420c:	f853 3025 	ldr.w	r3, [r3, r5, lsl #2]
 8004210:	4499      	add	r9, r3
 8004212:	210e      	movs	r1, #14
 8004214:	4648      	mov	r0, r9
 8004216:	f7fe fcd7 	bl	8002bc8 <_ZNK11flatbuffers5Table22GetOptionalFieldOffsetEt>
 800421a:	2800      	cmp	r0, #0
 800421c:	d035      	beq.n	800428a <_ZN6tflite16MicroInterpreter20ResetVariableTensorsEv+0xaa>
 800421e:	f819 3000 	ldrb.w	r3, [r9, r0]
 8004222:	b393      	cbz	r3, 800428a <_ZN6tflite16MicroInterpreter20ResetVariableTensorsEv+0xaa>
 8004224:	6f70      	ldr	r0, [r6, #116]	; 0x74
 8004226:	fb08 f705 	mul.w	r7, r8, r5
 800422a:	a901      	add	r1, sp, #4
 800422c:	4438      	add	r0, r7
 800422e:	f7fe ffbf 	bl	80031b0 <_ZN6tflite26TfLiteEvalTensorByteLengthEPK16TfLiteEvalTensorPj>
 8004232:	4604      	mov	r4, r0
 8004234:	bb80      	cbnz	r0, 8004298 <_ZN6tflite16MicroInterpreter20ResetVariableTensorsEv+0xb8>
 8004236:	2106      	movs	r1, #6
 8004238:	4648      	mov	r0, r9
 800423a:	f7fe fcc5 	bl	8002bc8 <_ZNK11flatbuffers5Table22GetOptionalFieldOffsetEt>
 800423e:	b330      	cbz	r0, 800428e <_ZN6tflite16MicroInterpreter20ResetVariableTensorsEv+0xae>
 8004240:	f919 3000 	ldrsb.w	r3, [r9, r0]
 8004244:	2b09      	cmp	r3, #9
 8004246:	d124      	bne.n	8004292 <_ZN6tflite16MicroInterpreter20ResetVariableTensorsEv+0xb2>
 8004248:	210c      	movs	r1, #12
 800424a:	4648      	mov	r0, r9
 800424c:	f7fe fcbc 	bl	8002bc8 <_ZNK11flatbuffers5Table22GetOptionalFieldOffsetEt>
 8004250:	4604      	mov	r4, r0
 8004252:	b118      	cbz	r0, 800425c <_ZN6tflite16MicroInterpreter20ResetVariableTensorsEv+0x7c>
 8004254:	f859 4004 	ldr.w	r4, [r9, r4]
 8004258:	4448      	add	r0, r9
 800425a:	4404      	add	r4, r0
 800425c:	210a      	movs	r1, #10
 800425e:	4620      	mov	r0, r4
 8004260:	f7fe fcb2 	bl	8002bc8 <_ZNK11flatbuffers5Table22GetOptionalFieldOffsetEt>
 8004264:	b1e0      	cbz	r0, 80042a0 <_ZN6tflite16MicroInterpreter20ResetVariableTensorsEv+0xc0>
 8004266:	5823      	ldr	r3, [r4, r0]
 8004268:	1822      	adds	r2, r4, r0
 800426a:	18d1      	adds	r1, r2, r3
 800426c:	58d3      	ldr	r3, [r2, r3]
 800426e:	b933      	cbnz	r3, 800427e <_ZN6tflite16MicroInterpreter20ResetVariableTensorsEv+0x9e>
 8004270:	4b0c      	ldr	r3, [pc, #48]	; (80042a4 <_ZN6tflite16MicroInterpreter20ResetVariableTensorsEv+0xc4>)
 8004272:	4a0d      	ldr	r2, [pc, #52]	; (80042a8 <_ZN6tflite16MicroInterpreter20ResetVariableTensorsEv+0xc8>)
 8004274:	480d      	ldr	r0, [pc, #52]	; (80042ac <_ZN6tflite16MicroInterpreter20ResetVariableTensorsEv+0xcc>)
 8004276:	f240 1101 	movw	r1, #257	; 0x101
 800427a:	f001 fad1 	bl	8005820 <__assert_func>
 800427e:	6849      	ldr	r1, [r1, #4]
 8004280:	6f73      	ldr	r3, [r6, #116]	; 0x74
 8004282:	9a01      	ldr	r2, [sp, #4]
 8004284:	59d8      	ldr	r0, [r3, r7]
 8004286:	f001 fb67 	bl	8005958 <memset>
 800428a:	3501      	adds	r5, #1
 800428c:	e7ae      	b.n	80041ec <_ZN6tflite16MicroInterpreter20ResetVariableTensorsEv+0xc>
 800428e:	4601      	mov	r1, r0
 8004290:	e7f6      	b.n	8004280 <_ZN6tflite16MicroInterpreter20ResetVariableTensorsEv+0xa0>
 8004292:	4621      	mov	r1, r4
 8004294:	e7f4      	b.n	8004280 <_ZN6tflite16MicroInterpreter20ResetVariableTensorsEv+0xa0>
 8004296:	2400      	movs	r4, #0
 8004298:	4620      	mov	r0, r4
 800429a:	b003      	add	sp, #12
 800429c:	e8bd 83f0 	ldmia.w	sp!, {r4, r5, r6, r7, r8, r9, pc}
 80042a0:	6803      	ldr	r3, [r0, #0]
 80042a2:	deff      	udf	#255	; 0xff
 80042a4:	080094b3 	.word	0x080094b3
 80042a8:	080094be 	.word	0x080094be
 80042ac:	08009596 	.word	0x08009596

080042b0 <_ZN6tflite16MicroInterpreter5inputEj>:
 80042b0:	b570      	push	{r4, r5, r6, lr}
 80042b2:	460d      	mov	r5, r1
 80042b4:	4604      	mov	r4, r0
 80042b6:	2106      	movs	r1, #6
 80042b8:	6f00      	ldr	r0, [r0, #112]	; 0x70
 80042ba:	f7ff f9d1 	bl	8003660 <_ZN11flatbuffers5Table10GetPointerIPKNS_6VectorIlEEEET_t>
 80042be:	6803      	ldr	r3, [r0, #0]
 80042c0:	429d      	cmp	r5, r3
 80042c2:	d306      	bcc.n	80042d2 <_ZN6tflite16MicroInterpreter5inputEj+0x22>
 80042c4:	4917      	ldr	r1, [pc, #92]	; (8004324 <_ZN6tflite16MicroInterpreter5inputEj+0x74>)
 80042c6:	68e0      	ldr	r0, [r4, #12]
 80042c8:	462a      	mov	r2, r5
 80042ca:	f7fe fc53 	bl	8002b74 <_ZN6tflite13ErrorReporter6ReportEPKcz>
 80042ce:	2000      	movs	r0, #0
 80042d0:	bd70      	pop	{r4, r5, r6, pc}
 80042d2:	b1ad      	cbz	r5, 8004300 <_ZN6tflite16MicroInterpreter5inputEj+0x50>
 80042d4:	4914      	ldr	r1, [pc, #80]	; (8004328 <_ZN6tflite16MicroInterpreter5inputEj+0x78>)
 80042d6:	68e0      	ldr	r0, [r4, #12]
 80042d8:	f7fe fc4c 	bl	8002b74 <_ZN6tflite13ErrorReporter6ReportEPKcz>
 80042dc:	6ea6      	ldr	r6, [r4, #104]	; 0x68
 80042de:	6f20      	ldr	r0, [r4, #112]	; 0x70
 80042e0:	2106      	movs	r1, #6
 80042e2:	f7ff f9bd 	bl	8003660 <_ZN11flatbuffers5Table10GetPointerIPKNS_6VectorIlEEEET_t>
 80042e6:	4629      	mov	r1, r5
 80042e8:	f7ff f938 	bl	800355c <_ZNK11flatbuffers6VectorIlE3GetEm>
 80042ec:	6832      	ldr	r2, [r6, #0]
 80042ee:	6861      	ldr	r1, [r4, #4]
 80042f0:	6815      	ldr	r5, [r2, #0]
 80042f2:	6f62      	ldr	r2, [r4, #116]	; 0x74
 80042f4:	4603      	mov	r3, r0
 80042f6:	46ac      	mov	ip, r5
 80042f8:	4630      	mov	r0, r6
 80042fa:	e8bd 4070 	ldmia.w	sp!, {r4, r5, r6, lr}
 80042fe:	4760      	bx	ip
 8004300:	f8d4 108c 	ldr.w	r1, [r4, #140]	; 0x8c
 8004304:	b959      	cbnz	r1, 800431e <_ZN6tflite16MicroInterpreter5inputEj+0x6e>
 8004306:	6ea5      	ldr	r5, [r4, #104]	; 0x68
 8004308:	f7ff f928 	bl	800355c <_ZNK11flatbuffers6VectorIlE3GetEm>
 800430c:	682a      	ldr	r2, [r5, #0]
 800430e:	6861      	ldr	r1, [r4, #4]
 8004310:	6816      	ldr	r6, [r2, #0]
 8004312:	6f62      	ldr	r2, [r4, #116]	; 0x74
 8004314:	4603      	mov	r3, r0
 8004316:	4628      	mov	r0, r5
 8004318:	47b0      	blx	r6
 800431a:	f8c4 008c 	str.w	r0, [r4, #140]	; 0x8c
 800431e:	f8d4 008c 	ldr.w	r0, [r4, #140]	; 0x8c
 8004322:	e7d5      	b.n	80042d0 <_ZN6tflite16MicroInterpreter5inputEj+0x20>
 8004324:	08009e1c 	.word	0x08009e1c
 8004328:	08009e47 	.word	0x08009e47

0800432c <_ZN6tflite16MicroInterpreter6outputEj>:
 800432c:	b570      	push	{r4, r5, r6, lr}
 800432e:	460d      	mov	r5, r1
 8004330:	4604      	mov	r4, r0
 8004332:	2108      	movs	r1, #8
 8004334:	6f00      	ldr	r0, [r0, #112]	; 0x70
 8004336:	f7ff f993 	bl	8003660 <_ZN11flatbuffers5Table10GetPointerIPKNS_6VectorIlEEEET_t>
 800433a:	6803      	ldr	r3, [r0, #0]
 800433c:	429d      	cmp	r5, r3
 800433e:	d306      	bcc.n	800434e <_ZN6tflite16MicroInterpreter6outputEj+0x22>
 8004340:	4917      	ldr	r1, [pc, #92]	; (80043a0 <_ZN6tflite16MicroInterpreter6outputEj+0x74>)
 8004342:	68e0      	ldr	r0, [r4, #12]
 8004344:	462a      	mov	r2, r5
 8004346:	f7fe fc15 	bl	8002b74 <_ZN6tflite13ErrorReporter6ReportEPKcz>
 800434a:	2000      	movs	r0, #0
 800434c:	bd70      	pop	{r4, r5, r6, pc}
 800434e:	b1ad      	cbz	r5, 800437c <_ZN6tflite16MicroInterpreter6outputEj+0x50>
 8004350:	4914      	ldr	r1, [pc, #80]	; (80043a4 <_ZN6tflite16MicroInterpreter6outputEj+0x78>)
 8004352:	68e0      	ldr	r0, [r4, #12]
 8004354:	f7fe fc0e 	bl	8002b74 <_ZN6tflite13ErrorReporter6ReportEPKcz>
 8004358:	6ea6      	ldr	r6, [r4, #104]	; 0x68
 800435a:	6f20      	ldr	r0, [r4, #112]	; 0x70
 800435c:	2108      	movs	r1, #8
 800435e:	f7ff f97f 	bl	8003660 <_ZN11flatbuffers5Table10GetPointerIPKNS_6VectorIlEEEET_t>
 8004362:	4629      	mov	r1, r5
 8004364:	f7ff f8fa 	bl	800355c <_ZNK11flatbuffers6VectorIlE3GetEm>
 8004368:	6832      	ldr	r2, [r6, #0]
 800436a:	6861      	ldr	r1, [r4, #4]
 800436c:	6815      	ldr	r5, [r2, #0]
 800436e:	6f62      	ldr	r2, [r4, #116]	; 0x74
 8004370:	4603      	mov	r3, r0
 8004372:	46ac      	mov	ip, r5
 8004374:	4630      	mov	r0, r6
 8004376:	e8bd 4070 	ldmia.w	sp!, {r4, r5, r6, lr}
 800437a:	4760      	bx	ip
 800437c:	f8d4 1090 	ldr.w	r1, [r4, #144]	; 0x90
 8004380:	b959      	cbnz	r1, 800439a <_ZN6tflite16MicroInterpreter6outputEj+0x6e>
 8004382:	6ea5      	ldr	r5, [r4, #104]	; 0x68
 8004384:	f7ff f8ea 	bl	800355c <_ZNK11flatbuffers6VectorIlE3GetEm>
 8004388:	682a      	ldr	r2, [r5, #0]
 800438a:	6861      	ldr	r1, [r4, #4]
 800438c:	6816      	ldr	r6, [r2, #0]
 800438e:	6f62      	ldr	r2, [r4, #116]	; 0x74
 8004390:	4603      	mov	r3, r0
 8004392:	4628      	mov	r0, r5
 8004394:	47b0      	blx	r6
 8004396:	f8c4 0090 	str.w	r0, [r4, #144]	; 0x90
 800439a:	f8d4 0090 	ldr.w	r0, [r4, #144]	; 0x90
 800439e:	e7d5      	b.n	800434c <_ZN6tflite16MicroInterpreter6outputEj+0x20>
 80043a0:	08009ebf 	.word	0x08009ebf
 80043a4:	08009eeb 	.word	0x08009eeb

080043a8 <_ZN6tflite16MicroInterpreterD1Ev>:
 80043a8:	b5f8      	push	{r3, r4, r5, r6, r7, lr}
 80043aa:	6803      	ldr	r3, [r0, #0]
 80043ac:	4604      	mov	r4, r0
 80043ae:	b1b3      	cbz	r3, 80043de <_ZN6tflite16MicroInterpreterD1Ev+0x36>
 80043b0:	2500      	movs	r5, #0
 80043b2:	2628      	movs	r6, #40	; 0x28
 80043b4:	f100 0710 	add.w	r7, r0, #16
 80043b8:	6f20      	ldr	r0, [r4, #112]	; 0x70
 80043ba:	210a      	movs	r1, #10
 80043bc:	f7ff fa88 	bl	80038d0 <_ZN11flatbuffers5Table10GetPointerIPKNS_6VectorINS_6OffsetIN6tflite8OperatorEEEEEEET_t>
 80043c0:	6803      	ldr	r3, [r0, #0]
 80043c2:	42ab      	cmp	r3, r5
 80043c4:	d90b      	bls.n	80043de <_ZN6tflite16MicroInterpreterD1Ev+0x36>
 80043c6:	6823      	ldr	r3, [r4, #0]
 80043c8:	fb06 3305 	mla	r3, r6, r5, r3
 80043cc:	6a5a      	ldr	r2, [r3, #36]	; 0x24
 80043ce:	b122      	cbz	r2, 80043da <_ZN6tflite16MicroInterpreterD1Ev+0x32>
 80043d0:	6852      	ldr	r2, [r2, #4]
 80043d2:	b112      	cbz	r2, 80043da <_ZN6tflite16MicroInterpreterD1Ev+0x32>
 80043d4:	6919      	ldr	r1, [r3, #16]
 80043d6:	4638      	mov	r0, r7
 80043d8:	4790      	blx	r2
 80043da:	3501      	adds	r5, #1
 80043dc:	e7ec      	b.n	80043b8 <_ZN6tflite16MicroInterpreterD1Ev+0x10>
 80043de:	4620      	mov	r0, r4
 80043e0:	bdf8      	pop	{r3, r4, r5, r6, r7, pc}
	...

080043e4 <_ZN6tflite16MicroInterpreter15AllocateTensorsEv>:
 80043e4:	e92d 41f3 	stmdb	sp!, {r0, r1, r4, r5, r6, r7, r8, lr}
 80043e8:	f100 0374 	add.w	r3, r0, #116	; 0x74
 80043ec:	9300      	str	r3, [sp, #0]
 80043ee:	e9d0 1201 	ldrd	r1, r2, [r0, #4]
 80043f2:	4604      	mov	r4, r0
 80043f4:	4603      	mov	r3, r0
 80043f6:	6e80      	ldr	r0, [r0, #104]	; 0x68
 80043f8:	f7fe ff72 	bl	80032e0 <_ZN6tflite14MicroAllocator20StartModelAllocationEPKNS_5ModelERKNS_15MicroOpResolverEPPNS_19NodeAndRegistrationEPP16TfLiteEvalTensor>
 80043fc:	b148      	cbz	r0, 8004412 <_ZN6tflite16MicroInterpreter15AllocateTensorsEv+0x2e>
 80043fe:	493c      	ldr	r1, [pc, #240]	; (80044f0 <_ZN6tflite16MicroInterpreter15AllocateTensorsEv+0x10c>)
 8004400:	68e0      	ldr	r0, [r4, #12]
 8004402:	f7fe fbb7 	bl	8002b74 <_ZN6tflite13ErrorReporter6ReportEPKcz>
 8004406:	2001      	movs	r0, #1
 8004408:	f884 006d 	strb.w	r0, [r4, #109]	; 0x6d
 800440c:	b002      	add	sp, #8
 800440e:	e8bd 81f0 	ldmia.w	sp!, {r4, r5, r6, r7, r8, pc}
 8004412:	6f63      	ldr	r3, [r4, #116]	; 0x74
 8004414:	f8c4 3084 	str.w	r3, [r4, #132]	; 0x84
 8004418:	e9c4 0014 	strd	r0, r0, [r4, #80]	; 0x50
 800441c:	4b35      	ldr	r3, [pc, #212]	; (80044f4 <_ZN6tflite16MicroInterpreter15AllocateTensorsEv+0x110>)
 800441e:	64a3      	str	r3, [r4, #72]	; 0x48
 8004420:	4605      	mov	r5, r0
 8004422:	2728      	movs	r7, #40	; 0x28
 8004424:	6f20      	ldr	r0, [r4, #112]	; 0x70
 8004426:	210a      	movs	r1, #10
 8004428:	f7ff fa52 	bl	80038d0 <_ZN11flatbuffers5Table10GetPointerIPKNS_6VectorINS_6OffsetIN6tflite8OperatorEEEEEEET_t>
 800442c:	6803      	ldr	r3, [r0, #0]
 800442e:	42ab      	cmp	r3, r5
 8004430:	d914      	bls.n	800445c <_ZN6tflite16MicroInterpreter15AllocateTensorsEv+0x78>
 8004432:	6826      	ldr	r6, [r4, #0]
 8004434:	f8c4 5088 	str.w	r5, [r4, #136]	; 0x88
 8004438:	fb07 6605 	mla	r6, r7, r5, r6
 800443c:	6a73      	ldr	r3, [r6, #36]	; 0x24
 800443e:	6971      	ldr	r1, [r6, #20]
 8004440:	695a      	ldr	r2, [r3, #20]
 8004442:	681b      	ldr	r3, [r3, #0]
 8004444:	2a20      	cmp	r2, #32
 8004446:	bf0c      	ite	eq
 8004448:	e9d6 1206 	ldrdeq	r1, r2, [r6, #24]
 800444c:	2200      	movne	r2, #0
 800444e:	b11b      	cbz	r3, 8004458 <_ZN6tflite16MicroInterpreter15AllocateTensorsEv+0x74>
 8004450:	f104 0010 	add.w	r0, r4, #16
 8004454:	4798      	blx	r3
 8004456:	6130      	str	r0, [r6, #16]
 8004458:	3501      	adds	r5, #1
 800445a:	e7e3      	b.n	8004424 <_ZN6tflite16MicroInterpreter15AllocateTensorsEv+0x40>
 800445c:	f04f 33ff 	mov.w	r3, #4294967295
 8004460:	f8c4 3088 	str.w	r3, [r4, #136]	; 0x88
 8004464:	4b24      	ldr	r3, [pc, #144]	; (80044f8 <_ZN6tflite16MicroInterpreter15AllocateTensorsEv+0x114>)
 8004466:	6523      	str	r3, [r4, #80]	; 0x50
 8004468:	2500      	movs	r5, #0
 800446a:	2628      	movs	r6, #40	; 0x28
 800446c:	f104 0710 	add.w	r7, r4, #16
 8004470:	6f20      	ldr	r0, [r4, #112]	; 0x70
 8004472:	210a      	movs	r1, #10
 8004474:	f7ff fa2c 	bl	80038d0 <_ZN11flatbuffers5Table10GetPointerIPKNS_6VectorINS_6OffsetIN6tflite8OperatorEEEEEEET_t>
 8004478:	6803      	ldr	r3, [r0, #0]
 800447a:	42ab      	cmp	r3, r5
 800447c:	d91f      	bls.n	80044be <_ZN6tflite16MicroInterpreter15AllocateTensorsEv+0xda>
 800447e:	6821      	ldr	r1, [r4, #0]
 8004480:	f8c4 5088 	str.w	r5, [r4, #136]	; 0x88
 8004484:	fb06 1105 	mla	r1, r6, r5, r1
 8004488:	f8d1 8024 	ldr.w	r8, [r1, #36]	; 0x24
 800448c:	f8d8 3008 	ldr.w	r3, [r8, #8]
 8004490:	b17b      	cbz	r3, 80044b2 <_ZN6tflite16MicroInterpreter15AllocateTensorsEv+0xce>
 8004492:	4638      	mov	r0, r7
 8004494:	4798      	blx	r3
 8004496:	4601      	mov	r1, r0
 8004498:	b158      	cbz	r0, 80044b2 <_ZN6tflite16MicroInterpreter15AllocateTensorsEv+0xce>
 800449a:	4640      	mov	r0, r8
 800449c:	f7ff fdf4 	bl	8004088 <_ZN6tflite12_GLOBAL__N_122OpNameFromRegistrationEPK18TfLiteRegistration>
 80044a0:	462b      	mov	r3, r5
 80044a2:	4602      	mov	r2, r0
 80044a4:	9100      	str	r1, [sp, #0]
 80044a6:	68e0      	ldr	r0, [r4, #12]
 80044a8:	4914      	ldr	r1, [pc, #80]	; (80044fc <_ZN6tflite16MicroInterpreter15AllocateTensorsEv+0x118>)
 80044aa:	f7fe fb63 	bl	8002b74 <_ZN6tflite13ErrorReporter6ReportEPKcz>
 80044ae:	2001      	movs	r0, #1
 80044b0:	e7ac      	b.n	800440c <_ZN6tflite16MicroInterpreter15AllocateTensorsEv+0x28>
 80044b2:	6ea0      	ldr	r0, [r4, #104]	; 0x68
 80044b4:	6803      	ldr	r3, [r0, #0]
 80044b6:	689b      	ldr	r3, [r3, #8]
 80044b8:	4798      	blx	r3
 80044ba:	3501      	adds	r5, #1
 80044bc:	e7d8      	b.n	8004470 <_ZN6tflite16MicroInterpreter15AllocateTensorsEv+0x8c>
 80044be:	f04f 33ff 	mov.w	r3, #4294967295
 80044c2:	f8c4 3088 	str.w	r3, [r4, #136]	; 0x88
 80044c6:	2300      	movs	r3, #0
 80044c8:	64a3      	str	r3, [r4, #72]	; 0x48
 80044ca:	6523      	str	r3, [r4, #80]	; 0x50
 80044cc:	4b0c      	ldr	r3, [pc, #48]	; (8004500 <_ZN6tflite16MicroInterpreter15AllocateTensorsEv+0x11c>)
 80044ce:	6f62      	ldr	r2, [r4, #116]	; 0x74
 80044d0:	6861      	ldr	r1, [r4, #4]
 80044d2:	6ea0      	ldr	r0, [r4, #104]	; 0x68
 80044d4:	6563      	str	r3, [r4, #84]	; 0x54
 80044d6:	f7fe ff9b 	bl	8003410 <_ZN6tflite14MicroAllocator21FinishModelAllocationEPKNS_5ModelEP16TfLiteEvalTensor>
 80044da:	2800      	cmp	r0, #0
 80044dc:	d196      	bne.n	800440c <_ZN6tflite16MicroInterpreter15AllocateTensorsEv+0x28>
 80044de:	4620      	mov	r0, r4
 80044e0:	f7ff fe7e 	bl	80041e0 <_ZN6tflite16MicroInterpreter20ResetVariableTensorsEv>
 80044e4:	2800      	cmp	r0, #0
 80044e6:	d191      	bne.n	800440c <_ZN6tflite16MicroInterpreter15AllocateTensorsEv+0x28>
 80044e8:	2301      	movs	r3, #1
 80044ea:	f884 306c 	strb.w	r3, [r4, #108]	; 0x6c
 80044ee:	e78d      	b.n	800440c <_ZN6tflite16MicroInterpreter15AllocateTensorsEv+0x28>
 80044f0:	08009f64 	.word	0x08009f64
 80044f4:	080040cf 	.word	0x080040cf
 80044f8:	080040d7 	.word	0x080040d7
 80044fc:	08009f87 	.word	0x08009f87
 8004500:	080040e5 	.word	0x080040e5

08004504 <_ZN6tflite16MicroInterpreter6InvokeEv>:
 8004504:	e92d 4ff0 	stmdb	sp!, {r4, r5, r6, r7, r8, r9, sl, fp, lr}
 8004508:	f890 306d 	ldrb.w	r3, [r0, #109]	; 0x6d
 800450c:	b087      	sub	sp, #28
 800450e:	4605      	mov	r5, r0
 8004510:	b143      	cbz	r3, 8004524 <_ZN6tflite16MicroInterpreter6InvokeEv+0x20>
 8004512:	4931      	ldr	r1, [pc, #196]	; (80045d8 <_ZN6tflite16MicroInterpreter6InvokeEv+0xd4>)
 8004514:	68c0      	ldr	r0, [r0, #12]
 8004516:	f7fe fb2d 	bl	8002b74 <_ZN6tflite13ErrorReporter6ReportEPKcz>
 800451a:	2401      	movs	r4, #1
 800451c:	4620      	mov	r0, r4
 800451e:	b007      	add	sp, #28
 8004520:	e8bd 8ff0 	ldmia.w	sp!, {r4, r5, r6, r7, r8, r9, sl, fp, pc}
 8004524:	f890 306c 	ldrb.w	r3, [r0, #108]	; 0x6c
 8004528:	2b00      	cmp	r3, #0
 800452a:	d046      	beq.n	80045ba <_ZN6tflite16MicroInterpreter6InvokeEv+0xb6>
 800452c:	2600      	movs	r6, #0
 800452e:	f04f 0a28 	mov.w	sl, #40	; 0x28
 8004532:	f04f 0800 	mov.w	r8, #0
 8004536:	f04f 0900 	mov.w	r9, #0
 800453a:	6f28      	ldr	r0, [r5, #112]	; 0x70
 800453c:	210a      	movs	r1, #10
 800453e:	f7ff f9c7 	bl	80038d0 <_ZN11flatbuffers5Table10GetPointerIPKNS_6VectorINS_6OffsetIN6tflite8OperatorEEEEEEET_t>
 8004542:	6803      	ldr	r3, [r0, #0]
 8004544:	429e      	cmp	r6, r3
 8004546:	d245      	bcs.n	80045d4 <_ZN6tflite16MicroInterpreter6InvokeEv+0xd0>
 8004548:	682c      	ldr	r4, [r5, #0]
 800454a:	fb0a 4406 	mla	r4, sl, r6, r4
 800454e:	6a67      	ldr	r7, [r4, #36]	; 0x24
 8004550:	68fb      	ldr	r3, [r7, #12]
 8004552:	2b00      	cmp	r3, #0
 8004554:	d03c      	beq.n	80045d0 <_ZN6tflite16MicroInterpreter6InvokeEv+0xcc>
 8004556:	4638      	mov	r0, r7
 8004558:	f7ff fd96 	bl	8004088 <_ZN6tflite12_GLOBAL__N_122OpNameFromRegistrationEPK18TfLiteRegistration>
 800455c:	f8d5 b044 	ldr.w	fp, [r5, #68]	; 0x44
 8004560:	f8cd b010 	str.w	fp, [sp, #16]
 8004564:	2300      	movs	r3, #0
 8004566:	4601      	mov	r1, r0
 8004568:	9305      	str	r3, [sp, #20]
 800456a:	f1bb 0f00 	cmp.w	fp, #0
 800456e:	d00a      	beq.n	8004586 <_ZN6tflite16MicroInterpreter6InvokeEv+0x82>
 8004570:	f8db 2000 	ldr.w	r2, [fp]
 8004574:	e9cd 8902 	strd	r8, r9, [sp, #8]
 8004578:	e9cd 6300 	strd	r6, r3, [sp]
 800457c:	4658      	mov	r0, fp
 800457e:	6893      	ldr	r3, [r2, #8]
 8004580:	2202      	movs	r2, #2
 8004582:	4798      	blx	r3
 8004584:	9005      	str	r0, [sp, #20]
 8004586:	4621      	mov	r1, r4
 8004588:	68fb      	ldr	r3, [r7, #12]
 800458a:	f105 0010 	add.w	r0, r5, #16
 800458e:	4798      	blx	r3
 8004590:	4604      	mov	r4, r0
 8004592:	6ea8      	ldr	r0, [r5, #104]	; 0x68
 8004594:	6803      	ldr	r3, [r0, #0]
 8004596:	689b      	ldr	r3, [r3, #8]
 8004598:	4798      	blx	r3
 800459a:	2c01      	cmp	r4, #1
 800459c:	d113      	bne.n	80045c6 <_ZN6tflite16MicroInterpreter6InvokeEv+0xc2>
 800459e:	4638      	mov	r0, r7
 80045a0:	f7ff fd72 	bl	8004088 <_ZN6tflite12_GLOBAL__N_122OpNameFromRegistrationEPK18TfLiteRegistration>
 80045a4:	490d      	ldr	r1, [pc, #52]	; (80045dc <_ZN6tflite16MicroInterpreter6InvokeEv+0xd8>)
 80045a6:	9400      	str	r4, [sp, #0]
 80045a8:	4602      	mov	r2, r0
 80045aa:	4633      	mov	r3, r6
 80045ac:	68e8      	ldr	r0, [r5, #12]
 80045ae:	f7fe fae1 	bl	8002b74 <_ZN6tflite13ErrorReporter6ReportEPKcz>
 80045b2:	a804      	add	r0, sp, #16
 80045b4:	f7ff fdaa 	bl	800410c <_ZN6tflite13ScopedProfileD1Ev>
 80045b8:	e7b0      	b.n	800451c <_ZN6tflite16MicroInterpreter6InvokeEv+0x18>
 80045ba:	f7ff ff13 	bl	80043e4 <_ZN6tflite16MicroInterpreter15AllocateTensorsEv>
 80045be:	4604      	mov	r4, r0
 80045c0:	2800      	cmp	r0, #0
 80045c2:	d0b3      	beq.n	800452c <_ZN6tflite16MicroInterpreter6InvokeEv+0x28>
 80045c4:	e7aa      	b.n	800451c <_ZN6tflite16MicroInterpreter6InvokeEv+0x18>
 80045c6:	2c00      	cmp	r4, #0
 80045c8:	d1f3      	bne.n	80045b2 <_ZN6tflite16MicroInterpreter6InvokeEv+0xae>
 80045ca:	a804      	add	r0, sp, #16
 80045cc:	f7ff fd9e 	bl	800410c <_ZN6tflite13ScopedProfileD1Ev>
 80045d0:	3601      	adds	r6, #1
 80045d2:	e7b2      	b.n	800453a <_ZN6tflite16MicroInterpreter6InvokeEv+0x36>
 80045d4:	2400      	movs	r4, #0
 80045d6:	e7a1      	b.n	800451c <_ZN6tflite16MicroInterpreter6InvokeEv+0x18>
 80045d8:	08009fbd 	.word	0x08009fbd
 80045dc:	08009fea 	.word	0x08009fea

080045e0 <_ZN12_GLOBAL__N_19StrCatStrEPciPKc>:
 80045e0:	b530      	push	{r4, r5, lr}
 80045e2:	4603      	mov	r3, r0
 80045e4:	4604      	mov	r4, r0
 80045e6:	4620      	mov	r0, r4
 80045e8:	f814 5b01 	ldrb.w	r5, [r4], #1
 80045ec:	2d00      	cmp	r5, #0
 80045ee:	d1fa      	bne.n	80045e6 <_ZN12_GLOBAL__N_19StrCatStrEPciPKc+0x6>
 80045f0:	3901      	subs	r1, #1
 80045f2:	440b      	add	r3, r1
 80045f4:	3a01      	subs	r2, #1
 80045f6:	f812 1f01 	ldrb.w	r1, [r2, #1]!
 80045fa:	b121      	cbz	r1, 8004606 <_ZN12_GLOBAL__N_19StrCatStrEPciPKc+0x26>
 80045fc:	4298      	cmp	r0, r3
 80045fe:	d202      	bcs.n	8004606 <_ZN12_GLOBAL__N_19StrCatStrEPciPKc+0x26>
 8004600:	f800 1b01 	strb.w	r1, [r0], #1
 8004604:	e7f7      	b.n	80045f6 <_ZN12_GLOBAL__N_19StrCatStrEPciPKc+0x16>
 8004606:	2300      	movs	r3, #0
 8004608:	7003      	strb	r3, [r0, #0]
 800460a:	bd30      	pop	{r4, r5, pc}

0800460c <_ZN12_GLOBAL__N_122FastUInt32ToBufferLeftEmPci>:
 800460c:	b570      	push	{r4, r5, r6, lr}
 800460e:	460c      	mov	r4, r1
 8004610:	fbb0 f6f2 	udiv	r6, r0, r2
 8004614:	fb02 0516 	mls	r5, r2, r6, r0
 8004618:	b2eb      	uxtb	r3, r5
 800461a:	2d09      	cmp	r5, #9
 800461c:	bf94      	ite	ls
 800461e:	3330      	addls	r3, #48	; 0x30
 8004620:	3357      	addhi	r3, #87	; 0x57
 8004622:	4625      	mov	r5, r4
 8004624:	b2db      	uxtb	r3, r3
 8004626:	4282      	cmp	r2, r0
 8004628:	f805 3b01 	strb.w	r3, [r5], #1
 800462c:	d90a      	bls.n	8004644 <_ZN12_GLOBAL__N_122FastUInt32ToBufferLeftEmPci+0x38>
 800462e:	2300      	movs	r3, #0
 8004630:	702b      	strb	r3, [r5, #0]
 8004632:	42a1      	cmp	r1, r4
 8004634:	d209      	bcs.n	800464a <_ZN12_GLOBAL__N_122FastUInt32ToBufferLeftEmPci+0x3e>
 8004636:	780b      	ldrb	r3, [r1, #0]
 8004638:	7822      	ldrb	r2, [r4, #0]
 800463a:	f801 2b01 	strb.w	r2, [r1], #1
 800463e:	f804 3901 	strb.w	r3, [r4], #-1
 8004642:	e7f6      	b.n	8004632 <_ZN12_GLOBAL__N_122FastUInt32ToBufferLeftEmPci+0x26>
 8004644:	462c      	mov	r4, r5
 8004646:	4630      	mov	r0, r6
 8004648:	e7e2      	b.n	8004610 <_ZN12_GLOBAL__N_122FastUInt32ToBufferLeftEmPci+0x4>
 800464a:	4628      	mov	r0, r5
 800464c:	bd70      	pop	{r4, r5, r6, pc}
	...

08004650 <MicroVsnprintf>:
 8004650:	e92d 4ff0 	stmdb	sp!, {r4, r5, r6, r7, r8, r9, sl, fp, lr}
 8004654:	b095      	sub	sp, #84	; 0x54
 8004656:	4690      	mov	r8, r2
 8004658:	9002      	str	r0, [sp, #8]
 800465a:	461c      	mov	r4, r3
 800465c:	f101 39ff 	add.w	r9, r1, #4294967295
 8004660:	2500      	movs	r5, #0
 8004662:	9a02      	ldr	r2, [sp, #8]
 8004664:	f898 3000 	ldrb.w	r3, [r8]
 8004668:	4629      	mov	r1, r5
 800466a:	1956      	adds	r6, r2, r5
 800466c:	b343      	cbz	r3, 80046c0 <MicroVsnprintf+0x70>
 800466e:	454d      	cmp	r5, r9
 8004670:	da26      	bge.n	80046c0 <MicroVsnprintf+0x70>
 8004672:	2b25      	cmp	r3, #37	; 0x25
 8004674:	f108 0201 	add.w	r2, r8, #1
 8004678:	f040 8104 	bne.w	8004884 <MicroVsnprintf+0x234>
 800467c:	f898 3001 	ldrb.w	r3, [r8, #1]
 8004680:	2b73      	cmp	r3, #115	; 0x73
 8004682:	f000 8102 	beq.w	800488a <MicroVsnprintf+0x23a>
 8004686:	d808      	bhi.n	800469a <MicroVsnprintf+0x4a>
 8004688:	2b64      	cmp	r3, #100	; 0x64
 800468a:	d015      	beq.n	80046b8 <MicroVsnprintf+0x68>
 800468c:	2b66      	cmp	r3, #102	; 0x66
 800468e:	d043      	beq.n	8004718 <MicroVsnprintf+0xc8>
 8004690:	2b25      	cmp	r3, #37	; 0x25
 8004692:	f000 80f5 	beq.w	8004880 <MicroVsnprintf+0x230>
 8004696:	4690      	mov	r8, r2
 8004698:	e7e3      	b.n	8004662 <MicroVsnprintf+0x12>
 800469a:	2b75      	cmp	r3, #117	; 0x75
 800469c:	d023      	beq.n	80046e6 <MicroVsnprintf+0x96>
 800469e:	2b78      	cmp	r3, #120	; 0x78
 80046a0:	d1f9      	bne.n	8004696 <MicroVsnprintf+0x46>
 80046a2:	eba9 0205 	sub.w	r2, r9, r5
 80046a6:	2a09      	cmp	r2, #9
 80046a8:	f105 0001 	add.w	r0, r5, #1
 80046ac:	dc24      	bgt.n	80046f8 <MicroVsnprintf+0xa8>
 80046ae:	2300      	movs	r3, #0
 80046b0:	7033      	strb	r3, [r6, #0]
 80046b2:	b015      	add	sp, #84	; 0x54
 80046b4:	e8bd 8ff0 	ldmia.w	sp!, {r4, r5, r6, r7, r8, r9, sl, fp, pc}
 80046b8:	eba9 0305 	sub.w	r3, r9, r5
 80046bc:	2b0a      	cmp	r3, #10
 80046be:	dc01      	bgt.n	80046c4 <MicroVsnprintf+0x74>
 80046c0:	1c68      	adds	r0, r5, #1
 80046c2:	e7f4      	b.n	80046ae <MicroVsnprintf+0x5e>
 80046c4:	f854 0b04 	ldr.w	r0, [r4], #4
 80046c8:	4631      	mov	r1, r6
 80046ca:	2800      	cmp	r0, #0
 80046cc:	bfbe      	ittt	lt
 80046ce:	232d      	movlt	r3, #45	; 0x2d
 80046d0:	f801 3b01 	strblt.w	r3, [r1], #1
 80046d4:	4240      	neglt	r0, r0
 80046d6:	220a      	movs	r2, #10
 80046d8:	f7ff ff98 	bl	800460c <_ZN12_GLOBAL__N_122FastUInt32ToBufferLeftEmPci>
 80046dc:	1b80      	subs	r0, r0, r6
 80046de:	4405      	add	r5, r0
 80046e0:	f108 0202 	add.w	r2, r8, #2
 80046e4:	e7d7      	b.n	8004696 <MicroVsnprintf+0x46>
 80046e6:	eba9 0305 	sub.w	r3, r9, r5
 80046ea:	2b0a      	cmp	r3, #10
 80046ec:	dde8      	ble.n	80046c0 <MicroVsnprintf+0x70>
 80046ee:	f854 0b04 	ldr.w	r0, [r4], #4
 80046f2:	220a      	movs	r2, #10
 80046f4:	4631      	mov	r1, r6
 80046f6:	e7ef      	b.n	80046d8 <MicroVsnprintf+0x88>
 80046f8:	f04f 0230 	mov.w	r2, #48	; 0x30
 80046fc:	7032      	strb	r2, [r6, #0]
 80046fe:	9a02      	ldr	r2, [sp, #8]
 8004700:	1cae      	adds	r6, r5, #2
 8004702:	5413      	strb	r3, [r2, r0]
 8004704:	1995      	adds	r5, r2, r6
 8004706:	4629      	mov	r1, r5
 8004708:	f854 0b04 	ldr.w	r0, [r4], #4
 800470c:	2210      	movs	r2, #16
 800470e:	f7ff ff7d 	bl	800460c <_ZN12_GLOBAL__N_122FastUInt32ToBufferLeftEmPci>
 8004712:	1b40      	subs	r0, r0, r5
 8004714:	1985      	adds	r5, r0, r6
 8004716:	e7e3      	b.n	80046e0 <MicroVsnprintf+0x90>
 8004718:	eba9 0305 	sub.w	r3, r9, r5
 800471c:	ee07 3a90 	vmov	s15, r3
 8004720:	eef8 7ae7 	vcvt.f32.s32	s15, s15
 8004724:	eeb2 7a0c 	vmov.f32	s14, #44	; 0x41600000  14.0
 8004728:	eef4 7ac7 	vcmpe.f32	s15, s14
 800472c:	eef1 fa10 	vmrs	APSR_nzcv, fpscr
 8004730:	d4c6      	bmi.n	80046c0 <MicroVsnprintf+0x70>
 8004732:	3407      	adds	r4, #7
 8004734:	f024 0407 	bic.w	r4, r4, #7
 8004738:	e8f4 0102 	ldrd	r0, r1, [r4], #8
 800473c:	f106 032f 	add.w	r3, r6, #47	; 0x2f
 8004740:	9301      	str	r3, [sp, #4]
 8004742:	f7fc fa41 	bl	8000bc8 <__aeabi_d2f>
 8004746:	f3c0 53c7 	ubfx	r3, r0, #23, #8
 800474a:	2800      	cmp	r0, #0
 800474c:	f1a3 0a7f 	sub.w	sl, r3, #127	; 0x7f
 8004750:	9303      	str	r3, [sp, #12]
 8004752:	4633      	mov	r3, r6
 8004754:	bfbc      	itt	lt
 8004756:	222d      	movlt	r2, #45	; 0x2d
 8004758:	f803 2b01 	strblt.w	r2, [r3], #1
 800475c:	2200      	movs	r2, #0
 800475e:	f1ba 0f80 	cmp.w	sl, #128	; 0x80
 8004762:	f3c0 0e16 	ubfx	lr, r0, #0, #23
 8004766:	701a      	strb	r2, [r3, #0]
 8004768:	d10e      	bne.n	8004788 <MicroVsnprintf+0x138>
 800476a:	9a01      	ldr	r2, [sp, #4]
 800476c:	1ad1      	subs	r1, r2, r3
 800476e:	f1be 0f00 	cmp.w	lr, #0
 8004772:	d107      	bne.n	8004784 <MicroVsnprintf+0x134>
 8004774:	4a4d      	ldr	r2, [pc, #308]	; (80048ac <MicroVsnprintf+0x25c>)
 8004776:	4618      	mov	r0, r3
 8004778:	f7ff ff32 	bl	80045e0 <_ZN12_GLOBAL__N_19StrCatStrEPciPKc>
 800477c:	4607      	mov	r7, r0
 800477e:	1bbe      	subs	r6, r7, r6
 8004780:	4435      	add	r5, r6
 8004782:	e7ad      	b.n	80046e0 <MicroVsnprintf+0x90>
 8004784:	4a4a      	ldr	r2, [pc, #296]	; (80048b0 <MicroVsnprintf+0x260>)
 8004786:	e7f6      	b.n	8004776 <MicroVsnprintf+0x126>
 8004788:	4a4a      	ldr	r2, [pc, #296]	; (80048b4 <MicroVsnprintf+0x264>)
 800478a:	af04      	add	r7, sp, #16
 800478c:	f102 0b08 	add.w	fp, r2, #8
 8004790:	6810      	ldr	r0, [r2, #0]
 8004792:	6851      	ldr	r1, [r2, #4]
 8004794:	46bc      	mov	ip, r7
 8004796:	e8ac 0003 	stmia.w	ip!, {r0, r1}
 800479a:	3208      	adds	r2, #8
 800479c:	455a      	cmp	r2, fp
 800479e:	4667      	mov	r7, ip
 80047a0:	d1f6      	bne.n	8004790 <MicroVsnprintf+0x140>
 80047a2:	6810      	ldr	r0, [r2, #0]
 80047a4:	7912      	ldrb	r2, [r2, #4]
 80047a6:	f8cc 0000 	str.w	r0, [ip]
 80047aa:	f88c 2004 	strb.w	r2, [ip, #4]
 80047ae:	af04      	add	r7, sp, #16
 80047b0:	4670      	mov	r0, lr
 80047b2:	2200      	movs	r2, #0
 80047b4:	f917 1b01 	ldrsb.w	r1, [r7], #1
 80047b8:	3201      	adds	r2, #1
 80047ba:	fa2e f101 	lsr.w	r1, lr, r1
 80047be:	2a0d      	cmp	r2, #13
 80047c0:	4408      	add	r0, r1
 80047c2:	d1f7      	bne.n	80047b4 <MicroVsnprintf+0x164>
 80047c4:	2231      	movs	r2, #49	; 0x31
 80047c6:	701a      	strb	r2, [r3, #0]
 80047c8:	222e      	movs	r2, #46	; 0x2e
 80047ca:	705a      	strb	r2, [r3, #1]
 80047cc:	2200      	movs	r2, #0
 80047ce:	709a      	strb	r2, [r3, #2]
 80047d0:	9a01      	ldr	r2, [sp, #4]
 80047d2:	1c9f      	adds	r7, r3, #2
 80047d4:	eba2 0b07 	sub.w	fp, r2, r7
 80047d8:	f1bb 0f07 	cmp.w	fp, #7
 80047dc:	ddcf      	ble.n	800477e <MicroVsnprintf+0x12e>
 80047de:	463a      	mov	r2, r7
 80047e0:	3308      	adds	r3, #8
 80047e2:	f04f 0130 	mov.w	r1, #48	; 0x30
 80047e6:	f802 1f01 	strb.w	r1, [r2, #1]!
 80047ea:	4293      	cmp	r3, r2
 80047ec:	d1f9      	bne.n	80047e2 <MicroVsnprintf+0x192>
 80047ee:	220a      	movs	r2, #10
 80047f0:	a908      	add	r1, sp, #32
 80047f2:	f7ff ff0b 	bl	800460c <_ZN12_GLOBAL__N_122FastUInt32ToBufferLeftEmPci>
 80047f6:	aa08      	add	r2, sp, #32
 80047f8:	4659      	mov	r1, fp
 80047fa:	4638      	mov	r0, r7
 80047fc:	f7ff fef0 	bl	80045e0 <_ZN12_GLOBAL__N_19StrCatStrEPciPKc>
 8004800:	f04f 0230 	mov.w	r2, #48	; 0x30
 8004804:	1bc3      	subs	r3, r0, r7
 8004806:	7002      	strb	r2, [r0, #0]
 8004808:	f1c3 0107 	rsb	r1, r3, #7
 800480c:	4602      	mov	r2, r0
 800480e:	eba0 0c02 	sub.w	ip, r0, r2
 8004812:	4563      	cmp	r3, ip
 8004814:	dd08      	ble.n	8004828 <MicroVsnprintf+0x1d8>
 8004816:	f812 cd01 	ldrb.w	ip, [r2, #-1]!
 800481a:	f802 c001 	strb.w	ip, [r2, r1]
 800481e:	f04f 0c30 	mov.w	ip, #48	; 0x30
 8004822:	f882 c000 	strb.w	ip, [r2]
 8004826:	e7f2      	b.n	800480e <MicroVsnprintf+0x1be>
 8004828:	ea23 73e3 	bic.w	r3, r3, r3, asr #31
 800482c:	f1c3 0307 	rsb	r3, r3, #7
 8004830:	4403      	add	r3, r0
 8004832:	4618      	mov	r0, r3
 8004834:	f813 2d01 	ldrb.w	r2, [r3, #-1]!
 8004838:	2a30      	cmp	r2, #48	; 0x30
 800483a:	d101      	bne.n	8004840 <MicroVsnprintf+0x1f0>
 800483c:	42bb      	cmp	r3, r7
 800483e:	d8f8      	bhi.n	8004832 <MicroVsnprintf+0x1e2>
 8004840:	2300      	movs	r3, #0
 8004842:	7003      	strb	r3, [r0, #0]
 8004844:	9b01      	ldr	r3, [sp, #4]
 8004846:	4a1c      	ldr	r2, [pc, #112]	; (80048b8 <MicroVsnprintf+0x268>)
 8004848:	1a19      	subs	r1, r3, r0
 800484a:	f7ff fec9 	bl	80045e0 <_ZN12_GLOBAL__N_19StrCatStrEPciPKc>
 800484e:	9b01      	ldr	r3, [sp, #4]
 8004850:	f1ba 0f00 	cmp.w	sl, #0
 8004854:	eba3 0b00 	sub.w	fp, r3, r0
 8004858:	bfbf      	itttt	lt
 800485a:	232d      	movlt	r3, #45	; 0x2d
 800485c:	f88d 3020 	strblt.w	r3, [sp, #32]
 8004860:	9b03      	ldrlt	r3, [sp, #12]
 8004862:	f1c3 0a7f 	rsblt	sl, r3, #127	; 0x7f
 8004866:	4607      	mov	r7, r0
 8004868:	bfb4      	ite	lt
 800486a:	f10d 0121 	addlt.w	r1, sp, #33	; 0x21
 800486e:	a908      	addge	r1, sp, #32
 8004870:	220a      	movs	r2, #10
 8004872:	4650      	mov	r0, sl
 8004874:	f7ff feca 	bl	800460c <_ZN12_GLOBAL__N_122FastUInt32ToBufferLeftEmPci>
 8004878:	aa08      	add	r2, sp, #32
 800487a:	4659      	mov	r1, fp
 800487c:	4638      	mov	r0, r7
 800487e:	e77b      	b.n	8004778 <MicroVsnprintf+0x128>
 8004880:	f108 0202 	add.w	r2, r8, #2
 8004884:	3501      	adds	r5, #1
 8004886:	7033      	strb	r3, [r6, #0]
 8004888:	e705      	b.n	8004696 <MicroVsnprintf+0x46>
 800488a:	f854 2b04 	ldr.w	r2, [r4], #4
 800488e:	3a01      	subs	r2, #1
 8004890:	f812 3f01 	ldrb.w	r3, [r2, #1]!
 8004894:	2b00      	cmp	r3, #0
 8004896:	f43f af23 	beq.w	80046e0 <MicroVsnprintf+0x90>
 800489a:	3102      	adds	r1, #2
 800489c:	4549      	cmp	r1, r9
 800489e:	f806 3b01 	strb.w	r3, [r6], #1
 80048a2:	f105 0501 	add.w	r5, r5, #1
 80048a6:	dbf3      	blt.n	8004890 <MicroVsnprintf+0x240>
 80048a8:	e71a      	b.n	80046e0 <MicroVsnprintf+0x90>
 80048aa:	bf00      	nop
 80048ac:	0800a01e 	.word	0x0800a01e
 80048b0:	0800a022 	.word	0x0800a022
 80048b4:	0800a02a 	.word	0x0800a02a
 80048b8:	0800a026 	.word	0x0800a026

080048bc <_ZN6tflite21SimpleMemoryAllocatorD1Ev>:
 80048bc:	4770      	bx	lr

080048be <_ZN6tflite21SimpleMemoryAllocator20ResetTempAllocationsEv>:
 80048be:	6903      	ldr	r3, [r0, #16]
 80048c0:	6183      	str	r3, [r0, #24]
 80048c2:	4770      	bx	lr

080048c4 <_ZN6tflite21SimpleMemoryAllocatorD0Ev>:
 80048c4:	b510      	push	{r4, lr}
 80048c6:	211c      	movs	r1, #28
 80048c8:	4604      	mov	r4, r0
 80048ca:	f000 fecf 	bl	800566c <_ZdlPvj>
 80048ce:	4620      	mov	r0, r4
 80048d0:	bd10      	pop	{r4, pc}
	...

080048d4 <_ZN6tflite21SimpleMemoryAllocator16AllocateFromTailEjj>:
 80048d4:	b537      	push	{r0, r1, r2, r4, r5, lr}
 80048d6:	4604      	mov	r4, r0
 80048d8:	6940      	ldr	r0, [r0, #20]
 80048da:	460d      	mov	r5, r1
 80048dc:	1b40      	subs	r0, r0, r5
 80048de:	4611      	mov	r1, r2
 80048e0:	f7fe fc09 	bl	80030f6 <_ZN6tflite16AlignPointerDownEPhj>
 80048e4:	6923      	ldr	r3, [r4, #16]
 80048e6:	4283      	cmp	r3, r0
 80048e8:	d90a      	bls.n	8004900 <_ZN6tflite21SimpleMemoryAllocator16AllocateFromTailEjj+0x2c>
 80048ea:	1a1b      	subs	r3, r3, r0
 80048ec:	9300      	str	r3, [sp, #0]
 80048ee:	4905      	ldr	r1, [pc, #20]	; (8004904 <_ZN6tflite21SimpleMemoryAllocator16AllocateFromTailEjj+0x30>)
 80048f0:	6860      	ldr	r0, [r4, #4]
 80048f2:	1aeb      	subs	r3, r5, r3
 80048f4:	462a      	mov	r2, r5
 80048f6:	f7fe f93d 	bl	8002b74 <_ZN6tflite13ErrorReporter6ReportEPKcz>
 80048fa:	2000      	movs	r0, #0
 80048fc:	b003      	add	sp, #12
 80048fe:	bd30      	pop	{r4, r5, pc}
 8004900:	6160      	str	r0, [r4, #20]
 8004902:	e7fb      	b.n	80048fc <_ZN6tflite21SimpleMemoryAllocator16AllocateFromTailEjj+0x28>
 8004904:	0800a038 	.word	0x0800a038

08004908 <_ZN6tflite21SimpleMemoryAllocator12AllocateTempEjj>:
 8004908:	b537      	push	{r0, r1, r2, r4, r5, lr}
 800490a:	4605      	mov	r5, r0
 800490c:	460c      	mov	r4, r1
 800490e:	6980      	ldr	r0, [r0, #24]
 8004910:	4611      	mov	r1, r2
 8004912:	f7fe fbe9 	bl	80030e8 <_ZN6tflite14AlignPointerUpEPhj>
 8004916:	696b      	ldr	r3, [r5, #20]
 8004918:	1a1b      	subs	r3, r3, r0
 800491a:	42a3      	cmp	r3, r4
 800491c:	d209      	bcs.n	8004932 <_ZN6tflite21SimpleMemoryAllocator12AllocateTempEjj+0x2a>
 800491e:	1ae2      	subs	r2, r4, r3
 8004920:	9200      	str	r2, [sp, #0]
 8004922:	4905      	ldr	r1, [pc, #20]	; (8004938 <_ZN6tflite21SimpleMemoryAllocator12AllocateTempEjj+0x30>)
 8004924:	6868      	ldr	r0, [r5, #4]
 8004926:	4622      	mov	r2, r4
 8004928:	f7fe f924 	bl	8002b74 <_ZN6tflite13ErrorReporter6ReportEPKcz>
 800492c:	2000      	movs	r0, #0
 800492e:	b003      	add	sp, #12
 8004930:	bd30      	pop	{r4, r5, pc}
 8004932:	4404      	add	r4, r0
 8004934:	61ac      	str	r4, [r5, #24]
 8004936:	e7fa      	b.n	800492e <_ZN6tflite21SimpleMemoryAllocator12AllocateTempEjj+0x26>
 8004938:	0800a038 	.word	0x0800a038

0800493c <_ZN6tflite21SimpleMemoryAllocator16AllocateFromHeadEjj>:
 800493c:	b538      	push	{r3, r4, r5, lr}
 800493e:	6905      	ldr	r5, [r0, #16]
 8004940:	6983      	ldr	r3, [r0, #24]
 8004942:	429d      	cmp	r5, r3
 8004944:	4604      	mov	r4, r0
 8004946:	d005      	beq.n	8004954 <_ZN6tflite21SimpleMemoryAllocator16AllocateFromHeadEjj+0x18>
 8004948:	4905      	ldr	r1, [pc, #20]	; (8004960 <_ZN6tflite21SimpleMemoryAllocator16AllocateFromHeadEjj+0x24>)
 800494a:	6840      	ldr	r0, [r0, #4]
 800494c:	f7fe f912 	bl	8002b74 <_ZN6tflite13ErrorReporter6ReportEPKcz>
 8004950:	2000      	movs	r0, #0
 8004952:	bd38      	pop	{r3, r4, r5, pc}
 8004954:	6803      	ldr	r3, [r0, #0]
 8004956:	691b      	ldr	r3, [r3, #16]
 8004958:	4798      	blx	r3
 800495a:	69a3      	ldr	r3, [r4, #24]
 800495c:	6123      	str	r3, [r4, #16]
 800495e:	e7f8      	b.n	8004952 <_ZN6tflite21SimpleMemoryAllocator16AllocateFromHeadEjj+0x16>
 8004960:	0800a07c 	.word	0x0800a07c

08004964 <_ZN6tflite21SimpleMemoryAllocatorC1EPNS_13ErrorReporterEPhS3_>:
 8004964:	b530      	push	{r4, r5, lr}
 8004966:	4d04      	ldr	r5, [pc, #16]	; (8004978 <_ZN6tflite21SimpleMemoryAllocatorC1EPNS_13ErrorReporterEPhS3_+0x14>)
 8004968:	6182      	str	r2, [r0, #24]
 800496a:	e9c0 5100 	strd	r5, r1, [r0]
 800496e:	e9c0 2302 	strd	r2, r3, [r0, #8]
 8004972:	e9c0 2304 	strd	r2, r3, [r0, #16]
 8004976:	bd30      	pop	{r4, r5, pc}
 8004978:	0800a0f4 	.word	0x0800a0f4

0800497c <_ZN6tflite21SimpleMemoryAllocator6CreateEPNS_13ErrorReporterEPhj>:
 800497c:	b510      	push	{r4, lr}
 800497e:	b088      	sub	sp, #32
 8004980:	b908      	cbnz	r0, 8004986 <_ZN6tflite21SimpleMemoryAllocator6CreateEPNS_13ErrorReporterEPhj+0xa>
 8004982:	f000 ff45 	bl	8005810 <abort>
 8004986:	2900      	cmp	r1, #0
 8004988:	d0fb      	beq.n	8004982 <_ZN6tflite21SimpleMemoryAllocator6CreateEPNS_13ErrorReporterEPhj+0x6>
 800498a:	440a      	add	r2, r1
 800498c:	4c0e      	ldr	r4, [pc, #56]	; (80049c8 <_ZN6tflite21SimpleMemoryAllocator6CreateEPNS_13ErrorReporterEPhj+0x4c>)
 800498e:	9107      	str	r1, [sp, #28]
 8004990:	e9cd 1203 	strd	r1, r2, [sp, #12]
 8004994:	e9cd 1205 	strd	r1, r2, [sp, #20]
 8004998:	2204      	movs	r2, #4
 800499a:	e9cd 4001 	strd	r4, r0, [sp, #4]
 800499e:	211c      	movs	r1, #28
 80049a0:	eb0d 0002 	add.w	r0, sp, r2
 80049a4:	f7ff ff96 	bl	80048d4 <_ZN6tflite21SimpleMemoryAllocator16AllocateFromTailEjj>
 80049a8:	9a02      	ldr	r2, [sp, #8]
 80049aa:	6042      	str	r2, [r0, #4]
 80049ac:	9a03      	ldr	r2, [sp, #12]
 80049ae:	6082      	str	r2, [r0, #8]
 80049b0:	9a04      	ldr	r2, [sp, #16]
 80049b2:	60c2      	str	r2, [r0, #12]
 80049b4:	9a05      	ldr	r2, [sp, #20]
 80049b6:	6102      	str	r2, [r0, #16]
 80049b8:	9a06      	ldr	r2, [sp, #24]
 80049ba:	6142      	str	r2, [r0, #20]
 80049bc:	9a07      	ldr	r2, [sp, #28]
 80049be:	6004      	str	r4, [r0, #0]
 80049c0:	6182      	str	r2, [r0, #24]
 80049c2:	b008      	add	sp, #32
 80049c4:	bd10      	pop	{r4, pc}
 80049c6:	bf00      	nop
 80049c8:	0800a0f4 	.word	0x0800a0f4

080049cc <_ZNK6tflite21SimpleMemoryAllocator7GetHeadEv>:
 80049cc:	6900      	ldr	r0, [r0, #16]
 80049ce:	4770      	bx	lr

080049d0 <_ZNK6tflite21SimpleMemoryAllocator7GetTailEv>:
 80049d0:	6940      	ldr	r0, [r0, #20]
 80049d2:	4770      	bx	lr

080049d4 <_ZNK6tflite21SimpleMemoryAllocator18GetAvailableMemoryEv>:
 80049d4:	e9d0 0204 	ldrd	r0, r2, [r0, #16]
 80049d8:	1a10      	subs	r0, r2, r0
 80049da:	4770      	bx	lr

080049dc <_ZN6tflite12RuntimeShapeD1Ev>:
 80049dc:	6803      	ldr	r3, [r0, #0]
 80049de:	2b05      	cmp	r3, #5
 80049e0:	b510      	push	{r4, lr}
 80049e2:	4604      	mov	r4, r0
 80049e4:	dd03      	ble.n	80049ee <_ZN6tflite12RuntimeShapeD1Ev+0x12>
 80049e6:	6840      	ldr	r0, [r0, #4]
 80049e8:	b108      	cbz	r0, 80049ee <_ZN6tflite12RuntimeShapeD1Ev+0x12>
 80049ea:	f000 fe41 	bl	8005670 <_ZdaPv>
 80049ee:	4620      	mov	r0, r4
 80049f0:	bd10      	pop	{r4, pc}

080049f2 <_ZNK6tflite12RuntimeShape4DimsEi>:
 80049f2:	2900      	cmp	r1, #0
 80049f4:	b508      	push	{r3, lr}
 80049f6:	da01      	bge.n	80049fc <_ZNK6tflite12RuntimeShape4DimsEi+0xa>
 80049f8:	f000 ff0a 	bl	8005810 <abort>
 80049fc:	6803      	ldr	r3, [r0, #0]
 80049fe:	428b      	cmp	r3, r1
 8004a00:	ddfa      	ble.n	80049f8 <_ZNK6tflite12RuntimeShape4DimsEi+0x6>
 8004a02:	2b05      	cmp	r3, #5
 8004a04:	bfcb      	itete	gt
 8004a06:	6843      	ldrgt	r3, [r0, #4]
 8004a08:	eb00 0081 	addle.w	r0, r0, r1, lsl #2
 8004a0c:	f853 0021 	ldrgt.w	r0, [r3, r1, lsl #2]
 8004a10:	6840      	ldrle	r0, [r0, #4]
 8004a12:	bd08      	pop	{r3, pc}

08004a14 <_ZN6tflite29MultiplyByQuantizedMultiplierElli>:
 8004a14:	b570      	push	{r4, r5, r6, lr}
 8004a16:	ea22 74e2 	bic.w	r4, r2, r2, asr #31
 8004a1a:	2a00      	cmp	r2, #0
 8004a1c:	fa00 f004 	lsl.w	r0, r0, r4
 8004a20:	bfd4      	ite	le
 8004a22:	4252      	negle	r2, r2
 8004a24:	2200      	movgt	r2, #0
 8004a26:	4288      	cmp	r0, r1
 8004a28:	d127      	bne.n	8004a7a <_ZN6tflite29MultiplyByQuantizedMultiplierElli+0x66>
 8004a2a:	f101 4300 	add.w	r3, r1, #2147483648	; 0x80000000
 8004a2e:	425e      	negs	r6, r3
 8004a30:	415e      	adcs	r6, r3
 8004a32:	fb80 4501 	smull	r4, r5, r0, r1
 8004a36:	2c00      	cmp	r4, #0
 8004a38:	f175 0300 	sbcs.w	r3, r5, #0
 8004a3c:	4b19      	ldr	r3, [pc, #100]	; (8004aa4 <_ZN6tflite29MultiplyByQuantizedMultiplierElli+0x90>)
 8004a3e:	bfa8      	it	ge
 8004a40:	f04f 4380 	movge.w	r3, #1073741824	; 0x40000000
 8004a44:	b9de      	cbnz	r6, 8004a7e <_ZN6tflite29MultiplyByQuantizedMultiplierElli+0x6a>
 8004a46:	18e4      	adds	r4, r4, r3
 8004a48:	eb45 75e3 	adc.w	r5, r5, r3, asr #31
 8004a4c:	2c00      	cmp	r4, #0
 8004a4e:	f175 0300 	sbcs.w	r3, r5, #0
 8004a52:	da06      	bge.n	8004a62 <_ZN6tflite29MultiplyByQuantizedMultiplierElli+0x4e>
 8004a54:	f06f 4300 	mvn.w	r3, #2147483648	; 0x80000000
 8004a58:	18e4      	adds	r4, r4, r3
 8004a5a:	f04f 0300 	mov.w	r3, #0
 8004a5e:	eb43 0505 	adc.w	r5, r3, r5
 8004a62:	0fe1      	lsrs	r1, r4, #31
 8004a64:	ea41 0145 	orr.w	r1, r1, r5, lsl #1
 8004a68:	2a1f      	cmp	r2, #31
 8004a6a:	dd0b      	ble.n	8004a84 <_ZN6tflite29MultiplyByQuantizedMultiplierElli+0x70>
 8004a6c:	4b0e      	ldr	r3, [pc, #56]	; (8004aa8 <_ZN6tflite29MultiplyByQuantizedMultiplierElli+0x94>)
 8004a6e:	4a0f      	ldr	r2, [pc, #60]	; (8004aac <_ZN6tflite29MultiplyByQuantizedMultiplierElli+0x98>)
 8004a70:	480f      	ldr	r0, [pc, #60]	; (8004ab0 <_ZN6tflite29MultiplyByQuantizedMultiplierElli+0x9c>)
 8004a72:	f240 1167 	movw	r1, #359	; 0x167
 8004a76:	f000 fed3 	bl	8005820 <__assert_func>
 8004a7a:	2600      	movs	r6, #0
 8004a7c:	e7d9      	b.n	8004a32 <_ZN6tflite29MultiplyByQuantizedMultiplierElli+0x1e>
 8004a7e:	f06f 4100 	mvn.w	r1, #2147483648	; 0x80000000
 8004a82:	e7f1      	b.n	8004a68 <_ZN6tflite29MultiplyByQuantizedMultiplierElli+0x54>
 8004a84:	2301      	movs	r3, #1
 8004a86:	4093      	lsls	r3, r2
 8004a88:	3b01      	subs	r3, #1
 8004a8a:	ea03 0001 	and.w	r0, r3, r1
 8004a8e:	105b      	asrs	r3, r3, #1
 8004a90:	eb03 73d1 	add.w	r3, r3, r1, lsr #31
 8004a94:	fa41 f202 	asr.w	r2, r1, r2
 8004a98:	4298      	cmp	r0, r3
 8004a9a:	bfd4      	ite	le
 8004a9c:	4610      	movle	r0, r2
 8004a9e:	1c50      	addgt	r0, r2, #1
 8004aa0:	bd70      	pop	{r4, r5, r6, pc}
 8004aa2:	bf00      	nop
 8004aa4:	c0000001 	.word	0xc0000001
 8004aa8:	0800a10c 	.word	0x0800a10c
 8004aac:	0800a11b 	.word	0x0800a11b
 8004ab0:	0800a175 	.word	0x0800a175

08004ab4 <_ZN6tflite11MatchingDimERKNS_12RuntimeShapeEiS2_i>:
 8004ab4:	b570      	push	{r4, r5, r6, lr}
 8004ab6:	4615      	mov	r5, r2
 8004ab8:	461e      	mov	r6, r3
 8004aba:	f7ff ff9a 	bl	80049f2 <_ZNK6tflite12RuntimeShape4DimsEi>
 8004abe:	4631      	mov	r1, r6
 8004ac0:	4604      	mov	r4, r0
 8004ac2:	4628      	mov	r0, r5
 8004ac4:	f7ff ff95 	bl	80049f2 <_ZNK6tflite12RuntimeShape4DimsEi>
 8004ac8:	4284      	cmp	r4, r0
 8004aca:	d001      	beq.n	8004ad0 <_ZN6tflite11MatchingDimERKNS_12RuntimeShapeEiS2_i+0x1c>
 8004acc:	f000 fea0 	bl	8005810 <abort>
 8004ad0:	bd70      	pop	{r4, r5, r6, pc}

08004ad2 <_ZN6tflite3ops5micro15fully_connected4InitEP13TfLiteContextPKcj>:
 8004ad2:	6b83      	ldr	r3, [r0, #56]	; 0x38
 8004ad4:	b510      	push	{r4, lr}
 8004ad6:	b90b      	cbnz	r3, 8004adc <_ZN6tflite3ops5micro15fully_connected4InitEP13TfLiteContextPKcj+0xa>
 8004ad8:	f000 fe9a 	bl	8005810 <abort>
 8004adc:	e8bd 4010 	ldmia.w	sp!, {r4, lr}
 8004ae0:	2120      	movs	r1, #32
 8004ae2:	4718      	bx	r3

08004ae4 <_ZN6tflite3ops5micro15fully_connected7PrepareEP13TfLiteContextP10TfLiteNode>:
 8004ae4:	e92d 43f0 	stmdb	sp!, {r4, r5, r6, r7, r8, r9, lr}
 8004ae8:	690d      	ldr	r5, [r1, #16]
 8004aea:	b08b      	sub	sp, #44	; 0x2c
 8004aec:	4604      	mov	r4, r0
 8004aee:	460e      	mov	r6, r1
 8004af0:	b90d      	cbnz	r5, 8004af6 <_ZN6tflite3ops5micro15fully_connected7PrepareEP13TfLiteContextP10TfLiteNode+0x12>
 8004af2:	f000 fe8d 	bl	8005810 <abort>
 8004af6:	f8d1 9014 	ldr.w	r9, [r1, #20]
 8004afa:	f1b9 0f00 	cmp.w	r9, #0
 8004afe:	d0f8      	beq.n	8004af2 <_ZN6tflite3ops5micro15fully_connected7PrepareEP13TfLiteContextP10TfLiteNode+0xe>
 8004b00:	2200      	movs	r2, #0
 8004b02:	f7fe f9cf 	bl	8002ea4 <_ZN6tflite8GetInputEPK13TfLiteContextPK10TfLiteNodei>
 8004b06:	4631      	mov	r1, r6
 8004b08:	4680      	mov	r8, r0
 8004b0a:	2201      	movs	r2, #1
 8004b0c:	4620      	mov	r0, r4
 8004b0e:	f7fe f9c9 	bl	8002ea4 <_ZN6tflite8GetInputEPK13TfLiteContextPK10TfLiteNodei>
 8004b12:	4631      	mov	r1, r6
 8004b14:	2202      	movs	r2, #2
 8004b16:	4607      	mov	r7, r0
 8004b18:	4620      	mov	r0, r4
 8004b1a:	f7fe f9e3 	bl	8002ee4 <_ZN6tflite22GetOptionalInputTensorEPK13TfLiteContextPK10TfLiteNodei>
 8004b1e:	4631      	mov	r1, r6
 8004b20:	9005      	str	r0, [sp, #20]
 8004b22:	2200      	movs	r2, #0
 8004b24:	4620      	mov	r0, r4
 8004b26:	f7fe f9cd 	bl	8002ec4 <_ZN6tflite9GetOutputEP13TfLiteContextPK10TfLiteNodei>
 8004b2a:	4606      	mov	r6, r0
 8004b2c:	f898 0000 	ldrb.w	r0, [r8]
 8004b30:	7831      	ldrb	r1, [r6, #0]
 8004b32:	9b05      	ldr	r3, [sp, #20]
 8004b34:	4281      	cmp	r1, r0
 8004b36:	d015      	beq.n	8004b64 <_ZN6tflite3ops5micro15fully_connected7PrepareEP13TfLiteContextP10TfLiteNode+0x80>
 8004b38:	6967      	ldr	r7, [r4, #20]
 8004b3a:	f7fe f80f 	bl	8002b5c <TfLiteTypeGetName>
 8004b3e:	4605      	mov	r5, r0
 8004b40:	7830      	ldrb	r0, [r6, #0]
 8004b42:	f7fe f80b 	bl	8002b5c <TfLiteTypeGetName>
 8004b46:	4b24      	ldr	r3, [pc, #144]	; (8004bd8 <_ZN6tflite3ops5micro15fully_connected7PrepareEP13TfLiteContextP10TfLiteNode+0xf4>)
 8004b48:	9301      	str	r3, [sp, #4]
 8004b4a:	4b24      	ldr	r3, [pc, #144]	; (8004bdc <_ZN6tflite3ops5micro15fully_connected7PrepareEP13TfLiteContextP10TfLiteNode+0xf8>)
 8004b4c:	9300      	str	r3, [sp, #0]
 8004b4e:	e9cd 5002 	strd	r5, r0, [sp, #8]
 8004b52:	4a23      	ldr	r2, [pc, #140]	; (8004be0 <_ZN6tflite3ops5micro15fully_connected7PrepareEP13TfLiteContextP10TfLiteNode+0xfc>)
 8004b54:	4923      	ldr	r1, [pc, #140]	; (8004be4 <_ZN6tflite3ops5micro15fully_connected7PrepareEP13TfLiteContextP10TfLiteNode+0x100>)
 8004b56:	2364      	movs	r3, #100	; 0x64
 8004b58:	4620      	mov	r0, r4
 8004b5a:	47b8      	blx	r7
 8004b5c:	2001      	movs	r0, #1
 8004b5e:	b00b      	add	sp, #44	; 0x2c
 8004b60:	e8bd 83f0 	ldmia.w	sp!, {r4, r5, r6, r7, r8, r9, pc}
 8004b64:	783a      	ldrb	r2, [r7, #0]
 8004b66:	428a      	cmp	r2, r1
 8004b68:	d004      	beq.n	8004b74 <_ZN6tflite3ops5micro15fully_connected7PrepareEP13TfLiteContextP10TfLiteNode+0x90>
 8004b6a:	6963      	ldr	r3, [r4, #20]
 8004b6c:	491e      	ldr	r1, [pc, #120]	; (8004be8 <_ZN6tflite3ops5micro15fully_connected7PrepareEP13TfLiteContextP10TfLiteNode+0x104>)
 8004b6e:	4620      	mov	r0, r4
 8004b70:	4798      	blx	r3
 8004b72:	e7f3      	b.n	8004b5c <_ZN6tflite3ops5micro15fully_connected7PrepareEP13TfLiteContextP10TfLiteNode+0x78>
 8004b74:	2a01      	cmp	r2, #1
 8004b76:	d02c      	beq.n	8004bd2 <_ZN6tflite3ops5micro15fully_connected7PrepareEP13TfLiteContextP10TfLiteNode+0xee>
 8004b78:	2000      	movs	r0, #0
 8004b7a:	2100      	movs	r1, #0
 8004b7c:	aa08      	add	r2, sp, #32
 8004b7e:	f899 9000 	ldrb.w	r9, [r9]
 8004b82:	e9cd 0108 	strd	r0, r1, [sp, #32]
 8004b86:	e9cd 6200 	strd	r6, r2, [sp]
 8004b8a:	4641      	mov	r1, r8
 8004b8c:	463a      	mov	r2, r7
 8004b8e:	4620      	mov	r0, r4
 8004b90:	f7fe f9f2 	bl	8002f78 <_ZN6tflite32GetQuantizedConvolutionMultiplerEP13TfLiteContextPK12TfLiteTensorS4_S4_PS2_Pd>
 8004b94:	2800      	cmp	r0, #0
 8004b96:	d1e2      	bne.n	8004b5e <_ZN6tflite3ops5micro15fully_connected7PrepareEP13TfLiteContextP10TfLiteNode+0x7a>
 8004b98:	a907      	add	r1, sp, #28
 8004b9a:	4628      	mov	r0, r5
 8004b9c:	ed9d 0b08 	vldr	d0, [sp, #32]
 8004ba0:	f7fe f92c 	bl	8002dfc <_ZN6tflite18QuantizeMultiplierEdPlPi>
 8004ba4:	9b07      	ldr	r3, [sp, #28]
 8004ba6:	425b      	negs	r3, r3
 8004ba8:	606b      	str	r3, [r5, #4]
 8004baa:	f105 030c 	add.w	r3, r5, #12
 8004bae:	9300      	str	r3, [sp, #0]
 8004bb0:	4632      	mov	r2, r6
 8004bb2:	f105 0308 	add.w	r3, r5, #8
 8004bb6:	4649      	mov	r1, r9
 8004bb8:	4620      	mov	r0, r4
 8004bba:	f7fe fa33 	bl	8003024 <_ZN6tflite33CalculateActivationRangeQuantizedEP13TfLiteContext21TfLiteFusedActivationP12TfLiteTensorPlS5_>
 8004bbe:	2800      	cmp	r0, #0
 8004bc0:	d1cd      	bne.n	8004b5e <_ZN6tflite3ops5micro15fully_connected7PrepareEP13TfLiteContextP10TfLiteNode+0x7a>
 8004bc2:	f8d8 2010 	ldr.w	r2, [r8, #16]
 8004bc6:	616a      	str	r2, [r5, #20]
 8004bc8:	693a      	ldr	r2, [r7, #16]
 8004bca:	61aa      	str	r2, [r5, #24]
 8004bcc:	6932      	ldr	r2, [r6, #16]
 8004bce:	61ea      	str	r2, [r5, #28]
 8004bd0:	e7c5      	b.n	8004b5e <_ZN6tflite3ops5micro15fully_connected7PrepareEP13TfLiteContextP10TfLiteNode+0x7a>
 8004bd2:	2000      	movs	r0, #0
 8004bd4:	e7c3      	b.n	8004b5e <_ZN6tflite3ops5micro15fully_connected7PrepareEP13TfLiteContextP10TfLiteNode+0x7a>
 8004bd6:	bf00      	nop
 8004bd8:	0800a25a 	.word	0x0800a25a
 8004bdc:	0800a267 	.word	0x0800a267
 8004be0:	0800a1fc 	.word	0x0800a1fc
 8004be4:	0800a240 	.word	0x0800a240
 8004be8:	0800a273 	.word	0x0800a273

08004bec <_ZN6tflite15FlatSizeSkipDimERKNS_12RuntimeShapeEi>:
 8004bec:	2900      	cmp	r1, #0
 8004bee:	b538      	push	{r3, r4, r5, lr}
 8004bf0:	6804      	ldr	r4, [r0, #0]
 8004bf2:	db01      	blt.n	8004bf8 <_ZN6tflite15FlatSizeSkipDimERKNS_12RuntimeShapeEi+0xc>
 8004bf4:	42a1      	cmp	r1, r4
 8004bf6:	db01      	blt.n	8004bfc <_ZN6tflite15FlatSizeSkipDimERKNS_12RuntimeShapeEi+0x10>
 8004bf8:	f000 fe0a 	bl	8005810 <abort>
 8004bfc:	2c05      	cmp	r4, #5
 8004bfe:	bfcc      	ite	gt
 8004c00:	6843      	ldrgt	r3, [r0, #4]
 8004c02:	1d03      	addle	r3, r0, #4
 8004c04:	2200      	movs	r2, #0
 8004c06:	2001      	movs	r0, #1
 8004c08:	4291      	cmp	r1, r2
 8004c0a:	bf18      	it	ne
 8004c0c:	f853 5022 	ldrne.w	r5, [r3, r2, lsl #2]
 8004c10:	f102 0201 	add.w	r2, r2, #1
 8004c14:	bf08      	it	eq
 8004c16:	2501      	moveq	r5, #1
 8004c18:	42a2      	cmp	r2, r4
 8004c1a:	fb05 f000 	mul.w	r0, r5, r0
 8004c1e:	dbf3      	blt.n	8004c08 <_ZN6tflite15FlatSizeSkipDimERKNS_12RuntimeShapeEi+0x1c>
 8004c20:	bd38      	pop	{r3, r4, r5, pc}

08004c22 <_ZN6tflite13reference_ops14FullyConnectedERKNS_20FullyConnectedParamsERKNS_12RuntimeShapeEPKhS6_S8_S6_PKlS6_Ph>:
 8004c22:	e92d 4ff0 	stmdb	sp!, {r4, r5, r6, r7, r8, r9, sl, fp, lr}
 8004c26:	ed2d 8b02 	vpush	{d8}
 8004c2a:	b089      	sub	sp, #36	; 0x24
 8004c2c:	461d      	mov	r5, r3
 8004c2e:	6803      	ldr	r3, [r0, #0]
 8004c30:	9303      	str	r3, [sp, #12]
 8004c32:	6843      	ldr	r3, [r0, #4]
 8004c34:	9304      	str	r3, [sp, #16]
 8004c36:	6883      	ldr	r3, [r0, #8]
 8004c38:	9305      	str	r3, [sp, #20]
 8004c3a:	68c3      	ldr	r3, [r0, #12]
 8004c3c:	682e      	ldr	r6, [r5, #0]
 8004c3e:	9f17      	ldr	r7, [sp, #92]	; 0x5c
 8004c40:	ee08 3a10 	vmov	s16, r3
 8004c44:	6903      	ldr	r3, [r0, #16]
 8004c46:	ee08 3a90 	vmov	s17, r3
 8004c4a:	6943      	ldr	r3, [r0, #20]
 8004c4c:	9300      	str	r3, [sp, #0]
 8004c4e:	2e01      	cmp	r6, #1
 8004c50:	6983      	ldr	r3, [r0, #24]
 8004c52:	9301      	str	r3, [sp, #4]
 8004c54:	4614      	mov	r4, r2
 8004c56:	dc01      	bgt.n	8004c5c <_ZN6tflite13reference_ops14FullyConnectedERKNS_20FullyConnectedParamsERKNS_12RuntimeShapeEPKhS6_S8_S6_PKlS6_Ph+0x3a>
 8004c58:	f000 fdda 	bl	8005810 <abort>
 8004c5c:	683b      	ldr	r3, [r7, #0]
 8004c5e:	2b00      	cmp	r3, #0
 8004c60:	ddfa      	ble.n	8004c58 <_ZN6tflite13reference_ops14FullyConnectedERKNS_20FullyConnectedParamsERKNS_12RuntimeShapeEPKhS6_S8_S6_PKlS6_Ph+0x36>
 8004c62:	e9dd 2100 	ldrd	r2, r1, [sp]
 8004c66:	428a      	cmp	r2, r1
 8004c68:	dcf6      	bgt.n	8004c58 <_ZN6tflite13reference_ops14FullyConnectedERKNS_20FullyConnectedParamsERKNS_12RuntimeShapeEPKhS6_S8_S6_PKlS6_Ph+0x36>
 8004c6a:	3b01      	subs	r3, #1
 8004c6c:	4619      	mov	r1, r3
 8004c6e:	4638      	mov	r0, r7
 8004c70:	9302      	str	r3, [sp, #8]
 8004c72:	f7ff ffbb 	bl	8004bec <_ZN6tflite15FlatSizeSkipDimERKNS_12RuntimeShapeEi>
 8004c76:	463a      	mov	r2, r7
 8004c78:	1eb1      	subs	r1, r6, #2
 8004c7a:	9b02      	ldr	r3, [sp, #8]
 8004c7c:	9006      	str	r0, [sp, #24]
 8004c7e:	4628      	mov	r0, r5
 8004c80:	f7ff ff18 	bl	8004ab4 <_ZN6tflite11MatchingDimERKNS_12RuntimeShapeEiS2_i>
 8004c84:	1e71      	subs	r1, r6, #1
 8004c86:	4607      	mov	r7, r0
 8004c88:	4628      	mov	r0, r5
 8004c8a:	f7ff feb2 	bl	80049f2 <_ZNK6tflite12RuntimeShape4DimsEi>
 8004c8e:	2600      	movs	r6, #0
 8004c90:	4605      	mov	r5, r0
 8004c92:	46b2      	mov	sl, r6
 8004c94:	9b06      	ldr	r3, [sp, #24]
 8004c96:	459a      	cmp	sl, r3
 8004c98:	da41      	bge.n	8004d1e <_ZN6tflite13reference_ops14FullyConnectedERKNS_20FullyConnectedParamsERKNS_12RuntimeShapeEPKhS6_S8_S6_PKlS6_Ph+0xfc>
 8004c9a:	9b18      	ldr	r3, [sp, #96]	; 0x60
 8004c9c:	f04f 0800 	mov.w	r8, #0
 8004ca0:	eb03 0b06 	add.w	fp, r3, r6
 8004ca4:	46c1      	mov	r9, r8
 8004ca6:	45b9      	cmp	r9, r7
 8004ca8:	da34      	bge.n	8004d14 <_ZN6tflite13reference_ops14FullyConnectedERKNS_20FullyConnectedParamsERKNS_12RuntimeShapeEPKhS6_S8_S6_PKlS6_Ph+0xf2>
 8004caa:	9b14      	ldr	r3, [sp, #80]	; 0x50
 8004cac:	eb03 0c08 	add.w	ip, r3, r8
 8004cb0:	2300      	movs	r3, #0
 8004cb2:	46a6      	mov	lr, r4
 8004cb4:	461a      	mov	r2, r3
 8004cb6:	42aa      	cmp	r2, r5
 8004cb8:	da10      	bge.n	8004cdc <_ZN6tflite13reference_ops14FullyConnectedERKNS_20FullyConnectedParamsERKNS_12RuntimeShapeEPKhS6_S8_S6_PKlS6_Ph+0xba>
 8004cba:	f81e 1b01 	ldrb.w	r1, [lr], #1
 8004cbe:	9804      	ldr	r0, [sp, #16]
 8004cc0:	9102      	str	r1, [sp, #8]
 8004cc2:	f81c 1b01 	ldrb.w	r1, [ip], #1
 8004cc6:	4401      	add	r1, r0
 8004cc8:	9107      	str	r1, [sp, #28]
 8004cca:	e9dd 1002 	ldrd	r1, r0, [sp, #8]
 8004cce:	4401      	add	r1, r0
 8004cd0:	4608      	mov	r0, r1
 8004cd2:	9907      	ldr	r1, [sp, #28]
 8004cd4:	3201      	adds	r2, #1
 8004cd6:	fb00 3301 	mla	r3, r0, r1, r3
 8004cda:	e7ec      	b.n	8004cb6 <_ZN6tflite13reference_ops14FullyConnectedERKNS_20FullyConnectedParamsERKNS_12RuntimeShapeEPKhS6_S8_S6_PKlS6_Ph+0x94>
 8004cdc:	9a16      	ldr	r2, [sp, #88]	; 0x58
 8004cde:	b112      	cbz	r2, 8004ce6 <_ZN6tflite13reference_ops14FullyConnectedERKNS_20FullyConnectedParamsERKNS_12RuntimeShapeEPKhS6_S8_S6_PKlS6_Ph+0xc4>
 8004ce0:	f852 2029 	ldr.w	r2, [r2, r9, lsl #2]
 8004ce4:	4413      	add	r3, r2
 8004ce6:	4618      	mov	r0, r3
 8004ce8:	ee18 2a90 	vmov	r2, s17
 8004cec:	ee18 1a10 	vmov	r1, s16
 8004cf0:	f7ff fe90 	bl	8004a14 <_ZN6tflite29MultiplyByQuantizedMultiplierElli>
 8004cf4:	9b05      	ldr	r3, [sp, #20]
 8004cf6:	4418      	add	r0, r3
 8004cf8:	9b00      	ldr	r3, [sp, #0]
 8004cfa:	4298      	cmp	r0, r3
 8004cfc:	bfb8      	it	lt
 8004cfe:	4618      	movlt	r0, r3
 8004d00:	9b01      	ldr	r3, [sp, #4]
 8004d02:	4298      	cmp	r0, r3
 8004d04:	bfa8      	it	ge
 8004d06:	4618      	movge	r0, r3
 8004d08:	f80b 0b01 	strb.w	r0, [fp], #1
 8004d0c:	f109 0901 	add.w	r9, r9, #1
 8004d10:	44a8      	add	r8, r5
 8004d12:	e7c8      	b.n	8004ca6 <_ZN6tflite13reference_ops14FullyConnectedERKNS_20FullyConnectedParamsERKNS_12RuntimeShapeEPKhS6_S8_S6_PKlS6_Ph+0x84>
 8004d14:	f10a 0a01 	add.w	sl, sl, #1
 8004d18:	443e      	add	r6, r7
 8004d1a:	442c      	add	r4, r5
 8004d1c:	e7ba      	b.n	8004c94 <_ZN6tflite13reference_ops14FullyConnectedERKNS_20FullyConnectedParamsERKNS_12RuntimeShapeEPKhS6_S8_S6_PKlS6_Ph+0x72>
 8004d1e:	b009      	add	sp, #36	; 0x24
 8004d20:	ecbd 8b02 	vpop	{d8}
 8004d24:	e8bd 8ff0 	ldmia.w	sp!, {r4, r5, r6, r7, r8, r9, sl, fp, pc}

08004d28 <_ZN6tflite21reference_integer_ops14FullyConnectedERKNS_20FullyConnectedParamsERKNS_12RuntimeShapeEPKaS6_S8_S6_PKlS6_Pa>:
 8004d28:	e92d 4ff0 	stmdb	sp!, {r4, r5, r6, r7, r8, r9, sl, fp, lr}
 8004d2c:	ed2d 8b02 	vpush	{d8}
 8004d30:	b089      	sub	sp, #36	; 0x24
 8004d32:	461d      	mov	r5, r3
 8004d34:	6803      	ldr	r3, [r0, #0]
 8004d36:	9303      	str	r3, [sp, #12]
 8004d38:	6843      	ldr	r3, [r0, #4]
 8004d3a:	9304      	str	r3, [sp, #16]
 8004d3c:	6883      	ldr	r3, [r0, #8]
 8004d3e:	9305      	str	r3, [sp, #20]
 8004d40:	68c3      	ldr	r3, [r0, #12]
 8004d42:	682f      	ldr	r7, [r5, #0]
 8004d44:	9e17      	ldr	r6, [sp, #92]	; 0x5c
 8004d46:	ee08 3a10 	vmov	s16, r3
 8004d4a:	6903      	ldr	r3, [r0, #16]
 8004d4c:	ee08 3a90 	vmov	s17, r3
 8004d50:	6943      	ldr	r3, [r0, #20]
 8004d52:	9300      	str	r3, [sp, #0]
 8004d54:	2f01      	cmp	r7, #1
 8004d56:	6983      	ldr	r3, [r0, #24]
 8004d58:	9301      	str	r3, [sp, #4]
 8004d5a:	4614      	mov	r4, r2
 8004d5c:	dc01      	bgt.n	8004d62 <_ZN6tflite21reference_integer_ops14FullyConnectedERKNS_20FullyConnectedParamsERKNS_12RuntimeShapeEPKaS6_S8_S6_PKlS6_Pa+0x3a>
 8004d5e:	f000 fd57 	bl	8005810 <abort>
 8004d62:	6833      	ldr	r3, [r6, #0]
 8004d64:	2b02      	cmp	r3, #2
 8004d66:	d1fa      	bne.n	8004d5e <_ZN6tflite21reference_integer_ops14FullyConnectedERKNS_20FullyConnectedParamsERKNS_12RuntimeShapeEPKaS6_S8_S6_PKlS6_Pa+0x36>
 8004d68:	e9dd 3200 	ldrd	r3, r2, [sp]
 8004d6c:	4293      	cmp	r3, r2
 8004d6e:	dcf6      	bgt.n	8004d5e <_ZN6tflite21reference_integer_ops14FullyConnectedERKNS_20FullyConnectedParamsERKNS_12RuntimeShapeEPKaS6_S8_S6_PKlS6_Pa+0x36>
 8004d70:	2100      	movs	r1, #0
 8004d72:	4630      	mov	r0, r6
 8004d74:	f7ff fe3d 	bl	80049f2 <_ZNK6tflite12RuntimeShape4DimsEi>
 8004d78:	2101      	movs	r1, #1
 8004d7a:	9006      	str	r0, [sp, #24]
 8004d7c:	4630      	mov	r0, r6
 8004d7e:	f7ff fe38 	bl	80049f2 <_ZNK6tflite12RuntimeShape4DimsEi>
 8004d82:	1eb9      	subs	r1, r7, #2
 8004d84:	4606      	mov	r6, r0
 8004d86:	4628      	mov	r0, r5
 8004d88:	f7ff fe33 	bl	80049f2 <_ZNK6tflite12RuntimeShape4DimsEi>
 8004d8c:	42b0      	cmp	r0, r6
 8004d8e:	dbe6      	blt.n	8004d5e <_ZN6tflite21reference_integer_ops14FullyConnectedERKNS_20FullyConnectedParamsERKNS_12RuntimeShapeEPKaS6_S8_S6_PKlS6_Pa+0x36>
 8004d90:	1e79      	subs	r1, r7, #1
 8004d92:	4628      	mov	r0, r5
 8004d94:	f7ff fe2d 	bl	80049f2 <_ZNK6tflite12RuntimeShape4DimsEi>
 8004d98:	2700      	movs	r7, #0
 8004d9a:	4605      	mov	r5, r0
 8004d9c:	46ba      	mov	sl, r7
 8004d9e:	9b06      	ldr	r3, [sp, #24]
 8004da0:	459a      	cmp	sl, r3
 8004da2:	da41      	bge.n	8004e28 <_ZN6tflite21reference_integer_ops14FullyConnectedERKNS_20FullyConnectedParamsERKNS_12RuntimeShapeEPKaS6_S8_S6_PKlS6_Pa+0x100>
 8004da4:	9b18      	ldr	r3, [sp, #96]	; 0x60
 8004da6:	f04f 0800 	mov.w	r8, #0
 8004daa:	eb03 0b07 	add.w	fp, r3, r7
 8004dae:	46c1      	mov	r9, r8
 8004db0:	45b1      	cmp	r9, r6
 8004db2:	da34      	bge.n	8004e1e <_ZN6tflite21reference_integer_ops14FullyConnectedERKNS_20FullyConnectedParamsERKNS_12RuntimeShapeEPKaS6_S8_S6_PKlS6_Pa+0xf6>
 8004db4:	9b14      	ldr	r3, [sp, #80]	; 0x50
 8004db6:	eb03 0c08 	add.w	ip, r3, r8
 8004dba:	2300      	movs	r3, #0
 8004dbc:	46a6      	mov	lr, r4
 8004dbe:	461a      	mov	r2, r3
 8004dc0:	42aa      	cmp	r2, r5
 8004dc2:	da10      	bge.n	8004de6 <_ZN6tflite21reference_integer_ops14FullyConnectedERKNS_20FullyConnectedParamsERKNS_12RuntimeShapeEPKaS6_S8_S6_PKlS6_Pa+0xbe>
 8004dc4:	f91e 1b01 	ldrsb.w	r1, [lr], #1
 8004dc8:	9804      	ldr	r0, [sp, #16]
 8004dca:	9102      	str	r1, [sp, #8]
 8004dcc:	f91c 1b01 	ldrsb.w	r1, [ip], #1
 8004dd0:	4401      	add	r1, r0
 8004dd2:	9107      	str	r1, [sp, #28]
 8004dd4:	e9dd 1002 	ldrd	r1, r0, [sp, #8]
 8004dd8:	4401      	add	r1, r0
 8004dda:	4608      	mov	r0, r1
 8004ddc:	9907      	ldr	r1, [sp, #28]
 8004dde:	3201      	adds	r2, #1
 8004de0:	fb00 3301 	mla	r3, r0, r1, r3
 8004de4:	e7ec      	b.n	8004dc0 <_ZN6tflite21reference_integer_ops14FullyConnectedERKNS_20FullyConnectedParamsERKNS_12RuntimeShapeEPKaS6_S8_S6_PKlS6_Pa+0x98>
 8004de6:	9a16      	ldr	r2, [sp, #88]	; 0x58
 8004de8:	b112      	cbz	r2, 8004df0 <_ZN6tflite21reference_integer_ops14FullyConnectedERKNS_20FullyConnectedParamsERKNS_12RuntimeShapeEPKaS6_S8_S6_PKlS6_Pa+0xc8>
 8004dea:	f852 2029 	ldr.w	r2, [r2, r9, lsl #2]
 8004dee:	4413      	add	r3, r2
 8004df0:	4618      	mov	r0, r3
 8004df2:	ee18 2a90 	vmov	r2, s17
 8004df6:	ee18 1a10 	vmov	r1, s16
 8004dfa:	f7ff fe0b 	bl	8004a14 <_ZN6tflite29MultiplyByQuantizedMultiplierElli>
 8004dfe:	9b05      	ldr	r3, [sp, #20]
 8004e00:	4418      	add	r0, r3
 8004e02:	9b00      	ldr	r3, [sp, #0]
 8004e04:	4298      	cmp	r0, r3
 8004e06:	bfb8      	it	lt
 8004e08:	4618      	movlt	r0, r3
 8004e0a:	9b01      	ldr	r3, [sp, #4]
 8004e0c:	4298      	cmp	r0, r3
 8004e0e:	bfa8      	it	ge
 8004e10:	4618      	movge	r0, r3
 8004e12:	f80b 0b01 	strb.w	r0, [fp], #1
 8004e16:	f109 0901 	add.w	r9, r9, #1
 8004e1a:	44a8      	add	r8, r5
 8004e1c:	e7c8      	b.n	8004db0 <_ZN6tflite21reference_integer_ops14FullyConnectedERKNS_20FullyConnectedParamsERKNS_12RuntimeShapeEPKaS6_S8_S6_PKlS6_Pa+0x88>
 8004e1e:	f10a 0a01 	add.w	sl, sl, #1
 8004e22:	4437      	add	r7, r6
 8004e24:	442c      	add	r4, r5
 8004e26:	e7ba      	b.n	8004d9e <_ZN6tflite21reference_integer_ops14FullyConnectedERKNS_20FullyConnectedParamsERKNS_12RuntimeShapeEPKaS6_S8_S6_PKlS6_Pa+0x76>
 8004e28:	b009      	add	sp, #36	; 0x24
 8004e2a:	ecbd 8b02 	vpop	{d8}
 8004e2e:	e8bd 8ff0 	ldmia.w	sp!, {r4, r5, r6, r7, r8, r9, sl, fp, pc}
	...

08004e34 <_ZN6tflite3ops5micro15fully_connected9EvalFloatEP13TfLiteContextP10TfLiteNode21TfLiteFusedActivationPK16TfLiteEvalTensorSA_SA_PS8_>:
 8004e34:	e92d 4ff0 	stmdb	sp!, {r4, r5, r6, r7, r8, r9, sl, fp, lr}
 8004e38:	ed2d 8b02 	vpush	{d8}
 8004e3c:	b09d      	sub	sp, #116	; 0x74
 8004e3e:	2a01      	cmp	r2, #1
 8004e40:	e9dd 7628 	ldrd	r7, r6, [sp, #160]	; 0xa0
 8004e44:	9c2a      	ldr	r4, [sp, #168]	; 0xa8
 8004e46:	461d      	mov	r5, r3
 8004e48:	d017      	beq.n	8004e7a <_ZN6tflite3ops5micro15fully_connected9EvalFloatEP13TfLiteContextP10TfLiteNode21TfLiteFusedActivationPK16TfLiteEvalTensorSA_SA_PS8_+0x46>
 8004e4a:	2a03      	cmp	r2, #3
 8004e4c:	d01a      	beq.n	8004e84 <_ZN6tflite3ops5micro15fully_connected9EvalFloatEP13TfLiteContextP10TfLiteNode21TfLiteFusedActivationPK16TfLiteEvalTensorSA_SA_PS8_+0x50>
 8004e4e:	eddf 7a51 	vldr	s15, [pc, #324]	; 8004f94 <_ZN6tflite3ops5micro15fully_connected9EvalFloatEP13TfLiteContextP10TfLiteNode21TfLiteFusedActivationPK16TfLiteEvalTensorSA_SA_PS8_+0x160>
 8004e52:	2a02      	cmp	r2, #2
 8004e54:	eef7 8a00 	vmov.f32	s17, #112	; 0x3f800000  1.0
 8004e58:	bf18      	it	ne
 8004e5a:	eef0 8a67 	vmovne.f32	s17, s15
 8004e5e:	eddf 7a4e 	vldr	s15, [pc, #312]	; 8004f98 <_ZN6tflite3ops5micro15fully_connected9EvalFloatEP13TfLiteContextP10TfLiteNode21TfLiteFusedActivationPK16TfLiteEvalTensorSA_SA_PS8_+0x164>
 8004e62:	eebf 8a00 	vmov.f32	s16, #240	; 0xbf800000 -1.0
 8004e66:	bf18      	it	ne
 8004e68:	eeb0 8a67 	vmovne.f32	s16, s15
 8004e6c:	4629      	mov	r1, r5
 8004e6e:	a804      	add	r0, sp, #16
 8004e70:	f000 fa3e 	bl	80052f0 <_ZN6tflite5micro14GetTensorShapeEPK16TfLiteEvalTensor>
 8004e74:	b94d      	cbnz	r5, 8004e8a <_ZN6tflite3ops5micro15fully_connected9EvalFloatEP13TfLiteContextP10TfLiteNode21TfLiteFusedActivationPK16TfLiteEvalTensorSA_SA_PS8_+0x56>
 8004e76:	f000 fccb 	bl	8005810 <abort>
 8004e7a:	eddf 8a46 	vldr	s17, [pc, #280]	; 8004f94 <_ZN6tflite3ops5micro15fully_connected9EvalFloatEP13TfLiteContextP10TfLiteNode21TfLiteFusedActivationPK16TfLiteEvalTensorSA_SA_PS8_+0x160>
 8004e7e:	ed9f 8a47 	vldr	s16, [pc, #284]	; 8004f9c <_ZN6tflite3ops5micro15fully_connected9EvalFloatEP13TfLiteContextP10TfLiteNode21TfLiteFusedActivationPK16TfLiteEvalTensorSA_SA_PS8_+0x168>
 8004e82:	e7f3      	b.n	8004e6c <_ZN6tflite3ops5micro15fully_connected9EvalFloatEP13TfLiteContextP10TfLiteNode21TfLiteFusedActivationPK16TfLiteEvalTensorSA_SA_PS8_+0x38>
 8004e84:	eef1 8a08 	vmov.f32	s17, #24	; 0x40c00000  6.0
 8004e88:	e7f9      	b.n	8004e7e <_ZN6tflite3ops5micro15fully_connected9EvalFloatEP13TfLiteContextP10TfLiteNode21TfLiteFusedActivationPK16TfLiteEvalTensorSA_SA_PS8_+0x4a>
 8004e8a:	682b      	ldr	r3, [r5, #0]
 8004e8c:	9302      	str	r3, [sp, #8]
 8004e8e:	4639      	mov	r1, r7
 8004e90:	a80a      	add	r0, sp, #40	; 0x28
 8004e92:	f000 fa2d 	bl	80052f0 <_ZN6tflite5micro14GetTensorShapeEPK16TfLiteEvalTensor>
 8004e96:	2f00      	cmp	r7, #0
 8004e98:	d0ed      	beq.n	8004e76 <_ZN6tflite3ops5micro15fully_connected9EvalFloatEP13TfLiteContextP10TfLiteNode21TfLiteFusedActivationPK16TfLiteEvalTensorSA_SA_PS8_+0x42>
 8004e9a:	683b      	ldr	r3, [r7, #0]
 8004e9c:	9301      	str	r3, [sp, #4]
 8004e9e:	4631      	mov	r1, r6
 8004ea0:	a810      	add	r0, sp, #64	; 0x40
 8004ea2:	f000 fa25 	bl	80052f0 <_ZN6tflite5micro14GetTensorShapeEPK16TfLiteEvalTensor>
 8004ea6:	2e00      	cmp	r6, #0
 8004ea8:	d0e5      	beq.n	8004e76 <_ZN6tflite3ops5micro15fully_connected9EvalFloatEP13TfLiteContextP10TfLiteNode21TfLiteFusedActivationPK16TfLiteEvalTensorSA_SA_PS8_+0x42>
 8004eaa:	4621      	mov	r1, r4
 8004eac:	a816      	add	r0, sp, #88	; 0x58
 8004eae:	6837      	ldr	r7, [r6, #0]
 8004eb0:	f000 fa1e 	bl	80052f0 <_ZN6tflite5micro14GetTensorShapeEPK16TfLiteEvalTensor>
 8004eb4:	b104      	cbz	r4, 8004eb8 <_ZN6tflite3ops5micro15fully_connected9EvalFloatEP13TfLiteContextP10TfLiteNode21TfLiteFusedActivationPK16TfLiteEvalTensorSA_SA_PS8_+0x84>
 8004eb6:	6824      	ldr	r4, [r4, #0]
 8004eb8:	9b16      	ldr	r3, [sp, #88]	; 0x58
 8004eba:	9e0a      	ldr	r6, [sp, #40]	; 0x28
 8004ebc:	3b01      	subs	r3, #1
 8004ebe:	4619      	mov	r1, r3
 8004ec0:	a816      	add	r0, sp, #88	; 0x58
 8004ec2:	9300      	str	r3, [sp, #0]
 8004ec4:	f7ff fe92 	bl	8004bec <_ZN6tflite15FlatSizeSkipDimERKNS_12RuntimeShapeEi>
 8004ec8:	9b00      	ldr	r3, [sp, #0]
 8004eca:	9003      	str	r0, [sp, #12]
 8004ecc:	1eb1      	subs	r1, r6, #2
 8004ece:	aa16      	add	r2, sp, #88	; 0x58
 8004ed0:	a80a      	add	r0, sp, #40	; 0x28
 8004ed2:	f7ff fdef 	bl	8004ab4 <_ZN6tflite11MatchingDimERKNS_12RuntimeShapeEiS2_i>
 8004ed6:	1e71      	subs	r1, r6, #1
 8004ed8:	9000      	str	r0, [sp, #0]
 8004eda:	a80a      	add	r0, sp, #40	; 0x28
 8004edc:	f7ff fd89 	bl	80049f2 <_ZNK6tflite12RuntimeShape4DimsEi>
 8004ee0:	2300      	movs	r3, #0
 8004ee2:	eddf 6a2e 	vldr	s13, [pc, #184]	; 8004f9c <_ZN6tflite3ops5micro15fully_connected9EvalFloatEP13TfLiteContextP10TfLiteNode21TfLiteFusedActivationPK16TfLiteEvalTensorSA_SA_PS8_+0x168>
 8004ee6:	461e      	mov	r6, r3
 8004ee8:	469c      	mov	ip, r3
 8004eea:	9a03      	ldr	r2, [sp, #12]
 8004eec:	4562      	cmp	r2, ip
 8004eee:	dd3f      	ble.n	8004f70 <_ZN6tflite3ops5micro15fully_connected9EvalFloatEP13TfLiteContextP10TfLiteNode21TfLiteFusedActivationPK16TfLiteEvalTensorSA_SA_PS8_+0x13c>
 8004ef0:	9a02      	ldr	r2, [sp, #8]
 8004ef2:	eb02 0b83 	add.w	fp, r2, r3, lsl #2
 8004ef6:	2200      	movs	r2, #0
 8004ef8:	eb04 0886 	add.w	r8, r4, r6, lsl #2
 8004efc:	4611      	mov	r1, r2
 8004efe:	9d00      	ldr	r5, [sp, #0]
 8004f00:	428d      	cmp	r5, r1
 8004f02:	dd2f      	ble.n	8004f64 <_ZN6tflite3ops5micro15fully_connected9EvalFloatEP13TfLiteContextP10TfLiteNode21TfLiteFusedActivationPK16TfLiteEvalTensorSA_SA_PS8_+0x130>
 8004f04:	9d01      	ldr	r5, [sp, #4]
 8004f06:	eddf 7a25 	vldr	s15, [pc, #148]	; 8004f9c <_ZN6tflite3ops5micro15fully_connected9EvalFloatEP13TfLiteContextP10TfLiteNode21TfLiteFusedActivationPK16TfLiteEvalTensorSA_SA_PS8_+0x168>
 8004f0a:	eb05 0982 	add.w	r9, r5, r2, lsl #2
 8004f0e:	46da      	mov	sl, fp
 8004f10:	f04f 0e00 	mov.w	lr, #0
 8004f14:	4570      	cmp	r0, lr
 8004f16:	dd08      	ble.n	8004f2a <_ZN6tflite3ops5micro15fully_connected9EvalFloatEP13TfLiteContextP10TfLiteNode21TfLiteFusedActivationPK16TfLiteEvalTensorSA_SA_PS8_+0xf6>
 8004f18:	ecba 6a01 	vldmia	sl!, {s12}
 8004f1c:	ecb9 7a01 	vldmia	r9!, {s14}
 8004f20:	f10e 0e01 	add.w	lr, lr, #1
 8004f24:	eee6 7a07 	vfma.f32	s15, s12, s14
 8004f28:	e7f4      	b.n	8004f14 <_ZN6tflite3ops5micro15fully_connected9EvalFloatEP13TfLiteContextP10TfLiteNode21TfLiteFusedActivationPK16TfLiteEvalTensorSA_SA_PS8_+0xe0>
 8004f2a:	b1c7      	cbz	r7, 8004f5e <_ZN6tflite3ops5micro15fully_connected9EvalFloatEP13TfLiteContextP10TfLiteNode21TfLiteFusedActivationPK16TfLiteEvalTensorSA_SA_PS8_+0x12a>
 8004f2c:	eb07 0e81 	add.w	lr, r7, r1, lsl #2
 8004f30:	ed9e 7a00 	vldr	s14, [lr]
 8004f34:	ee77 7a87 	vadd.f32	s15, s15, s14
 8004f38:	3101      	adds	r1, #1
 8004f3a:	eef4 7a48 	vcmp.f32	s15, s16
 8004f3e:	eef1 fa10 	vmrs	APSR_nzcv, fpscr
 8004f42:	bf48      	it	mi
 8004f44:	eef0 7a48 	vmovmi.f32	s15, s16
 8004f48:	eef4 7a68 	vcmp.f32	s15, s17
 8004f4c:	eef1 fa10 	vmrs	APSR_nzcv, fpscr
 8004f50:	bfc8      	it	gt
 8004f52:	eef0 7a68 	vmovgt.f32	s15, s17
 8004f56:	ece8 7a01 	vstmia	r8!, {s15}
 8004f5a:	4402      	add	r2, r0
 8004f5c:	e7cf      	b.n	8004efe <_ZN6tflite3ops5micro15fully_connected9EvalFloatEP13TfLiteContextP10TfLiteNode21TfLiteFusedActivationPK16TfLiteEvalTensorSA_SA_PS8_+0xca>
 8004f5e:	eeb0 7a66 	vmov.f32	s14, s13
 8004f62:	e7e7      	b.n	8004f34 <_ZN6tflite3ops5micro15fully_connected9EvalFloatEP13TfLiteContextP10TfLiteNode21TfLiteFusedActivationPK16TfLiteEvalTensorSA_SA_PS8_+0x100>
 8004f64:	9a00      	ldr	r2, [sp, #0]
 8004f66:	f10c 0c01 	add.w	ip, ip, #1
 8004f6a:	4416      	add	r6, r2
 8004f6c:	4403      	add	r3, r0
 8004f6e:	e7bc      	b.n	8004eea <_ZN6tflite3ops5micro15fully_connected9EvalFloatEP13TfLiteContextP10TfLiteNode21TfLiteFusedActivationPK16TfLiteEvalTensorSA_SA_PS8_+0xb6>
 8004f70:	a816      	add	r0, sp, #88	; 0x58
 8004f72:	f7ff fd33 	bl	80049dc <_ZN6tflite12RuntimeShapeD1Ev>
 8004f76:	a810      	add	r0, sp, #64	; 0x40
 8004f78:	f7ff fd30 	bl	80049dc <_ZN6tflite12RuntimeShapeD1Ev>
 8004f7c:	a80a      	add	r0, sp, #40	; 0x28
 8004f7e:	f7ff fd2d 	bl	80049dc <_ZN6tflite12RuntimeShapeD1Ev>
 8004f82:	a804      	add	r0, sp, #16
 8004f84:	f7ff fd2a 	bl	80049dc <_ZN6tflite12RuntimeShapeD1Ev>
 8004f88:	2000      	movs	r0, #0
 8004f8a:	b01d      	add	sp, #116	; 0x74
 8004f8c:	ecbd 8b02 	vpop	{d8}
 8004f90:	e8bd 8ff0 	ldmia.w	sp!, {r4, r5, r6, r7, r8, r9, sl, fp, pc}
 8004f94:	7f7fffff 	.word	0x7f7fffff
 8004f98:	ff7fffff 	.word	0xff7fffff
 8004f9c:	00000000 	.word	0x00000000

08004fa0 <_ZN6tflite3ops5micro15fully_connected4EvalEP13TfLiteContextP10TfLiteNode>:
 8004fa0:	e92d 4ff0 	stmdb	sp!, {r4, r5, r6, r7, r8, r9, sl, fp, lr}
 8004fa4:	ed2d 8b02 	vpush	{d8}
 8004fa8:	f8d1 a014 	ldr.w	sl, [r1, #20]
 8004fac:	b0e3      	sub	sp, #396	; 0x18c
 8004fae:	4680      	mov	r8, r0
 8004fb0:	4689      	mov	r9, r1
 8004fb2:	f1ba 0f00 	cmp.w	sl, #0
 8004fb6:	d101      	bne.n	8004fbc <_ZN6tflite3ops5micro15fully_connected4EvalEP13TfLiteContextP10TfLiteNode+0x1c>
 8004fb8:	f000 fc2a 	bl	8005810 <abort>
 8004fbc:	2200      	movs	r2, #0
 8004fbe:	f000 f97b 	bl	80052b8 <_ZN6tflite5micro12GetEvalInputEPK13TfLiteContextPK10TfLiteNodei>
 8004fc2:	2201      	movs	r2, #1
 8004fc4:	4649      	mov	r1, r9
 8004fc6:	4607      	mov	r7, r0
 8004fc8:	4640      	mov	r0, r8
 8004fca:	f000 f975 	bl	80052b8 <_ZN6tflite5micro12GetEvalInputEPK13TfLiteContextPK10TfLiteNodei>
 8004fce:	2202      	movs	r2, #2
 8004fd0:	4649      	mov	r1, r9
 8004fd2:	4606      	mov	r6, r0
 8004fd4:	4640      	mov	r0, r8
 8004fd6:	f000 f96f 	bl	80052b8 <_ZN6tflite5micro12GetEvalInputEPK13TfLiteContextPK10TfLiteNodei>
 8004fda:	2200      	movs	r2, #0
 8004fdc:	4605      	mov	r5, r0
 8004fde:	4649      	mov	r1, r9
 8004fe0:	4640      	mov	r0, r8
 8004fe2:	f000 f977 	bl	80052d4 <_ZN6tflite5micro13GetEvalOutputEPK13TfLiteContextPK10TfLiteNodei>
 8004fe6:	f8d9 2010 	ldr.w	r2, [r9, #16]
 8004fea:	4604      	mov	r4, r0
 8004fec:	2a00      	cmp	r2, #0
 8004fee:	d0e3      	beq.n	8004fb8 <_ZN6tflite3ops5micro15fully_connected4EvalEP13TfLiteContextP10TfLiteNode+0x18>
 8004ff0:	7a38      	ldrb	r0, [r7, #8]
 8004ff2:	2803      	cmp	r0, #3
 8004ff4:	d05b      	beq.n	80050ae <_ZN6tflite3ops5micro15fully_connected4EvalEP13TfLiteContextP10TfLiteNode+0x10e>
 8004ff6:	2809      	cmp	r0, #9
 8004ff8:	d011      	beq.n	800501e <_ZN6tflite3ops5micro15fully_connected4EvalEP13TfLiteContextP10TfLiteNode+0x7e>
 8004ffa:	2801      	cmp	r0, #1
 8004ffc:	f040 8142 	bne.w	8005284 <_ZN6tflite3ops5micro15fully_connected4EvalEP13TfLiteContextP10TfLiteNode+0x2e4>
 8005000:	f89a 2000 	ldrb.w	r2, [sl]
 8005004:	9600      	str	r6, [sp, #0]
 8005006:	e9cd 5401 	strd	r5, r4, [sp, #4]
 800500a:	463b      	mov	r3, r7
 800500c:	4649      	mov	r1, r9
 800500e:	4640      	mov	r0, r8
 8005010:	f7ff ff10 	bl	8004e34 <_ZN6tflite3ops5micro15fully_connected9EvalFloatEP13TfLiteContextP10TfLiteNode21TfLiteFusedActivationPK16TfLiteEvalTensorSA_SA_PS8_>
 8005014:	b063      	add	sp, #396	; 0x18c
 8005016:	ecbd 8b02 	vpop	{d8}
 800501a:	e8bd 8ff0 	ldmia.w	sp!, {r4, r5, r6, r7, r8, r9, sl, fp, pc}
 800501e:	6953      	ldr	r3, [r2, #20]
 8005020:	425b      	negs	r3, r3
 8005022:	934e      	str	r3, [sp, #312]	; 0x138
 8005024:	6993      	ldr	r3, [r2, #24]
 8005026:	425b      	negs	r3, r3
 8005028:	934f      	str	r3, [sp, #316]	; 0x13c
 800502a:	69d3      	ldr	r3, [r2, #28]
 800502c:	9350      	str	r3, [sp, #320]	; 0x140
 800502e:	6813      	ldr	r3, [r2, #0]
 8005030:	9351      	str	r3, [sp, #324]	; 0x144
 8005032:	6853      	ldr	r3, [r2, #4]
 8005034:	425b      	negs	r3, r3
 8005036:	9352      	str	r3, [sp, #328]	; 0x148
 8005038:	6893      	ldr	r3, [r2, #8]
 800503a:	9353      	str	r3, [sp, #332]	; 0x14c
 800503c:	4639      	mov	r1, r7
 800503e:	68d3      	ldr	r3, [r2, #12]
 8005040:	9354      	str	r3, [sp, #336]	; 0x150
 8005042:	a812      	add	r0, sp, #72	; 0x48
 8005044:	f000 f954 	bl	80052f0 <_ZN6tflite5micro14GetTensorShapeEPK16TfLiteEvalTensor>
 8005048:	4631      	mov	r1, r6
 800504a:	a818      	add	r0, sp, #96	; 0x60
 800504c:	683f      	ldr	r7, [r7, #0]
 800504e:	f000 f94f 	bl	80052f0 <_ZN6tflite5micro14GetTensorShapeEPK16TfLiteEvalTensor>
 8005052:	2e00      	cmp	r6, #0
 8005054:	d0b0      	beq.n	8004fb8 <_ZN6tflite3ops5micro15fully_connected4EvalEP13TfLiteContextP10TfLiteNode+0x18>
 8005056:	f8d6 8000 	ldr.w	r8, [r6]
 800505a:	ae1e      	add	r6, sp, #120	; 0x78
 800505c:	4629      	mov	r1, r5
 800505e:	4630      	mov	r0, r6
 8005060:	f000 f946 	bl	80052f0 <_ZN6tflite5micro14GetTensorShapeEPK16TfLiteEvalTensor>
 8005064:	2d00      	cmp	r5, #0
 8005066:	d0a7      	beq.n	8004fb8 <_ZN6tflite3ops5micro15fully_connected4EvalEP13TfLiteContextP10TfLiteNode+0x18>
 8005068:	f8d5 9000 	ldr.w	r9, [r5]
 800506c:	ad58      	add	r5, sp, #352	; 0x160
 800506e:	4621      	mov	r1, r4
 8005070:	4628      	mov	r0, r5
 8005072:	f000 f93d 	bl	80052f0 <_ZN6tflite5micro14GetTensorShapeEPK16TfLiteEvalTensor>
 8005076:	b104      	cbz	r4, 800507a <_ZN6tflite3ops5micro15fully_connected4EvalEP13TfLiteContextP10TfLiteNode+0xda>
 8005078:	6824      	ldr	r4, [r4, #0]
 800507a:	f8cd 8000 	str.w	r8, [sp]
 800507e:	ab18      	add	r3, sp, #96	; 0x60
 8005080:	463a      	mov	r2, r7
 8005082:	a912      	add	r1, sp, #72	; 0x48
 8005084:	a84e      	add	r0, sp, #312	; 0x138
 8005086:	e9cd 5403 	strd	r5, r4, [sp, #12]
 800508a:	e9cd 6901 	strd	r6, r9, [sp, #4]
 800508e:	f7ff fe4b 	bl	8004d28 <_ZN6tflite21reference_integer_ops14FullyConnectedERKNS_20FullyConnectedParamsERKNS_12RuntimeShapeEPKaS6_S8_S6_PKlS6_Pa>
 8005092:	4628      	mov	r0, r5
 8005094:	f7ff fca2 	bl	80049dc <_ZN6tflite12RuntimeShapeD1Ev>
 8005098:	4630      	mov	r0, r6
 800509a:	f7ff fc9f 	bl	80049dc <_ZN6tflite12RuntimeShapeD1Ev>
 800509e:	a818      	add	r0, sp, #96	; 0x60
 80050a0:	f7ff fc9c 	bl	80049dc <_ZN6tflite12RuntimeShapeD1Ev>
 80050a4:	a812      	add	r0, sp, #72	; 0x48
 80050a6:	f7ff fc99 	bl	80049dc <_ZN6tflite12RuntimeShapeD1Ev>
 80050aa:	2000      	movs	r0, #0
 80050ac:	e7b2      	b.n	8005014 <_ZN6tflite3ops5micro15fully_connected4EvalEP13TfLiteContextP10TfLiteNode+0x74>
 80050ae:	6993      	ldr	r3, [r2, #24]
 80050b0:	6951      	ldr	r1, [r2, #20]
 80050b2:	69d0      	ldr	r0, [r2, #28]
 80050b4:	905a      	str	r0, [sp, #360]	; 0x168
 80050b6:	425b      	negs	r3, r3
 80050b8:	4249      	negs	r1, r1
 80050ba:	e9cd 1358 	strd	r1, r3, [sp, #352]	; 0x160
 80050be:	6813      	ldr	r3, [r2, #0]
 80050c0:	935b      	str	r3, [sp, #364]	; 0x16c
 80050c2:	6853      	ldr	r3, [r2, #4]
 80050c4:	7a20      	ldrb	r0, [r4, #8]
 80050c6:	425b      	negs	r3, r3
 80050c8:	935c      	str	r3, [sp, #368]	; 0x170
 80050ca:	6893      	ldr	r3, [r2, #8]
 80050cc:	935d      	str	r3, [sp, #372]	; 0x174
 80050ce:	2803      	cmp	r0, #3
 80050d0:	68d3      	ldr	r3, [r2, #12]
 80050d2:	935e      	str	r3, [sp, #376]	; 0x178
 80050d4:	d00c      	beq.n	80050f0 <_ZN6tflite3ops5micro15fully_connected4EvalEP13TfLiteContextP10TfLiteNode+0x150>
 80050d6:	2807      	cmp	r0, #7
 80050d8:	d03f      	beq.n	800515a <_ZN6tflite3ops5micro15fully_connected4EvalEP13TfLiteContextP10TfLiteNode+0x1ba>
 80050da:	f8d8 5014 	ldr.w	r5, [r8, #20]
 80050de:	f7fd fd3d 	bl	8002b5c <TfLiteTypeGetName>
 80050e2:	7a23      	ldrb	r3, [r4, #8]
 80050e4:	496c      	ldr	r1, [pc, #432]	; (8005298 <_ZN6tflite3ops5micro15fully_connected4EvalEP13TfLiteContextP10TfLiteNode+0x2f8>)
 80050e6:	4602      	mov	r2, r0
 80050e8:	4640      	mov	r0, r8
 80050ea:	47a8      	blx	r5
 80050ec:	2001      	movs	r0, #1
 80050ee:	e791      	b.n	8005014 <_ZN6tflite3ops5micro15fully_connected4EvalEP13TfLiteContextP10TfLiteNode+0x74>
 80050f0:	4639      	mov	r1, r7
 80050f2:	a824      	add	r0, sp, #144	; 0x90
 80050f4:	f000 f8fc 	bl	80052f0 <_ZN6tflite5micro14GetTensorShapeEPK16TfLiteEvalTensor>
 80050f8:	4631      	mov	r1, r6
 80050fa:	a82a      	add	r0, sp, #168	; 0xa8
 80050fc:	683f      	ldr	r7, [r7, #0]
 80050fe:	f000 f8f7 	bl	80052f0 <_ZN6tflite5micro14GetTensorShapeEPK16TfLiteEvalTensor>
 8005102:	2e00      	cmp	r6, #0
 8005104:	f43f af58 	beq.w	8004fb8 <_ZN6tflite3ops5micro15fully_connected4EvalEP13TfLiteContextP10TfLiteNode+0x18>
 8005108:	f8d6 8000 	ldr.w	r8, [r6]
 800510c:	ae30      	add	r6, sp, #192	; 0xc0
 800510e:	4629      	mov	r1, r5
 8005110:	4630      	mov	r0, r6
 8005112:	f000 f8ed 	bl	80052f0 <_ZN6tflite5micro14GetTensorShapeEPK16TfLiteEvalTensor>
 8005116:	2d00      	cmp	r5, #0
 8005118:	f43f af4e 	beq.w	8004fb8 <_ZN6tflite3ops5micro15fully_connected4EvalEP13TfLiteContextP10TfLiteNode+0x18>
 800511c:	f8d5 9000 	ldr.w	r9, [r5]
 8005120:	ad4e      	add	r5, sp, #312	; 0x138
 8005122:	4621      	mov	r1, r4
 8005124:	4628      	mov	r0, r5
 8005126:	f000 f8e3 	bl	80052f0 <_ZN6tflite5micro14GetTensorShapeEPK16TfLiteEvalTensor>
 800512a:	6823      	ldr	r3, [r4, #0]
 800512c:	f8cd 8000 	str.w	r8, [sp]
 8005130:	463a      	mov	r2, r7
 8005132:	a924      	add	r1, sp, #144	; 0x90
 8005134:	e9cd 5303 	strd	r5, r3, [sp, #12]
 8005138:	a858      	add	r0, sp, #352	; 0x160
 800513a:	ab2a      	add	r3, sp, #168	; 0xa8
 800513c:	e9cd 6901 	strd	r6, r9, [sp, #4]
 8005140:	f7ff fd6f 	bl	8004c22 <_ZN6tflite13reference_ops14FullyConnectedERKNS_20FullyConnectedParamsERKNS_12RuntimeShapeEPKhS6_S8_S6_PKlS6_Ph>
 8005144:	4628      	mov	r0, r5
 8005146:	f7ff fc49 	bl	80049dc <_ZN6tflite12RuntimeShapeD1Ev>
 800514a:	4630      	mov	r0, r6
 800514c:	f7ff fc46 	bl	80049dc <_ZN6tflite12RuntimeShapeD1Ev>
 8005150:	a82a      	add	r0, sp, #168	; 0xa8
 8005152:	f7ff fc43 	bl	80049dc <_ZN6tflite12RuntimeShapeD1Ev>
 8005156:	a824      	add	r0, sp, #144	; 0x90
 8005158:	e7a5      	b.n	80050a6 <_ZN6tflite3ops5micro15fully_connected4EvalEP13TfLiteContextP10TfLiteNode+0x106>
 800515a:	4639      	mov	r1, r7
 800515c:	a836      	add	r0, sp, #216	; 0xd8
 800515e:	f000 f8c7 	bl	80052f0 <_ZN6tflite5micro14GetTensorShapeEPK16TfLiteEvalTensor>
 8005162:	683b      	ldr	r3, [r7, #0]
 8005164:	9310      	str	r3, [sp, #64]	; 0x40
 8005166:	4631      	mov	r1, r6
 8005168:	a83c      	add	r0, sp, #240	; 0xf0
 800516a:	f000 f8c1 	bl	80052f0 <_ZN6tflite5micro14GetTensorShapeEPK16TfLiteEvalTensor>
 800516e:	2e00      	cmp	r6, #0
 8005170:	f43f af22 	beq.w	8004fb8 <_ZN6tflite3ops5micro15fully_connected4EvalEP13TfLiteContextP10TfLiteNode+0x18>
 8005174:	6833      	ldr	r3, [r6, #0]
 8005176:	930f      	str	r3, [sp, #60]	; 0x3c
 8005178:	4629      	mov	r1, r5
 800517a:	a842      	add	r0, sp, #264	; 0x108
 800517c:	f000 f8b8 	bl	80052f0 <_ZN6tflite5micro14GetTensorShapeEPK16TfLiteEvalTensor>
 8005180:	2d00      	cmp	r5, #0
 8005182:	f43f af19 	beq.w	8004fb8 <_ZN6tflite3ops5micro15fully_connected4EvalEP13TfLiteContextP10TfLiteNode+0x18>
 8005186:	682b      	ldr	r3, [r5, #0]
 8005188:	930e      	str	r3, [sp, #56]	; 0x38
 800518a:	4621      	mov	r1, r4
 800518c:	a848      	add	r0, sp, #288	; 0x120
 800518e:	f000 f8af 	bl	80052f0 <_ZN6tflite5micro14GetTensorShapeEPK16TfLiteEvalTensor>
 8005192:	6823      	ldr	r3, [r4, #0]
 8005194:	9309      	str	r3, [sp, #36]	; 0x24
 8005196:	9b58      	ldr	r3, [sp, #352]	; 0x160
 8005198:	930a      	str	r3, [sp, #40]	; 0x28
 800519a:	9b59      	ldr	r3, [sp, #356]	; 0x164
 800519c:	930b      	str	r3, [sp, #44]	; 0x2c
 800519e:	e9dd 435a 	ldrd	r4, r3, [sp, #360]	; 0x168
 80051a2:	ee08 3a10 	vmov	s16, r3
 80051a6:	9b5c      	ldr	r3, [sp, #368]	; 0x170
 80051a8:	ee08 3a90 	vmov	s17, r3
 80051ac:	9b5d      	ldr	r3, [sp, #372]	; 0x174
 80051ae:	9307      	str	r3, [sp, #28]
 80051b0:	9b5e      	ldr	r3, [sp, #376]	; 0x178
 80051b2:	9308      	str	r3, [sp, #32]
 80051b4:	e9dd 3207 	ldrd	r3, r2, [sp, #28]
 80051b8:	4293      	cmp	r3, r2
 80051ba:	f73f aefd 	bgt.w	8004fb8 <_ZN6tflite3ops5micro15fully_connected4EvalEP13TfLiteContextP10TfLiteNode+0x18>
 80051be:	2c00      	cmp	r4, #0
 80051c0:	f47f aefa 	bne.w	8004fb8 <_ZN6tflite3ops5micro15fully_connected4EvalEP13TfLiteContextP10TfLiteNode+0x18>
 80051c4:	9b48      	ldr	r3, [sp, #288]	; 0x120
 80051c6:	9d3c      	ldr	r5, [sp, #240]	; 0xf0
 80051c8:	3b01      	subs	r3, #1
 80051ca:	4619      	mov	r1, r3
 80051cc:	a848      	add	r0, sp, #288	; 0x120
 80051ce:	930d      	str	r3, [sp, #52]	; 0x34
 80051d0:	f7ff fd0c 	bl	8004bec <_ZN6tflite15FlatSizeSkipDimERKNS_12RuntimeShapeEi>
 80051d4:	1ea9      	subs	r1, r5, #2
 80051d6:	9b0d      	ldr	r3, [sp, #52]	; 0x34
 80051d8:	900c      	str	r0, [sp, #48]	; 0x30
 80051da:	aa48      	add	r2, sp, #288	; 0x120
 80051dc:	a83c      	add	r0, sp, #240	; 0xf0
 80051de:	f7ff fc69 	bl	8004ab4 <_ZN6tflite11MatchingDimERKNS_12RuntimeShapeEiS2_i>
 80051e2:	1e69      	subs	r1, r5, #1
 80051e4:	4607      	mov	r7, r0
 80051e6:	a83c      	add	r0, sp, #240	; 0xf0
 80051e8:	f7ff fc03 	bl	80049f2 <_ZNK6tflite12RuntimeShape4DimsEi>
 80051ec:	46a0      	mov	r8, r4
 80051ee:	4605      	mov	r5, r0
 80051f0:	46a1      	mov	r9, r4
 80051f2:	9b0c      	ldr	r3, [sp, #48]	; 0x30
 80051f4:	42a3      	cmp	r3, r4
 80051f6:	dd3a      	ble.n	800526e <_ZN6tflite3ops5micro15fully_connected4EvalEP13TfLiteContextP10TfLiteNode+0x2ce>
 80051f8:	9b09      	ldr	r3, [sp, #36]	; 0x24
 80051fa:	2600      	movs	r6, #0
 80051fc:	eb03 0b49 	add.w	fp, r3, r9, lsl #1
 8005200:	46b2      	mov	sl, r6
 8005202:	42b7      	cmp	r7, r6
 8005204:	dd2f      	ble.n	8005266 <_ZN6tflite3ops5micro15fully_connected4EvalEP13TfLiteContextP10TfLiteNode+0x2c6>
 8005206:	9b0e      	ldr	r3, [sp, #56]	; 0x38
 8005208:	f853 0026 	ldr.w	r0, [r3, r6, lsl #2]
 800520c:	9b10      	ldr	r3, [sp, #64]	; 0x40
 800520e:	eb03 0e08 	add.w	lr, r3, r8
 8005212:	9b0f      	ldr	r3, [sp, #60]	; 0x3c
 8005214:	eb03 0c0a 	add.w	ip, r3, sl
 8005218:	2300      	movs	r3, #0
 800521a:	429d      	cmp	r5, r3
 800521c:	dd10      	ble.n	8005240 <_ZN6tflite3ops5micro15fully_connected4EvalEP13TfLiteContextP10TfLiteNode+0x2a0>
 800521e:	f81e 2b01 	ldrb.w	r2, [lr], #1
 8005222:	f81c 1b01 	ldrb.w	r1, [ip], #1
 8005226:	920d      	str	r2, [sp, #52]	; 0x34
 8005228:	9a0b      	ldr	r2, [sp, #44]	; 0x2c
 800522a:	188a      	adds	r2, r1, r2
 800522c:	9211      	str	r2, [sp, #68]	; 0x44
 800522e:	990d      	ldr	r1, [sp, #52]	; 0x34
 8005230:	9a0a      	ldr	r2, [sp, #40]	; 0x28
 8005232:	4411      	add	r1, r2
 8005234:	460a      	mov	r2, r1
 8005236:	9911      	ldr	r1, [sp, #68]	; 0x44
 8005238:	3301      	adds	r3, #1
 800523a:	fb11 0002 	smlabb	r0, r1, r2, r0
 800523e:	e7ec      	b.n	800521a <_ZN6tflite3ops5micro15fully_connected4EvalEP13TfLiteContextP10TfLiteNode+0x27a>
 8005240:	ee18 2a90 	vmov	r2, s17
 8005244:	ee18 1a10 	vmov	r1, s16
 8005248:	f7ff fbe4 	bl	8004a14 <_ZN6tflite29MultiplyByQuantizedMultiplierElli>
 800524c:	9b07      	ldr	r3, [sp, #28]
 800524e:	4298      	cmp	r0, r3
 8005250:	bfb8      	it	lt
 8005252:	4618      	movlt	r0, r3
 8005254:	9b08      	ldr	r3, [sp, #32]
 8005256:	4298      	cmp	r0, r3
 8005258:	bfa8      	it	ge
 800525a:	4618      	movge	r0, r3
 800525c:	f82b 0b02 	strh.w	r0, [fp], #2
 8005260:	3601      	adds	r6, #1
 8005262:	44aa      	add	sl, r5
 8005264:	e7cd      	b.n	8005202 <_ZN6tflite3ops5micro15fully_connected4EvalEP13TfLiteContextP10TfLiteNode+0x262>
 8005266:	3401      	adds	r4, #1
 8005268:	44b9      	add	r9, r7
 800526a:	44a8      	add	r8, r5
 800526c:	e7c1      	b.n	80051f2 <_ZN6tflite3ops5micro15fully_connected4EvalEP13TfLiteContextP10TfLiteNode+0x252>
 800526e:	a848      	add	r0, sp, #288	; 0x120
 8005270:	f7ff fbb4 	bl	80049dc <_ZN6tflite12RuntimeShapeD1Ev>
 8005274:	a842      	add	r0, sp, #264	; 0x108
 8005276:	f7ff fbb1 	bl	80049dc <_ZN6tflite12RuntimeShapeD1Ev>
 800527a:	a83c      	add	r0, sp, #240	; 0xf0
 800527c:	f7ff fbae 	bl	80049dc <_ZN6tflite12RuntimeShapeD1Ev>
 8005280:	a836      	add	r0, sp, #216	; 0xd8
 8005282:	e710      	b.n	80050a6 <_ZN6tflite3ops5micro15fully_connected4EvalEP13TfLiteContextP10TfLiteNode+0x106>
 8005284:	f8d8 4014 	ldr.w	r4, [r8, #20]
 8005288:	f7fd fc68 	bl	8002b5c <TfLiteTypeGetName>
 800528c:	7a3b      	ldrb	r3, [r7, #8]
 800528e:	4902      	ldr	r1, [pc, #8]	; (8005298 <_ZN6tflite3ops5micro15fully_connected4EvalEP13TfLiteContextP10TfLiteNode+0x2f8>)
 8005290:	4602      	mov	r2, r0
 8005292:	4640      	mov	r0, r8
 8005294:	47a0      	blx	r4
 8005296:	e729      	b.n	80050ec <_ZN6tflite3ops5micro15fully_connected4EvalEP13TfLiteContextP10TfLiteNode+0x14c>
 8005298:	0800a2e8 	.word	0x0800a2e8

0800529c <_ZN6tflite3ops5micro24Register_FULLY_CONNECTEDEv>:
 800529c:	b570      	push	{r4, r5, r6, lr}
 800529e:	4d05      	ldr	r5, [pc, #20]	; (80052b4 <_ZN6tflite3ops5micro24Register_FULLY_CONNECTEDEv+0x18>)
 80052a0:	4606      	mov	r6, r0
 80052a2:	4604      	mov	r4, r0
 80052a4:	cd0f      	ldmia	r5!, {r0, r1, r2, r3}
 80052a6:	c40f      	stmia	r4!, {r0, r1, r2, r3}
 80052a8:	e895 000f 	ldmia.w	r5, {r0, r1, r2, r3}
 80052ac:	e884 000f 	stmia.w	r4, {r0, r1, r2, r3}
 80052b0:	4630      	mov	r0, r6
 80052b2:	bd70      	pop	{r4, r5, r6, pc}
 80052b4:	080086c0 	.word	0x080086c0

080052b8 <_ZN6tflite5micro12GetEvalInputEPK13TfLiteContextPK10TfLiteNodei>:
 80052b8:	b510      	push	{r4, lr}
 80052ba:	b908      	cbnz	r0, 80052c0 <_ZN6tflite5micro12GetEvalInputEPK13TfLiteContextPK10TfLiteNodei+0x8>
 80052bc:	f000 faa8 	bl	8005810 <abort>
 80052c0:	2900      	cmp	r1, #0
 80052c2:	d0fb      	beq.n	80052bc <_ZN6tflite5micro12GetEvalInputEPK13TfLiteContextPK10TfLiteNodei+0x4>
 80052c4:	6809      	ldr	r1, [r1, #0]
 80052c6:	6d43      	ldr	r3, [r0, #84]	; 0x54
 80052c8:	eb01 0282 	add.w	r2, r1, r2, lsl #2
 80052cc:	e8bd 4010 	ldmia.w	sp!, {r4, lr}
 80052d0:	6851      	ldr	r1, [r2, #4]
 80052d2:	4718      	bx	r3

080052d4 <_ZN6tflite5micro13GetEvalOutputEPK13TfLiteContextPK10TfLiteNodei>:
 80052d4:	b510      	push	{r4, lr}
 80052d6:	b908      	cbnz	r0, 80052dc <_ZN6tflite5micro13GetEvalOutputEPK13TfLiteContextPK10TfLiteNodei+0x8>
 80052d8:	f000 fa9a 	bl	8005810 <abort>
 80052dc:	2900      	cmp	r1, #0
 80052de:	d0fb      	beq.n	80052d8 <_ZN6tflite5micro13GetEvalOutputEPK13TfLiteContextPK10TfLiteNodei+0x4>
 80052e0:	6849      	ldr	r1, [r1, #4]
 80052e2:	6d43      	ldr	r3, [r0, #84]	; 0x54
 80052e4:	eb01 0282 	add.w	r2, r1, r2, lsl #2
 80052e8:	e8bd 4010 	ldmia.w	sp!, {r4, lr}
 80052ec:	6851      	ldr	r1, [r2, #4]
 80052ee:	4718      	bx	r3

080052f0 <_ZN6tflite5micro14GetTensorShapeEPK16TfLiteEvalTensor>:
 80052f0:	b570      	push	{r4, r5, r6, lr}
 80052f2:	4604      	mov	r4, r0
 80052f4:	b911      	cbnz	r1, 80052fc <_ZN6tflite5micro14GetTensorShapeEPK16TfLiteEvalTensor+0xc>
 80052f6:	6001      	str	r1, [r0, #0]
 80052f8:	4620      	mov	r0, r4
 80052fa:	bd70      	pop	{r4, r5, r6, pc}
 80052fc:	684d      	ldr	r5, [r1, #4]
 80052fe:	f855 3b04 	ldr.w	r3, [r5], #4
 8005302:	6003      	str	r3, [r0, #0]
 8005304:	2b05      	cmp	r3, #5
 8005306:	ea4f 0683 	mov.w	r6, r3, lsl #2
 800530a:	dc05      	bgt.n	8005318 <_ZN6tflite5micro14GetTensorShapeEPK16TfLiteEvalTensor+0x28>
 800530c:	1d20      	adds	r0, r4, #4
 800530e:	4632      	mov	r2, r6
 8005310:	4629      	mov	r1, r5
 8005312:	f000 faf9 	bl	8005908 <memcpy>
 8005316:	e7ef      	b.n	80052f8 <_ZN6tflite5micro14GetTensorShapeEPK16TfLiteEvalTensor+0x8>
 8005318:	f06f 4060 	mvn.w	r0, #3758096384	; 0xe0000000
 800531c:	4283      	cmp	r3, r0
 800531e:	bfb4      	ite	lt
 8005320:	4630      	movlt	r0, r6
 8005322:	f04f 30ff 	movge.w	r0, #4294967295
 8005326:	f000 f9c5 	bl	80056b4 <_Znaj>
 800532a:	6823      	ldr	r3, [r4, #0]
 800532c:	6060      	str	r0, [r4, #4]
 800532e:	2b05      	cmp	r3, #5
 8005330:	dced      	bgt.n	800530e <_ZN6tflite5micro14GetTensorShapeEPK16TfLiteEvalTensor+0x1e>
 8005332:	e7eb      	b.n	800530c <_ZN6tflite5micro14GetTensorShapeEPK16TfLiteEvalTensor+0x1c>

08005334 <_ZN6tflite19GreedyMemoryPlannerD1Ev>:
 8005334:	4770      	bx	lr

08005336 <_ZN6tflite19GreedyMemoryPlanner14GetBufferCountEv>:
 8005336:	6880      	ldr	r0, [r0, #8]
 8005338:	4770      	bx	lr

0800533a <_ZN6tflite19GreedyMemoryPlannerD0Ev>:
 800533a:	b510      	push	{r4, lr}
 800533c:	212c      	movs	r1, #44	; 0x2c
 800533e:	4604      	mov	r4, r0
 8005340:	f000 f994 	bl	800566c <_ZdlPvj>
 8005344:	4620      	mov	r0, r4
 8005346:	bd10      	pop	{r4, pc}

08005348 <_ZN6tflite19GreedyMemoryPlanner9AddBufferEPNS_13ErrorReporterEiii>:
 8005348:	b570      	push	{r4, r5, r6, lr}
 800534a:	4604      	mov	r4, r0
 800534c:	4608      	mov	r0, r1
 800534e:	e9d4 1501 	ldrd	r1, r5, [r4, #4]
 8005352:	428d      	cmp	r5, r1
 8005354:	db05      	blt.n	8005362 <_ZN6tflite19GreedyMemoryPlanner9AddBufferEPNS_13ErrorReporterEiii+0x1a>
 8005356:	460a      	mov	r2, r1
 8005358:	490b      	ldr	r1, [pc, #44]	; (8005388 <_ZN6tflite19GreedyMemoryPlanner9AddBufferEPNS_13ErrorReporterEiii+0x40>)
 800535a:	f7fd fc0b 	bl	8002b74 <_ZN6tflite13ErrorReporter6ReportEPKcz>
 800535e:	2001      	movs	r0, #1
 8005360:	bd70      	pop	{r4, r5, r6, pc}
 8005362:	68e0      	ldr	r0, [r4, #12]
 8005364:	012e      	lsls	r6, r5, #4
 8005366:	eb00 1105 	add.w	r1, r0, r5, lsl #4
 800536a:	5182      	str	r2, [r0, r6]
 800536c:	608b      	str	r3, [r1, #8]
 800536e:	9b04      	ldr	r3, [sp, #16]
 8005370:	60cb      	str	r3, [r1, #12]
 8005372:	f04f 33ff 	mov.w	r3, #4294967295
 8005376:	604b      	str	r3, [r1, #4]
 8005378:	3501      	adds	r5, #1
 800537a:	2301      	movs	r3, #1
 800537c:	60a5      	str	r5, [r4, #8]
 800537e:	f884 3028 	strb.w	r3, [r4, #40]	; 0x28
 8005382:	2000      	movs	r0, #0
 8005384:	e7ec      	b.n	8005360 <_ZN6tflite19GreedyMemoryPlanner9AddBufferEPNS_13ErrorReporterEiii+0x18>
 8005386:	bf00      	nop
 8005388:	0800a304 	.word	0x0800a304

0800538c <_ZN6tflite18ReverseSortInPlaceEPiS0_i>:
 800538c:	b5f0      	push	{r4, r5, r6, r7, lr}
 800538e:	4604      	mov	r4, r0
 8005390:	460b      	mov	r3, r1
 8005392:	2501      	movs	r5, #1
 8005394:	2600      	movs	r6, #0
 8005396:	4295      	cmp	r5, r2
 8005398:	da12      	bge.n	80053c0 <_ZN6tflite18ReverseSortInPlaceEPiS0_i+0x34>
 800539a:	e9d4 7c00 	ldrd	r7, ip, [r4]
 800539e:	4567      	cmp	r7, ip
 80053a0:	bfbc      	itt	lt
 80053a2:	e9c4 c700 	strdlt	ip, r7, [r4]
 80053a6:	e9d3 6700 	ldrdlt	r6, r7, [r3]
 80053aa:	f105 0501 	add.w	r5, r5, #1
 80053ae:	bfb8      	it	lt
 80053b0:	e9c3 7600 	strdlt	r7, r6, [r3]
 80053b4:	f104 0404 	add.w	r4, r4, #4
 80053b8:	bfb8      	it	lt
 80053ba:	2601      	movlt	r6, #1
 80053bc:	3304      	adds	r3, #4
 80053be:	e7ea      	b.n	8005396 <_ZN6tflite18ReverseSortInPlaceEPiS0_i+0xa>
 80053c0:	2e00      	cmp	r6, #0
 80053c2:	d1e4      	bne.n	800538e <_ZN6tflite18ReverseSortInPlaceEPiS0_i+0x2>
 80053c4:	bdf0      	pop	{r4, r5, r6, r7, pc}
	...

080053c8 <_ZN6tflite19GreedyMemoryPlannerC1EPhi>:
 80053c8:	b510      	push	{r4, lr}
 80053ca:	4c0d      	ldr	r4, [pc, #52]	; (8005400 <_ZN6tflite19GreedyMemoryPlannerC1EPhi+0x38>)
 80053cc:	6004      	str	r4, [r0, #0]
 80053ce:	2400      	movs	r4, #0
 80053d0:	6084      	str	r4, [r0, #8]
 80053d2:	2401      	movs	r4, #1
 80053d4:	f880 4028 	strb.w	r4, [r0, #40]	; 0x28
 80053d8:	60c1      	str	r1, [r0, #12]
 80053da:	2428      	movs	r4, #40	; 0x28
 80053dc:	fbb2 f2f4 	udiv	r2, r2, r4
 80053e0:	eb01 1102 	add.w	r1, r1, r2, lsl #4
 80053e4:	6101      	str	r1, [r0, #16]
 80053e6:	eb01 0182 	add.w	r1, r1, r2, lsl #2
 80053ea:	6141      	str	r1, [r0, #20]
 80053ec:	240c      	movs	r4, #12
 80053ee:	eb01 0182 	add.w	r1, r1, r2, lsl #2
 80053f2:	6042      	str	r2, [r0, #4]
 80053f4:	fb04 1202 	mla	r2, r4, r2, r1
 80053f8:	6181      	str	r1, [r0, #24]
 80053fa:	6242      	str	r2, [r0, #36]	; 0x24
 80053fc:	bd10      	pop	{r4, pc}
 80053fe:	bf00      	nop
 8005400:	0800a354 	.word	0x0800a354

08005404 <_ZN6tflite19GreedyMemoryPlanner9AddBufferEPNS_13ErrorReporterEiiii>:
 8005404:	b5f7      	push	{r0, r1, r2, r4, r5, r6, r7, lr}
 8005406:	9f08      	ldr	r7, [sp, #32]
 8005408:	6804      	ldr	r4, [r0, #0]
 800540a:	e9d0 6502 	ldrd	r6, r5, [r0, #8]
 800540e:	9700      	str	r7, [sp, #0]
 8005410:	68a4      	ldr	r4, [r4, #8]
 8005412:	47a0      	blx	r4
 8005414:	b928      	cbnz	r0, 8005422 <_ZN6tflite19GreedyMemoryPlanner9AddBufferEPNS_13ErrorReporterEiiii+0x1e>
 8005416:	eb05 1506 	add.w	r5, r5, r6, lsl #4
 800541a:	9b09      	ldr	r3, [sp, #36]	; 0x24
 800541c:	606b      	str	r3, [r5, #4]
 800541e:	b003      	add	sp, #12
 8005420:	bdf0      	pop	{r4, r5, r6, r7, pc}
 8005422:	2001      	movs	r0, #1
 8005424:	e7fb      	b.n	800541e <_ZN6tflite19GreedyMemoryPlanner9AddBufferEPNS_13ErrorReporterEiiii+0x1a>

08005426 <_ZNK6tflite19GreedyMemoryPlanner22DoesEntryOverlapInTimeEPKNS0_9ListEntryEii>:
 8005426:	b510      	push	{r4, lr}
 8005428:	684c      	ldr	r4, [r1, #4]
 800542a:	68c1      	ldr	r1, [r0, #12]
 800542c:	eb01 1104 	add.w	r1, r1, r4, lsl #4
 8005430:	6888      	ldr	r0, [r1, #8]
 8005432:	4298      	cmp	r0, r3
 8005434:	dc05      	bgt.n	8005442 <_ZNK6tflite19GreedyMemoryPlanner22DoesEntryOverlapInTimeEPKNS0_9ListEntryEii+0x1c>
 8005436:	68c8      	ldr	r0, [r1, #12]
 8005438:	4290      	cmp	r0, r2
 800543a:	bfb4      	ite	lt
 800543c:	2000      	movlt	r0, #0
 800543e:	2001      	movge	r0, #1
 8005440:	bd10      	pop	{r4, pc}
 8005442:	2000      	movs	r0, #0
 8005444:	e7fc      	b.n	8005440 <_ZNK6tflite19GreedyMemoryPlanner22DoesEntryOverlapInTimeEPKNS0_9ListEntryEii+0x1a>

08005446 <_ZN6tflite19GreedyMemoryPlanner30NextSimultaneouslyActiveBufferEPKNS0_9ListEntryEii>:
 8005446:	b570      	push	{r4, r5, r6, lr}
 8005448:	4605      	mov	r5, r0
 800544a:	b989      	cbnz	r1, 8005470 <_ZN6tflite19GreedyMemoryPlanner30NextSimultaneouslyActiveBufferEPKNS0_9ListEntryEii+0x2a>
 800544c:	6a04      	ldr	r4, [r0, #32]
 800544e:	69a9      	ldr	r1, [r5, #24]
 8005450:	200c      	movs	r0, #12
 8005452:	fb00 1404 	mla	r4, r0, r4, r1
 8005456:	260c      	movs	r6, #12
 8005458:	4621      	mov	r1, r4
 800545a:	4628      	mov	r0, r5
 800545c:	f7ff ffe3 	bl	8005426 <_ZNK6tflite19GreedyMemoryPlanner22DoesEntryOverlapInTimeEPKNS0_9ListEntryEii>
 8005460:	b950      	cbnz	r0, 8005478 <_ZN6tflite19GreedyMemoryPlanner30NextSimultaneouslyActiveBufferEPKNS0_9ListEntryEii+0x32>
 8005462:	68a4      	ldr	r4, [r4, #8]
 8005464:	1c61      	adds	r1, r4, #1
 8005466:	d009      	beq.n	800547c <_ZN6tflite19GreedyMemoryPlanner30NextSimultaneouslyActiveBufferEPKNS0_9ListEntryEii+0x36>
 8005468:	69a9      	ldr	r1, [r5, #24]
 800546a:	fb06 1404 	mla	r4, r6, r4, r1
 800546e:	e7f3      	b.n	8005458 <_ZN6tflite19GreedyMemoryPlanner30NextSimultaneouslyActiveBufferEPKNS0_9ListEntryEii+0x12>
 8005470:	688c      	ldr	r4, [r1, #8]
 8005472:	1c60      	adds	r0, r4, #1
 8005474:	d1eb      	bne.n	800544e <_ZN6tflite19GreedyMemoryPlanner30NextSimultaneouslyActiveBufferEPKNS0_9ListEntryEii+0x8>
 8005476:	2400      	movs	r4, #0
 8005478:	4620      	mov	r0, r4
 800547a:	bd70      	pop	{r4, r5, r6, pc}
 800547c:	4604      	mov	r4, r0
 800547e:	e7fb      	b.n	8005478 <_ZN6tflite19GreedyMemoryPlanner30NextSimultaneouslyActiveBufferEPKNS0_9ListEntryEii+0x32>

08005480 <_ZN6tflite19GreedyMemoryPlanner24CalculateOffsetsIfNeededEv>:
 8005480:	e92d 4ff0 	stmdb	sp!, {r4, r5, r6, r7, r8, r9, sl, fp, lr}
 8005484:	f890 3028 	ldrb.w	r3, [r0, #40]	; 0x28
 8005488:	b085      	sub	sp, #20
 800548a:	4604      	mov	r4, r0
 800548c:	2b00      	cmp	r3, #0
 800548e:	f000 80ae 	beq.w	80055ee <_ZN6tflite19GreedyMemoryPlanner24CalculateOffsetsIfNeededEv+0x16e>
 8005492:	6885      	ldr	r5, [r0, #8]
 8005494:	2d00      	cmp	r5, #0
 8005496:	f000 80aa 	beq.w	80055ee <_ZN6tflite19GreedyMemoryPlanner24CalculateOffsetsIfNeededEv+0x16e>
 800549a:	e9d0 7604 	ldrd	r7, r6, [r0, #16]
 800549e:	2300      	movs	r3, #0
 80054a0:	f880 3028 	strb.w	r3, [r0, #40]	; 0x28
 80054a4:	461a      	mov	r2, r3
 80054a6:	f8d4 c008 	ldr.w	ip, [r4, #8]
 80054aa:	459c      	cmp	ip, r3
 80054ac:	ea4f 0e82 	mov.w	lr, r2, lsl #2
 80054b0:	eb07 0082 	add.w	r0, r7, r2, lsl #2
 80054b4:	eb06 0182 	add.w	r1, r6, r2, lsl #2
 80054b8:	dd1e      	ble.n	80054f8 <_ZN6tflite19GreedyMemoryPlanner24CalculateOffsetsIfNeededEv+0x78>
 80054ba:	f8d4 c00c 	ldr.w	ip, [r4, #12]
 80054be:	eb0c 1003 	add.w	r0, ip, r3, lsl #4
 80054c2:	0119      	lsls	r1, r3, #4
 80054c4:	f8d0 8004 	ldr.w	r8, [r0, #4]
 80054c8:	f85c c001 	ldr.w	ip, [ip, r1]
 80054cc:	6a61      	ldr	r1, [r4, #36]	; 0x24
 80054ce:	f1b8 3fff 	cmp.w	r8, #4294967295
 80054d2:	d108      	bne.n	80054e6 <_ZN6tflite19GreedyMemoryPlanner24CalculateOffsetsIfNeededEv+0x66>
 80054d4:	3d01      	subs	r5, #1
 80054d6:	f847 c025 	str.w	ip, [r7, r5, lsl #2]
 80054da:	f846 3025 	str.w	r3, [r6, r5, lsl #2]
 80054de:	f841 8023 	str.w	r8, [r1, r3, lsl #2]
 80054e2:	3301      	adds	r3, #1
 80054e4:	e7df      	b.n	80054a6 <_ZN6tflite19GreedyMemoryPlanner24CalculateOffsetsIfNeededEv+0x26>
 80054e6:	f847 c00e 	str.w	ip, [r7, lr]
 80054ea:	f846 300e 	str.w	r3, [r6, lr]
 80054ee:	6840      	ldr	r0, [r0, #4]
 80054f0:	f841 0023 	str.w	r0, [r1, r3, lsl #2]
 80054f4:	3201      	adds	r2, #1
 80054f6:	e7f4      	b.n	80054e2 <_ZN6tflite19GreedyMemoryPlanner24CalculateOffsetsIfNeededEv+0x62>
 80054f8:	ebac 0202 	sub.w	r2, ip, r2
 80054fc:	f7ff ff46 	bl	800538c <_ZN6tflite18ReverseSortInPlaceEPiS0_i>
 8005500:	69a6      	ldr	r6, [r4, #24]
 8005502:	f8d4 800c 	ldr.w	r8, [r4, #12]
 8005506:	f8d4 b024 	ldr.w	fp, [r4, #36]	; 0x24
 800550a:	2301      	movs	r3, #1
 800550c:	2200      	movs	r2, #0
 800550e:	e9c4 3207 	strd	r3, r2, [r4, #28]
 8005512:	f04f 33ff 	mov.w	r3, #4294967295
 8005516:	60b3      	str	r3, [r6, #8]
 8005518:	6963      	ldr	r3, [r4, #20]
 800551a:	9301      	str	r3, [sp, #4]
 800551c:	681b      	ldr	r3, [r3, #0]
 800551e:	6073      	str	r3, [r6, #4]
 8005520:	eb08 1103 	add.w	r1, r8, r3, lsl #4
 8005524:	46b2      	mov	sl, r6
 8005526:	6849      	ldr	r1, [r1, #4]
 8005528:	3101      	adds	r1, #1
 800552a:	bf08      	it	eq
 800552c:	f84b 2023 	streq.w	r2, [fp, r3, lsl #2]
 8005530:	f85b 3023 	ldr.w	r3, [fp, r3, lsl #2]
 8005534:	6033      	str	r3, [r6, #0]
 8005536:	2701      	movs	r7, #1
 8005538:	68a3      	ldr	r3, [r4, #8]
 800553a:	42bb      	cmp	r3, r7
 800553c:	dd57      	ble.n	80055ee <_ZN6tflite19GreedyMemoryPlanner24CalculateOffsetsIfNeededEv+0x16e>
 800553e:	9b01      	ldr	r3, [sp, #4]
 8005540:	f853 9027 	ldr.w	r9, [r3, r7, lsl #2]
 8005544:	eb08 1309 	add.w	r3, r8, r9, lsl #4
 8005548:	ea4f 1209 	mov.w	r2, r9, lsl #4
 800554c:	685d      	ldr	r5, [r3, #4]
 800554e:	1c69      	adds	r1, r5, #1
 8005550:	d120      	bne.n	8005594 <_ZN6tflite19GreedyMemoryPlanner24CalculateOffsetsIfNeededEv+0x114>
 8005552:	f858 2002 	ldr.w	r2, [r8, r2]
 8005556:	9202      	str	r2, [sp, #8]
 8005558:	2000      	movs	r0, #0
 800555a:	689a      	ldr	r2, [r3, #8]
 800555c:	edd3 7a03 	vldr	s15, [r3, #12]
 8005560:	4605      	mov	r5, r0
 8005562:	4601      	mov	r1, r0
 8005564:	9003      	str	r0, [sp, #12]
 8005566:	ee17 3a90 	vmov	r3, s15
 800556a:	4620      	mov	r0, r4
 800556c:	f7ff ff6b 	bl	8005446 <_ZN6tflite19GreedyMemoryPlanner30NextSimultaneouslyActiveBufferEPKNS0_9ListEntryEii>
 8005570:	9903      	ldr	r1, [sp, #12]
 8005572:	b149      	cbz	r1, 8005588 <_ZN6tflite19GreedyMemoryPlanner24CalculateOffsetsIfNeededEv+0x108>
 8005574:	684b      	ldr	r3, [r1, #4]
 8005576:	6809      	ldr	r1, [r1, #0]
 8005578:	ea4f 1c03 	mov.w	ip, r3, lsl #4
 800557c:	f858 c00c 	ldr.w	ip, [r8, ip]
 8005580:	448c      	add	ip, r1
 8005582:	4565      	cmp	r5, ip
 8005584:	bfb8      	it	lt
 8005586:	4665      	movlt	r5, ip
 8005588:	b120      	cbz	r0, 8005594 <_ZN6tflite19GreedyMemoryPlanner24CalculateOffsetsIfNeededEv+0x114>
 800558a:	6801      	ldr	r1, [r0, #0]
 800558c:	9b02      	ldr	r3, [sp, #8]
 800558e:	1b49      	subs	r1, r1, r5
 8005590:	428b      	cmp	r3, r1
 8005592:	dce6      	bgt.n	8005562 <_ZN6tflite19GreedyMemoryPlanner24CalculateOffsetsIfNeededEv+0xe2>
 8005594:	f84b 5029 	str.w	r5, [fp, r9, lsl #2]
 8005598:	69e3      	ldr	r3, [r4, #28]
 800559a:	220c      	movs	r2, #12
 800559c:	fb02 f103 	mul.w	r1, r2, r3
 80055a0:	1872      	adds	r2, r6, r1
 80055a2:	5075      	str	r5, [r6, r1]
 80055a4:	1c59      	adds	r1, r3, #1
 80055a6:	f8c2 9004 	str.w	r9, [r2, #4]
 80055aa:	61e1      	str	r1, [r4, #28]
 80055ac:	f8da 1000 	ldr.w	r1, [sl]
 80055b0:	42a9      	cmp	r1, r5
 80055b2:	dd05      	ble.n	80055c0 <_ZN6tflite19GreedyMemoryPlanner24CalculateOffsetsIfNeededEv+0x140>
 80055b4:	6a21      	ldr	r1, [r4, #32]
 80055b6:	6091      	str	r1, [r2, #8]
 80055b8:	4692      	mov	sl, r2
 80055ba:	6223      	str	r3, [r4, #32]
 80055bc:	3701      	adds	r7, #1
 80055be:	e7bb      	b.n	8005538 <_ZN6tflite19GreedyMemoryPlanner24CalculateOffsetsIfNeededEv+0xb8>
 80055c0:	4651      	mov	r1, sl
 80055c2:	6888      	ldr	r0, [r1, #8]
 80055c4:	f1b0 3fff 	cmp.w	r0, #4294967295
 80055c8:	d104      	bne.n	80055d4 <_ZN6tflite19GreedyMemoryPlanner24CalculateOffsetsIfNeededEv+0x154>
 80055ca:	608b      	str	r3, [r1, #8]
 80055cc:	6090      	str	r0, [r2, #8]
 80055ce:	e7f5      	b.n	80055bc <_ZN6tflite19GreedyMemoryPlanner24CalculateOffsetsIfNeededEv+0x13c>
 80055d0:	4671      	mov	r1, lr
 80055d2:	e7f6      	b.n	80055c2 <_ZN6tflite19GreedyMemoryPlanner24CalculateOffsetsIfNeededEv+0x142>
 80055d4:	f04f 0c0c 	mov.w	ip, #12
 80055d8:	fb0c fc00 	mul.w	ip, ip, r0
 80055dc:	eb06 0e0c 	add.w	lr, r6, ip
 80055e0:	f856 c00c 	ldr.w	ip, [r6, ip]
 80055e4:	45ac      	cmp	ip, r5
 80055e6:	ddf3      	ble.n	80055d0 <_ZN6tflite19GreedyMemoryPlanner24CalculateOffsetsIfNeededEv+0x150>
 80055e8:	6090      	str	r0, [r2, #8]
 80055ea:	608b      	str	r3, [r1, #8]
 80055ec:	e7e6      	b.n	80055bc <_ZN6tflite19GreedyMemoryPlanner24CalculateOffsetsIfNeededEv+0x13c>
 80055ee:	b005      	add	sp, #20
 80055f0:	e8bd 8ff0 	ldmia.w	sp!, {r4, r5, r6, r7, r8, r9, sl, fp, pc}

080055f4 <_ZN6tflite19GreedyMemoryPlanner20GetMaximumMemorySizeEv>:
 80055f4:	b570      	push	{r4, r5, r6, lr}
 80055f6:	4604      	mov	r4, r0
 80055f8:	f7ff ff42 	bl	8005480 <_ZN6tflite19GreedyMemoryPlanner24CalculateOffsetsIfNeededEv>
 80055fc:	68a0      	ldr	r0, [r4, #8]
 80055fe:	b1a8      	cbz	r0, 800562c <_ZN6tflite19GreedyMemoryPlanner20GetMaximumMemorySizeEv+0x38>
 8005600:	69a5      	ldr	r5, [r4, #24]
 8005602:	6a23      	ldr	r3, [r4, #32]
 8005604:	220c      	movs	r2, #12
 8005606:	fb02 5303 	mla	r3, r2, r3, r5
 800560a:	2000      	movs	r0, #0
 800560c:	b173      	cbz	r3, 800562c <_ZN6tflite19GreedyMemoryPlanner20GetMaximumMemorySizeEv+0x38>
 800560e:	6859      	ldr	r1, [r3, #4]
 8005610:	68e6      	ldr	r6, [r4, #12]
 8005612:	0109      	lsls	r1, r1, #4
 8005614:	5871      	ldr	r1, [r6, r1]
 8005616:	681e      	ldr	r6, [r3, #0]
 8005618:	689b      	ldr	r3, [r3, #8]
 800561a:	4431      	add	r1, r6
 800561c:	4288      	cmp	r0, r1
 800561e:	bf38      	it	cc
 8005620:	4608      	movcc	r0, r1
 8005622:	1c59      	adds	r1, r3, #1
 8005624:	d002      	beq.n	800562c <_ZN6tflite19GreedyMemoryPlanner20GetMaximumMemorySizeEv+0x38>
 8005626:	fb02 5303 	mla	r3, r2, r3, r5
 800562a:	e7ef      	b.n	800560c <_ZN6tflite19GreedyMemoryPlanner20GetMaximumMemorySizeEv+0x18>
 800562c:	bd70      	pop	{r4, r5, r6, pc}
	...

08005630 <_ZN6tflite19GreedyMemoryPlanner18GetOffsetForBufferEPNS_13ErrorReporterEiPi>:
 8005630:	b5f8      	push	{r3, r4, r5, r6, r7, lr}
 8005632:	4614      	mov	r4, r2
 8005634:	4605      	mov	r5, r0
 8005636:	460f      	mov	r7, r1
 8005638:	461e      	mov	r6, r3
 800563a:	f7ff ff21 	bl	8005480 <_ZN6tflite19GreedyMemoryPlanner24CalculateOffsetsIfNeededEv>
 800563e:	2c00      	cmp	r4, #0
 8005640:	db02      	blt.n	8005648 <_ZN6tflite19GreedyMemoryPlanner18GetOffsetForBufferEPNS_13ErrorReporterEiPi+0x18>
 8005642:	68ab      	ldr	r3, [r5, #8]
 8005644:	42a3      	cmp	r3, r4
 8005646:	dc07      	bgt.n	8005658 <_ZN6tflite19GreedyMemoryPlanner18GetOffsetForBufferEPNS_13ErrorReporterEiPi+0x28>
 8005648:	68ab      	ldr	r3, [r5, #8]
 800564a:	4906      	ldr	r1, [pc, #24]	; (8005664 <_ZN6tflite19GreedyMemoryPlanner18GetOffsetForBufferEPNS_13ErrorReporterEiPi+0x34>)
 800564c:	4622      	mov	r2, r4
 800564e:	4638      	mov	r0, r7
 8005650:	f7fd fa90 	bl	8002b74 <_ZN6tflite13ErrorReporter6ReportEPKcz>
 8005654:	2001      	movs	r0, #1
 8005656:	bdf8      	pop	{r3, r4, r5, r6, r7, pc}
 8005658:	6a6b      	ldr	r3, [r5, #36]	; 0x24
 800565a:	f853 3024 	ldr.w	r3, [r3, r4, lsl #2]
 800565e:	6033      	str	r3, [r6, #0]
 8005660:	2000      	movs	r0, #0
 8005662:	e7f8      	b.n	8005656 <_ZN6tflite19GreedyMemoryPlanner18GetOffsetForBufferEPNS_13ErrorReporterEiPi+0x26>
 8005664:	0800a321 	.word	0x0800a321

08005668 <_ZdlPv>:
 8005668:	f000 b946 	b.w	80058f8 <free>

0800566c <_ZdlPvj>:
 800566c:	f7ff bffc 	b.w	8005668 <_ZdlPv>

08005670 <_ZdaPv>:
 8005670:	f7ff bffa 	b.w	8005668 <_ZdlPv>

08005674 <__cxa_guard_acquire>:
 8005674:	6803      	ldr	r3, [r0, #0]
 8005676:	07db      	lsls	r3, r3, #31
 8005678:	d406      	bmi.n	8005688 <__cxa_guard_acquire+0x14>
 800567a:	7843      	ldrb	r3, [r0, #1]
 800567c:	b103      	cbz	r3, 8005680 <__cxa_guard_acquire+0xc>
 800567e:	deff      	udf	#255	; 0xff
 8005680:	2301      	movs	r3, #1
 8005682:	7043      	strb	r3, [r0, #1]
 8005684:	4618      	mov	r0, r3
 8005686:	4770      	bx	lr
 8005688:	2000      	movs	r0, #0
 800568a:	4770      	bx	lr

0800568c <__cxa_guard_release>:
 800568c:	2301      	movs	r3, #1
 800568e:	6003      	str	r3, [r0, #0]
 8005690:	4770      	bx	lr

08005692 <_Znwj>:
 8005692:	2801      	cmp	r0, #1
 8005694:	bf38      	it	cc
 8005696:	2001      	movcc	r0, #1
 8005698:	b510      	push	{r4, lr}
 800569a:	4604      	mov	r4, r0
 800569c:	4620      	mov	r0, r4
 800569e:	f000 f923 	bl	80058e8 <malloc>
 80056a2:	b930      	cbnz	r0, 80056b2 <_Znwj+0x20>
 80056a4:	f000 f808 	bl	80056b8 <_ZSt15get_new_handlerv>
 80056a8:	b908      	cbnz	r0, 80056ae <_Znwj+0x1c>
 80056aa:	f000 f8b1 	bl	8005810 <abort>
 80056ae:	4780      	blx	r0
 80056b0:	e7f4      	b.n	800569c <_Znwj+0xa>
 80056b2:	bd10      	pop	{r4, pc}

080056b4 <_Znaj>:
 80056b4:	f7ff bfed 	b.w	8005692 <_Znwj>

080056b8 <_ZSt15get_new_handlerv>:
 80056b8:	4b02      	ldr	r3, [pc, #8]	; (80056c4 <_ZSt15get_new_handlerv+0xc>)
 80056ba:	6818      	ldr	r0, [r3, #0]
 80056bc:	f3bf 8f5b 	dmb	ish
 80056c0:	4770      	bx	lr
 80056c2:	bf00      	nop
 80056c4:	20001788 	.word	0x20001788

080056c8 <frexp>:
 80056c8:	b570      	push	{r4, r5, r6, lr}
 80056ca:	2100      	movs	r1, #0
 80056cc:	ec55 4b10 	vmov	r4, r5, d0
 80056d0:	6001      	str	r1, [r0, #0]
 80056d2:	4916      	ldr	r1, [pc, #88]	; (800572c <frexp+0x64>)
 80056d4:	f025 4200 	bic.w	r2, r5, #2147483648	; 0x80000000
 80056d8:	428a      	cmp	r2, r1
 80056da:	4606      	mov	r6, r0
 80056dc:	462b      	mov	r3, r5
 80056de:	dc22      	bgt.n	8005726 <frexp+0x5e>
 80056e0:	ee10 1a10 	vmov	r1, s0
 80056e4:	4311      	orrs	r1, r2
 80056e6:	d01e      	beq.n	8005726 <frexp+0x5e>
 80056e8:	4911      	ldr	r1, [pc, #68]	; (8005730 <frexp+0x68>)
 80056ea:	4029      	ands	r1, r5
 80056ec:	b969      	cbnz	r1, 800570a <frexp+0x42>
 80056ee:	4b11      	ldr	r3, [pc, #68]	; (8005734 <frexp+0x6c>)
 80056f0:	2200      	movs	r2, #0
 80056f2:	ee10 0a10 	vmov	r0, s0
 80056f6:	4629      	mov	r1, r5
 80056f8:	f7fa ff8e 	bl	8000618 <__aeabi_dmul>
 80056fc:	460b      	mov	r3, r1
 80056fe:	f021 4200 	bic.w	r2, r1, #2147483648	; 0x80000000
 8005702:	f06f 0135 	mvn.w	r1, #53	; 0x35
 8005706:	4604      	mov	r4, r0
 8005708:	6031      	str	r1, [r6, #0]
 800570a:	6831      	ldr	r1, [r6, #0]
 800570c:	1512      	asrs	r2, r2, #20
 800570e:	f023 43ff 	bic.w	r3, r3, #2139095040	; 0x7f800000
 8005712:	f2a2 32fe 	subw	r2, r2, #1022	; 0x3fe
 8005716:	f423 03e0 	bic.w	r3, r3, #7340032	; 0x700000
 800571a:	440a      	add	r2, r1
 800571c:	f043 557f 	orr.w	r5, r3, #1069547520	; 0x3fc00000
 8005720:	6032      	str	r2, [r6, #0]
 8005722:	f445 1500 	orr.w	r5, r5, #2097152	; 0x200000
 8005726:	ec45 4b10 	vmov	d0, r4, r5
 800572a:	bd70      	pop	{r4, r5, r6, pc}
 800572c:	7fefffff 	.word	0x7fefffff
 8005730:	7ff00000 	.word	0x7ff00000
 8005734:	43500000 	.word	0x43500000

08005738 <round>:
 8005738:	ec51 0b10 	vmov	r0, r1, d0
 800573c:	b570      	push	{r4, r5, r6, lr}
 800573e:	f3c1 550a 	ubfx	r5, r1, #20, #11
 8005742:	f2a5 34ff 	subw	r4, r5, #1023	; 0x3ff
 8005746:	2c13      	cmp	r4, #19
 8005748:	ee10 2a10 	vmov	r2, s0
 800574c:	460b      	mov	r3, r1
 800574e:	dc19      	bgt.n	8005784 <round+0x4c>
 8005750:	2c00      	cmp	r4, #0
 8005752:	da09      	bge.n	8005768 <round+0x30>
 8005754:	3401      	adds	r4, #1
 8005756:	f001 4300 	and.w	r3, r1, #2147483648	; 0x80000000
 800575a:	d103      	bne.n	8005764 <round+0x2c>
 800575c:	f043 537f 	orr.w	r3, r3, #1069547520	; 0x3fc00000
 8005760:	f443 1340 	orr.w	r3, r3, #3145728	; 0x300000
 8005764:	2100      	movs	r1, #0
 8005766:	e028      	b.n	80057ba <round+0x82>
 8005768:	4d15      	ldr	r5, [pc, #84]	; (80057c0 <round+0x88>)
 800576a:	4125      	asrs	r5, r4
 800576c:	ea01 0605 	and.w	r6, r1, r5
 8005770:	4332      	orrs	r2, r6
 8005772:	d00e      	beq.n	8005792 <round+0x5a>
 8005774:	f44f 2200 	mov.w	r2, #524288	; 0x80000
 8005778:	fa42 f404 	asr.w	r4, r2, r4
 800577c:	4423      	add	r3, r4
 800577e:	ea23 0305 	bic.w	r3, r3, r5
 8005782:	e7ef      	b.n	8005764 <round+0x2c>
 8005784:	2c33      	cmp	r4, #51	; 0x33
 8005786:	dd07      	ble.n	8005798 <round+0x60>
 8005788:	f5b4 6f80 	cmp.w	r4, #1024	; 0x400
 800578c:	d101      	bne.n	8005792 <round+0x5a>
 800578e:	f7fa fd8d 	bl	80002ac <__adddf3>
 8005792:	ec41 0b10 	vmov	d0, r0, r1
 8005796:	bd70      	pop	{r4, r5, r6, pc}
 8005798:	f2a5 4613 	subw	r6, r5, #1043	; 0x413
 800579c:	f04f 35ff 	mov.w	r5, #4294967295
 80057a0:	40f5      	lsrs	r5, r6
 80057a2:	4228      	tst	r0, r5
 80057a4:	d0f5      	beq.n	8005792 <round+0x5a>
 80057a6:	2101      	movs	r1, #1
 80057a8:	f1c4 0433 	rsb	r4, r4, #51	; 0x33
 80057ac:	fa01 f404 	lsl.w	r4, r1, r4
 80057b0:	1912      	adds	r2, r2, r4
 80057b2:	bf28      	it	cs
 80057b4:	185b      	addcs	r3, r3, r1
 80057b6:	ea22 0105 	bic.w	r1, r2, r5
 80057ba:	4608      	mov	r0, r1
 80057bc:	4619      	mov	r1, r3
 80057be:	e7e8      	b.n	8005792 <round+0x5a>
 80057c0:	000fffff 	.word	0x000fffff

080057c4 <roundf>:
 80057c4:	ee10 0a10 	vmov	r0, s0
 80057c8:	f3c0 53c7 	ubfx	r3, r0, #23, #8
 80057cc:	f1a3 027f 	sub.w	r2, r3, #127	; 0x7f
 80057d0:	2a16      	cmp	r2, #22
 80057d2:	dc15      	bgt.n	8005800 <roundf+0x3c>
 80057d4:	2a00      	cmp	r2, #0
 80057d6:	da08      	bge.n	80057ea <roundf+0x26>
 80057d8:	3201      	adds	r2, #1
 80057da:	f000 4300 	and.w	r3, r0, #2147483648	; 0x80000000
 80057de:	d101      	bne.n	80057e4 <roundf+0x20>
 80057e0:	f043 537e 	orr.w	r3, r3, #1065353216	; 0x3f800000
 80057e4:	ee00 3a10 	vmov	s0, r3
 80057e8:	4770      	bx	lr
 80057ea:	4908      	ldr	r1, [pc, #32]	; (800580c <roundf+0x48>)
 80057ec:	4111      	asrs	r1, r2
 80057ee:	4208      	tst	r0, r1
 80057f0:	d0fa      	beq.n	80057e8 <roundf+0x24>
 80057f2:	f44f 0380 	mov.w	r3, #4194304	; 0x400000
 80057f6:	4113      	asrs	r3, r2
 80057f8:	4403      	add	r3, r0
 80057fa:	ea23 0301 	bic.w	r3, r3, r1
 80057fe:	e7f1      	b.n	80057e4 <roundf+0x20>
 8005800:	2a80      	cmp	r2, #128	; 0x80
 8005802:	d1f1      	bne.n	80057e8 <roundf+0x24>
 8005804:	ee30 0a00 	vadd.f32	s0, s0, s0
 8005808:	4770      	bx	lr
 800580a:	bf00      	nop
 800580c:	007fffff 	.word	0x007fffff

08005810 <abort>:
 8005810:	b508      	push	{r3, lr}
 8005812:	2006      	movs	r0, #6
 8005814:	f000 ff4e 	bl	80066b4 <raise>
 8005818:	2001      	movs	r0, #1
 800581a:	f7fb fec1 	bl	80015a0 <_exit>
	...

08005820 <__assert_func>:
 8005820:	b51f      	push	{r0, r1, r2, r3, r4, lr}
 8005822:	4614      	mov	r4, r2
 8005824:	461a      	mov	r2, r3
 8005826:	4b09      	ldr	r3, [pc, #36]	; (800584c <__assert_func+0x2c>)
 8005828:	681b      	ldr	r3, [r3, #0]
 800582a:	4605      	mov	r5, r0
 800582c:	68d8      	ldr	r0, [r3, #12]
 800582e:	b14c      	cbz	r4, 8005844 <__assert_func+0x24>
 8005830:	4b07      	ldr	r3, [pc, #28]	; (8005850 <__assert_func+0x30>)
 8005832:	9100      	str	r1, [sp, #0]
 8005834:	e9cd 3401 	strd	r3, r4, [sp, #4]
 8005838:	4906      	ldr	r1, [pc, #24]	; (8005854 <__assert_func+0x34>)
 800583a:	462b      	mov	r3, r5
 800583c:	f000 f81a 	bl	8005874 <fiprintf>
 8005840:	f7ff ffe6 	bl	8005810 <abort>
 8005844:	4b04      	ldr	r3, [pc, #16]	; (8005858 <__assert_func+0x38>)
 8005846:	461c      	mov	r4, r3
 8005848:	e7f3      	b.n	8005832 <__assert_func+0x12>
 800584a:	bf00      	nop
 800584c:	20000bc0 	.word	0x20000bc0
 8005850:	0800a36c 	.word	0x0800a36c
 8005854:	0800a379 	.word	0x0800a379
 8005858:	08008835 	.word	0x08008835

0800585c <atexit>:
 800585c:	2300      	movs	r3, #0
 800585e:	4601      	mov	r1, r0
 8005860:	461a      	mov	r2, r3
 8005862:	4618      	mov	r0, r3
 8005864:	f001 b834 	b.w	80068d0 <__register_exitproc>

08005868 <__errno>:
 8005868:	4b01      	ldr	r3, [pc, #4]	; (8005870 <__errno+0x8>)
 800586a:	6818      	ldr	r0, [r3, #0]
 800586c:	4770      	bx	lr
 800586e:	bf00      	nop
 8005870:	20000bc0 	.word	0x20000bc0

08005874 <fiprintf>:
 8005874:	b40e      	push	{r1, r2, r3}
 8005876:	b503      	push	{r0, r1, lr}
 8005878:	4601      	mov	r1, r0
 800587a:	ab03      	add	r3, sp, #12
 800587c:	4805      	ldr	r0, [pc, #20]	; (8005894 <fiprintf+0x20>)
 800587e:	f853 2b04 	ldr.w	r2, [r3], #4
 8005882:	6800      	ldr	r0, [r0, #0]
 8005884:	9301      	str	r3, [sp, #4]
 8005886:	f000 f943 	bl	8005b10 <_vfiprintf_r>
 800588a:	b002      	add	sp, #8
 800588c:	f85d eb04 	ldr.w	lr, [sp], #4
 8005890:	b003      	add	sp, #12
 8005892:	4770      	bx	lr
 8005894:	20000bc0 	.word	0x20000bc0

08005898 <__libc_init_array>:
 8005898:	b570      	push	{r4, r5, r6, lr}
 800589a:	4d0d      	ldr	r5, [pc, #52]	; (80058d0 <__libc_init_array+0x38>)
 800589c:	4c0d      	ldr	r4, [pc, #52]	; (80058d4 <__libc_init_array+0x3c>)
 800589e:	1b64      	subs	r4, r4, r5
 80058a0:	10a4      	asrs	r4, r4, #2
 80058a2:	2600      	movs	r6, #0
 80058a4:	42a6      	cmp	r6, r4
 80058a6:	d109      	bne.n	80058bc <__libc_init_array+0x24>
 80058a8:	4d0b      	ldr	r5, [pc, #44]	; (80058d8 <__libc_init_array+0x40>)
 80058aa:	4c0c      	ldr	r4, [pc, #48]	; (80058dc <__libc_init_array+0x44>)
 80058ac:	f002 fefa 	bl	80086a4 <_init>
 80058b0:	1b64      	subs	r4, r4, r5
 80058b2:	10a4      	asrs	r4, r4, #2
 80058b4:	2600      	movs	r6, #0
 80058b6:	42a6      	cmp	r6, r4
 80058b8:	d105      	bne.n	80058c6 <__libc_init_array+0x2e>
 80058ba:	bd70      	pop	{r4, r5, r6, pc}
 80058bc:	f855 3b04 	ldr.w	r3, [r5], #4
 80058c0:	4798      	blx	r3
 80058c2:	3601      	adds	r6, #1
 80058c4:	e7ee      	b.n	80058a4 <__libc_init_array+0xc>
 80058c6:	f855 3b04 	ldr.w	r3, [r5], #4
 80058ca:	4798      	blx	r3
 80058cc:	3601      	adds	r6, #1
 80058ce:	e7f2      	b.n	80058b6 <__libc_init_array+0x1e>
 80058d0:	0800a74c 	.word	0x0800a74c
 80058d4:	0800a74c 	.word	0x0800a74c
 80058d8:	0800a74c 	.word	0x0800a74c
 80058dc:	0800a750 	.word	0x0800a750

080058e0 <__retarget_lock_init_recursive>:
 80058e0:	4770      	bx	lr

080058e2 <__retarget_lock_acquire_recursive>:
 80058e2:	4770      	bx	lr

080058e4 <__retarget_lock_release>:
 80058e4:	4770      	bx	lr

080058e6 <__retarget_lock_release_recursive>:
 80058e6:	4770      	bx	lr

080058e8 <malloc>:
 80058e8:	4b02      	ldr	r3, [pc, #8]	; (80058f4 <malloc+0xc>)
 80058ea:	4601      	mov	r1, r0
 80058ec:	6818      	ldr	r0, [r3, #0]
 80058ee:	f000 b88b 	b.w	8005a08 <_malloc_r>
 80058f2:	bf00      	nop
 80058f4:	20000bc0 	.word	0x20000bc0

080058f8 <free>:
 80058f8:	4b02      	ldr	r3, [pc, #8]	; (8005904 <free+0xc>)
 80058fa:	4601      	mov	r1, r0
 80058fc:	6818      	ldr	r0, [r3, #0]
 80058fe:	f000 b833 	b.w	8005968 <_free_r>
 8005902:	bf00      	nop
 8005904:	20000bc0 	.word	0x20000bc0

08005908 <memcpy>:
 8005908:	440a      	add	r2, r1
 800590a:	4291      	cmp	r1, r2
 800590c:	f100 33ff 	add.w	r3, r0, #4294967295
 8005910:	d100      	bne.n	8005914 <memcpy+0xc>
 8005912:	4770      	bx	lr
 8005914:	b510      	push	{r4, lr}
 8005916:	f811 4b01 	ldrb.w	r4, [r1], #1
 800591a:	f803 4f01 	strb.w	r4, [r3, #1]!
 800591e:	4291      	cmp	r1, r2
 8005920:	d1f9      	bne.n	8005916 <memcpy+0xe>
 8005922:	bd10      	pop	{r4, pc}

08005924 <memmove>:
 8005924:	4288      	cmp	r0, r1
 8005926:	b510      	push	{r4, lr}
 8005928:	eb01 0402 	add.w	r4, r1, r2
 800592c:	d902      	bls.n	8005934 <memmove+0x10>
 800592e:	4284      	cmp	r4, r0
 8005930:	4623      	mov	r3, r4
 8005932:	d807      	bhi.n	8005944 <memmove+0x20>
 8005934:	1e43      	subs	r3, r0, #1
 8005936:	42a1      	cmp	r1, r4
 8005938:	d008      	beq.n	800594c <memmove+0x28>
 800593a:	f811 2b01 	ldrb.w	r2, [r1], #1
 800593e:	f803 2f01 	strb.w	r2, [r3, #1]!
 8005942:	e7f8      	b.n	8005936 <memmove+0x12>
 8005944:	4402      	add	r2, r0
 8005946:	4601      	mov	r1, r0
 8005948:	428a      	cmp	r2, r1
 800594a:	d100      	bne.n	800594e <memmove+0x2a>
 800594c:	bd10      	pop	{r4, pc}
 800594e:	f813 4d01 	ldrb.w	r4, [r3, #-1]!
 8005952:	f802 4d01 	strb.w	r4, [r2, #-1]!
 8005956:	e7f7      	b.n	8005948 <memmove+0x24>

08005958 <memset>:
 8005958:	4402      	add	r2, r0
 800595a:	4603      	mov	r3, r0
 800595c:	4293      	cmp	r3, r2
 800595e:	d100      	bne.n	8005962 <memset+0xa>
 8005960:	4770      	bx	lr
 8005962:	f803 1b01 	strb.w	r1, [r3], #1
 8005966:	e7f9      	b.n	800595c <memset+0x4>

08005968 <_free_r>:
 8005968:	b537      	push	{r0, r1, r2, r4, r5, lr}
 800596a:	2900      	cmp	r1, #0
 800596c:	d048      	beq.n	8005a00 <_free_r+0x98>
 800596e:	f851 3c04 	ldr.w	r3, [r1, #-4]
 8005972:	9001      	str	r0, [sp, #4]
 8005974:	2b00      	cmp	r3, #0
 8005976:	f1a1 0404 	sub.w	r4, r1, #4
 800597a:	bfb8      	it	lt
 800597c:	18e4      	addlt	r4, r4, r3
 800597e:	f002 f8a3 	bl	8007ac8 <__malloc_lock>
 8005982:	4a20      	ldr	r2, [pc, #128]	; (8005a04 <_free_r+0x9c>)
 8005984:	9801      	ldr	r0, [sp, #4]
 8005986:	6813      	ldr	r3, [r2, #0]
 8005988:	4615      	mov	r5, r2
 800598a:	b933      	cbnz	r3, 800599a <_free_r+0x32>
 800598c:	6063      	str	r3, [r4, #4]
 800598e:	6014      	str	r4, [r2, #0]
 8005990:	b003      	add	sp, #12
 8005992:	e8bd 4030 	ldmia.w	sp!, {r4, r5, lr}
 8005996:	f002 b89d 	b.w	8007ad4 <__malloc_unlock>
 800599a:	42a3      	cmp	r3, r4
 800599c:	d90b      	bls.n	80059b6 <_free_r+0x4e>
 800599e:	6821      	ldr	r1, [r4, #0]
 80059a0:	1862      	adds	r2, r4, r1
 80059a2:	4293      	cmp	r3, r2
 80059a4:	bf04      	itt	eq
 80059a6:	681a      	ldreq	r2, [r3, #0]
 80059a8:	685b      	ldreq	r3, [r3, #4]
 80059aa:	6063      	str	r3, [r4, #4]
 80059ac:	bf04      	itt	eq
 80059ae:	1852      	addeq	r2, r2, r1
 80059b0:	6022      	streq	r2, [r4, #0]
 80059b2:	602c      	str	r4, [r5, #0]
 80059b4:	e7ec      	b.n	8005990 <_free_r+0x28>
 80059b6:	461a      	mov	r2, r3
 80059b8:	685b      	ldr	r3, [r3, #4]
 80059ba:	b10b      	cbz	r3, 80059c0 <_free_r+0x58>
 80059bc:	42a3      	cmp	r3, r4
 80059be:	d9fa      	bls.n	80059b6 <_free_r+0x4e>
 80059c0:	6811      	ldr	r1, [r2, #0]
 80059c2:	1855      	adds	r5, r2, r1
 80059c4:	42a5      	cmp	r5, r4
 80059c6:	d10b      	bne.n	80059e0 <_free_r+0x78>
 80059c8:	6824      	ldr	r4, [r4, #0]
 80059ca:	4421      	add	r1, r4
 80059cc:	1854      	adds	r4, r2, r1
 80059ce:	42a3      	cmp	r3, r4
 80059d0:	6011      	str	r1, [r2, #0]
 80059d2:	d1dd      	bne.n	8005990 <_free_r+0x28>
 80059d4:	681c      	ldr	r4, [r3, #0]
 80059d6:	685b      	ldr	r3, [r3, #4]
 80059d8:	6053      	str	r3, [r2, #4]
 80059da:	4421      	add	r1, r4
 80059dc:	6011      	str	r1, [r2, #0]
 80059de:	e7d7      	b.n	8005990 <_free_r+0x28>
 80059e0:	d902      	bls.n	80059e8 <_free_r+0x80>
 80059e2:	230c      	movs	r3, #12
 80059e4:	6003      	str	r3, [r0, #0]
 80059e6:	e7d3      	b.n	8005990 <_free_r+0x28>
 80059e8:	6825      	ldr	r5, [r4, #0]
 80059ea:	1961      	adds	r1, r4, r5
 80059ec:	428b      	cmp	r3, r1
 80059ee:	bf04      	itt	eq
 80059f0:	6819      	ldreq	r1, [r3, #0]
 80059f2:	685b      	ldreq	r3, [r3, #4]
 80059f4:	6063      	str	r3, [r4, #4]
 80059f6:	bf04      	itt	eq
 80059f8:	1949      	addeq	r1, r1, r5
 80059fa:	6021      	streq	r1, [r4, #0]
 80059fc:	6054      	str	r4, [r2, #4]
 80059fe:	e7c7      	b.n	8005990 <_free_r+0x28>
 8005a00:	b003      	add	sp, #12
 8005a02:	bd30      	pop	{r4, r5, pc}
 8005a04:	2000178c 	.word	0x2000178c

08005a08 <_malloc_r>:
 8005a08:	b5f8      	push	{r3, r4, r5, r6, r7, lr}
 8005a0a:	1ccd      	adds	r5, r1, #3
 8005a0c:	f025 0503 	bic.w	r5, r5, #3
 8005a10:	3508      	adds	r5, #8
 8005a12:	2d0c      	cmp	r5, #12
 8005a14:	bf38      	it	cc
 8005a16:	250c      	movcc	r5, #12
 8005a18:	2d00      	cmp	r5, #0
 8005a1a:	4606      	mov	r6, r0
 8005a1c:	db01      	blt.n	8005a22 <_malloc_r+0x1a>
 8005a1e:	42a9      	cmp	r1, r5
 8005a20:	d903      	bls.n	8005a2a <_malloc_r+0x22>
 8005a22:	230c      	movs	r3, #12
 8005a24:	6033      	str	r3, [r6, #0]
 8005a26:	2000      	movs	r0, #0
 8005a28:	bdf8      	pop	{r3, r4, r5, r6, r7, pc}
 8005a2a:	f002 f84d 	bl	8007ac8 <__malloc_lock>
 8005a2e:	4921      	ldr	r1, [pc, #132]	; (8005ab4 <_malloc_r+0xac>)
 8005a30:	680a      	ldr	r2, [r1, #0]
 8005a32:	4614      	mov	r4, r2
 8005a34:	b99c      	cbnz	r4, 8005a5e <_malloc_r+0x56>
 8005a36:	4f20      	ldr	r7, [pc, #128]	; (8005ab8 <_malloc_r+0xb0>)
 8005a38:	683b      	ldr	r3, [r7, #0]
 8005a3a:	b923      	cbnz	r3, 8005a46 <_malloc_r+0x3e>
 8005a3c:	4621      	mov	r1, r4
 8005a3e:	4630      	mov	r0, r6
 8005a40:	f000 fe00 	bl	8006644 <_sbrk_r>
 8005a44:	6038      	str	r0, [r7, #0]
 8005a46:	4629      	mov	r1, r5
 8005a48:	4630      	mov	r0, r6
 8005a4a:	f000 fdfb 	bl	8006644 <_sbrk_r>
 8005a4e:	1c43      	adds	r3, r0, #1
 8005a50:	d123      	bne.n	8005a9a <_malloc_r+0x92>
 8005a52:	230c      	movs	r3, #12
 8005a54:	6033      	str	r3, [r6, #0]
 8005a56:	4630      	mov	r0, r6
 8005a58:	f002 f83c 	bl	8007ad4 <__malloc_unlock>
 8005a5c:	e7e3      	b.n	8005a26 <_malloc_r+0x1e>
 8005a5e:	6823      	ldr	r3, [r4, #0]
 8005a60:	1b5b      	subs	r3, r3, r5
 8005a62:	d417      	bmi.n	8005a94 <_malloc_r+0x8c>
 8005a64:	2b0b      	cmp	r3, #11
 8005a66:	d903      	bls.n	8005a70 <_malloc_r+0x68>
 8005a68:	6023      	str	r3, [r4, #0]
 8005a6a:	441c      	add	r4, r3
 8005a6c:	6025      	str	r5, [r4, #0]
 8005a6e:	e004      	b.n	8005a7a <_malloc_r+0x72>
 8005a70:	6863      	ldr	r3, [r4, #4]
 8005a72:	42a2      	cmp	r2, r4
 8005a74:	bf0c      	ite	eq
 8005a76:	600b      	streq	r3, [r1, #0]
 8005a78:	6053      	strne	r3, [r2, #4]
 8005a7a:	4630      	mov	r0, r6
 8005a7c:	f002 f82a 	bl	8007ad4 <__malloc_unlock>
 8005a80:	f104 000b 	add.w	r0, r4, #11
 8005a84:	1d23      	adds	r3, r4, #4
 8005a86:	f020 0007 	bic.w	r0, r0, #7
 8005a8a:	1ac2      	subs	r2, r0, r3
 8005a8c:	d0cc      	beq.n	8005a28 <_malloc_r+0x20>
 8005a8e:	1a1b      	subs	r3, r3, r0
 8005a90:	50a3      	str	r3, [r4, r2]
 8005a92:	e7c9      	b.n	8005a28 <_malloc_r+0x20>
 8005a94:	4622      	mov	r2, r4
 8005a96:	6864      	ldr	r4, [r4, #4]
 8005a98:	e7cc      	b.n	8005a34 <_malloc_r+0x2c>
 8005a9a:	1cc4      	adds	r4, r0, #3
 8005a9c:	f024 0403 	bic.w	r4, r4, #3
 8005aa0:	42a0      	cmp	r0, r4
 8005aa2:	d0e3      	beq.n	8005a6c <_malloc_r+0x64>
 8005aa4:	1a21      	subs	r1, r4, r0
 8005aa6:	4630      	mov	r0, r6
 8005aa8:	f000 fdcc 	bl	8006644 <_sbrk_r>
 8005aac:	3001      	adds	r0, #1
 8005aae:	d1dd      	bne.n	8005a6c <_malloc_r+0x64>
 8005ab0:	e7cf      	b.n	8005a52 <_malloc_r+0x4a>
 8005ab2:	bf00      	nop
 8005ab4:	2000178c 	.word	0x2000178c
 8005ab8:	20001790 	.word	0x20001790

08005abc <__sfputc_r>:
 8005abc:	6893      	ldr	r3, [r2, #8]
 8005abe:	3b01      	subs	r3, #1
 8005ac0:	2b00      	cmp	r3, #0
 8005ac2:	b410      	push	{r4}
 8005ac4:	6093      	str	r3, [r2, #8]
 8005ac6:	da08      	bge.n	8005ada <__sfputc_r+0x1e>
 8005ac8:	6994      	ldr	r4, [r2, #24]
 8005aca:	42a3      	cmp	r3, r4
 8005acc:	db01      	blt.n	8005ad2 <__sfputc_r+0x16>
 8005ace:	290a      	cmp	r1, #10
 8005ad0:	d103      	bne.n	8005ada <__sfputc_r+0x1e>
 8005ad2:	f85d 4b04 	ldr.w	r4, [sp], #4
 8005ad6:	f000 be3b 	b.w	8006750 <__swbuf_r>
 8005ada:	6813      	ldr	r3, [r2, #0]
 8005adc:	1c58      	adds	r0, r3, #1
 8005ade:	6010      	str	r0, [r2, #0]
 8005ae0:	7019      	strb	r1, [r3, #0]
 8005ae2:	4608      	mov	r0, r1
 8005ae4:	f85d 4b04 	ldr.w	r4, [sp], #4
 8005ae8:	4770      	bx	lr

08005aea <__sfputs_r>:
 8005aea:	b5f8      	push	{r3, r4, r5, r6, r7, lr}
 8005aec:	4606      	mov	r6, r0
 8005aee:	460f      	mov	r7, r1
 8005af0:	4614      	mov	r4, r2
 8005af2:	18d5      	adds	r5, r2, r3
 8005af4:	42ac      	cmp	r4, r5
 8005af6:	d101      	bne.n	8005afc <__sfputs_r+0x12>
 8005af8:	2000      	movs	r0, #0
 8005afa:	e007      	b.n	8005b0c <__sfputs_r+0x22>
 8005afc:	f814 1b01 	ldrb.w	r1, [r4], #1
 8005b00:	463a      	mov	r2, r7
 8005b02:	4630      	mov	r0, r6
 8005b04:	f7ff ffda 	bl	8005abc <__sfputc_r>
 8005b08:	1c43      	adds	r3, r0, #1
 8005b0a:	d1f3      	bne.n	8005af4 <__sfputs_r+0xa>
 8005b0c:	bdf8      	pop	{r3, r4, r5, r6, r7, pc}
	...

08005b10 <_vfiprintf_r>:
 8005b10:	e92d 4ff0 	stmdb	sp!, {r4, r5, r6, r7, r8, r9, sl, fp, lr}
 8005b14:	460d      	mov	r5, r1
 8005b16:	b09d      	sub	sp, #116	; 0x74
 8005b18:	4614      	mov	r4, r2
 8005b1a:	4698      	mov	r8, r3
 8005b1c:	4606      	mov	r6, r0
 8005b1e:	b118      	cbz	r0, 8005b28 <_vfiprintf_r+0x18>
 8005b20:	6983      	ldr	r3, [r0, #24]
 8005b22:	b90b      	cbnz	r3, 8005b28 <_vfiprintf_r+0x18>
 8005b24:	f001 feca 	bl	80078bc <__sinit>
 8005b28:	4b89      	ldr	r3, [pc, #548]	; (8005d50 <_vfiprintf_r+0x240>)
 8005b2a:	429d      	cmp	r5, r3
 8005b2c:	d11b      	bne.n	8005b66 <_vfiprintf_r+0x56>
 8005b2e:	6875      	ldr	r5, [r6, #4]
 8005b30:	6e6b      	ldr	r3, [r5, #100]	; 0x64
 8005b32:	07d9      	lsls	r1, r3, #31
 8005b34:	d405      	bmi.n	8005b42 <_vfiprintf_r+0x32>
 8005b36:	89ab      	ldrh	r3, [r5, #12]
 8005b38:	059a      	lsls	r2, r3, #22
 8005b3a:	d402      	bmi.n	8005b42 <_vfiprintf_r+0x32>
 8005b3c:	6da8      	ldr	r0, [r5, #88]	; 0x58
 8005b3e:	f7ff fed0 	bl	80058e2 <__retarget_lock_acquire_recursive>
 8005b42:	89ab      	ldrh	r3, [r5, #12]
 8005b44:	071b      	lsls	r3, r3, #28
 8005b46:	d501      	bpl.n	8005b4c <_vfiprintf_r+0x3c>
 8005b48:	692b      	ldr	r3, [r5, #16]
 8005b4a:	b9eb      	cbnz	r3, 8005b88 <_vfiprintf_r+0x78>
 8005b4c:	4629      	mov	r1, r5
 8005b4e:	4630      	mov	r0, r6
 8005b50:	f000 fe50 	bl	80067f4 <__swsetup_r>
 8005b54:	b1c0      	cbz	r0, 8005b88 <_vfiprintf_r+0x78>
 8005b56:	6e6b      	ldr	r3, [r5, #100]	; 0x64
 8005b58:	07dc      	lsls	r4, r3, #31
 8005b5a:	d50e      	bpl.n	8005b7a <_vfiprintf_r+0x6a>
 8005b5c:	f04f 30ff 	mov.w	r0, #4294967295
 8005b60:	b01d      	add	sp, #116	; 0x74
 8005b62:	e8bd 8ff0 	ldmia.w	sp!, {r4, r5, r6, r7, r8, r9, sl, fp, pc}
 8005b66:	4b7b      	ldr	r3, [pc, #492]	; (8005d54 <_vfiprintf_r+0x244>)
 8005b68:	429d      	cmp	r5, r3
 8005b6a:	d101      	bne.n	8005b70 <_vfiprintf_r+0x60>
 8005b6c:	68b5      	ldr	r5, [r6, #8]
 8005b6e:	e7df      	b.n	8005b30 <_vfiprintf_r+0x20>
 8005b70:	4b79      	ldr	r3, [pc, #484]	; (8005d58 <_vfiprintf_r+0x248>)
 8005b72:	429d      	cmp	r5, r3
 8005b74:	bf08      	it	eq
 8005b76:	68f5      	ldreq	r5, [r6, #12]
 8005b78:	e7da      	b.n	8005b30 <_vfiprintf_r+0x20>
 8005b7a:	89ab      	ldrh	r3, [r5, #12]
 8005b7c:	0598      	lsls	r0, r3, #22
 8005b7e:	d4ed      	bmi.n	8005b5c <_vfiprintf_r+0x4c>
 8005b80:	6da8      	ldr	r0, [r5, #88]	; 0x58
 8005b82:	f7ff feb0 	bl	80058e6 <__retarget_lock_release_recursive>
 8005b86:	e7e9      	b.n	8005b5c <_vfiprintf_r+0x4c>
 8005b88:	2300      	movs	r3, #0
 8005b8a:	9309      	str	r3, [sp, #36]	; 0x24
 8005b8c:	2320      	movs	r3, #32
 8005b8e:	f88d 3029 	strb.w	r3, [sp, #41]	; 0x29
 8005b92:	f8cd 800c 	str.w	r8, [sp, #12]
 8005b96:	2330      	movs	r3, #48	; 0x30
 8005b98:	f8df 81c0 	ldr.w	r8, [pc, #448]	; 8005d5c <_vfiprintf_r+0x24c>
 8005b9c:	f88d 302a 	strb.w	r3, [sp, #42]	; 0x2a
 8005ba0:	f04f 0901 	mov.w	r9, #1
 8005ba4:	4623      	mov	r3, r4
 8005ba6:	469a      	mov	sl, r3
 8005ba8:	f813 2b01 	ldrb.w	r2, [r3], #1
 8005bac:	b10a      	cbz	r2, 8005bb2 <_vfiprintf_r+0xa2>
 8005bae:	2a25      	cmp	r2, #37	; 0x25
 8005bb0:	d1f9      	bne.n	8005ba6 <_vfiprintf_r+0x96>
 8005bb2:	ebba 0b04 	subs.w	fp, sl, r4
 8005bb6:	d00b      	beq.n	8005bd0 <_vfiprintf_r+0xc0>
 8005bb8:	465b      	mov	r3, fp
 8005bba:	4622      	mov	r2, r4
 8005bbc:	4629      	mov	r1, r5
 8005bbe:	4630      	mov	r0, r6
 8005bc0:	f7ff ff93 	bl	8005aea <__sfputs_r>
 8005bc4:	3001      	adds	r0, #1
 8005bc6:	f000 80aa 	beq.w	8005d1e <_vfiprintf_r+0x20e>
 8005bca:	9a09      	ldr	r2, [sp, #36]	; 0x24
 8005bcc:	445a      	add	r2, fp
 8005bce:	9209      	str	r2, [sp, #36]	; 0x24
 8005bd0:	f89a 3000 	ldrb.w	r3, [sl]
 8005bd4:	2b00      	cmp	r3, #0
 8005bd6:	f000 80a2 	beq.w	8005d1e <_vfiprintf_r+0x20e>
 8005bda:	2300      	movs	r3, #0
 8005bdc:	f04f 32ff 	mov.w	r2, #4294967295
 8005be0:	e9cd 2305 	strd	r2, r3, [sp, #20]
 8005be4:	f10a 0a01 	add.w	sl, sl, #1
 8005be8:	9304      	str	r3, [sp, #16]
 8005bea:	9307      	str	r3, [sp, #28]
 8005bec:	f88d 3053 	strb.w	r3, [sp, #83]	; 0x53
 8005bf0:	931a      	str	r3, [sp, #104]	; 0x68
 8005bf2:	4654      	mov	r4, sl
 8005bf4:	2205      	movs	r2, #5
 8005bf6:	f814 1b01 	ldrb.w	r1, [r4], #1
 8005bfa:	4858      	ldr	r0, [pc, #352]	; (8005d5c <_vfiprintf_r+0x24c>)
 8005bfc:	f7fa fb00 	bl	8000200 <memchr>
 8005c00:	9a04      	ldr	r2, [sp, #16]
 8005c02:	b9d8      	cbnz	r0, 8005c3c <_vfiprintf_r+0x12c>
 8005c04:	06d1      	lsls	r1, r2, #27
 8005c06:	bf44      	itt	mi
 8005c08:	2320      	movmi	r3, #32
 8005c0a:	f88d 3053 	strbmi.w	r3, [sp, #83]	; 0x53
 8005c0e:	0713      	lsls	r3, r2, #28
 8005c10:	bf44      	itt	mi
 8005c12:	232b      	movmi	r3, #43	; 0x2b
 8005c14:	f88d 3053 	strbmi.w	r3, [sp, #83]	; 0x53
 8005c18:	f89a 3000 	ldrb.w	r3, [sl]
 8005c1c:	2b2a      	cmp	r3, #42	; 0x2a
 8005c1e:	d015      	beq.n	8005c4c <_vfiprintf_r+0x13c>
 8005c20:	9a07      	ldr	r2, [sp, #28]
 8005c22:	4654      	mov	r4, sl
 8005c24:	2000      	movs	r0, #0
 8005c26:	f04f 0c0a 	mov.w	ip, #10
 8005c2a:	4621      	mov	r1, r4
 8005c2c:	f811 3b01 	ldrb.w	r3, [r1], #1
 8005c30:	3b30      	subs	r3, #48	; 0x30
 8005c32:	2b09      	cmp	r3, #9
 8005c34:	d94e      	bls.n	8005cd4 <_vfiprintf_r+0x1c4>
 8005c36:	b1b0      	cbz	r0, 8005c66 <_vfiprintf_r+0x156>
 8005c38:	9207      	str	r2, [sp, #28]
 8005c3a:	e014      	b.n	8005c66 <_vfiprintf_r+0x156>
 8005c3c:	eba0 0308 	sub.w	r3, r0, r8
 8005c40:	fa09 f303 	lsl.w	r3, r9, r3
 8005c44:	4313      	orrs	r3, r2
 8005c46:	9304      	str	r3, [sp, #16]
 8005c48:	46a2      	mov	sl, r4
 8005c4a:	e7d2      	b.n	8005bf2 <_vfiprintf_r+0xe2>
 8005c4c:	9b03      	ldr	r3, [sp, #12]
 8005c4e:	1d19      	adds	r1, r3, #4
 8005c50:	681b      	ldr	r3, [r3, #0]
 8005c52:	9103      	str	r1, [sp, #12]
 8005c54:	2b00      	cmp	r3, #0
 8005c56:	bfbb      	ittet	lt
 8005c58:	425b      	neglt	r3, r3
 8005c5a:	f042 0202 	orrlt.w	r2, r2, #2
 8005c5e:	9307      	strge	r3, [sp, #28]
 8005c60:	9307      	strlt	r3, [sp, #28]
 8005c62:	bfb8      	it	lt
 8005c64:	9204      	strlt	r2, [sp, #16]
 8005c66:	7823      	ldrb	r3, [r4, #0]
 8005c68:	2b2e      	cmp	r3, #46	; 0x2e
 8005c6a:	d10c      	bne.n	8005c86 <_vfiprintf_r+0x176>
 8005c6c:	7863      	ldrb	r3, [r4, #1]
 8005c6e:	2b2a      	cmp	r3, #42	; 0x2a
 8005c70:	d135      	bne.n	8005cde <_vfiprintf_r+0x1ce>
 8005c72:	9b03      	ldr	r3, [sp, #12]
 8005c74:	1d1a      	adds	r2, r3, #4
 8005c76:	681b      	ldr	r3, [r3, #0]
 8005c78:	9203      	str	r2, [sp, #12]
 8005c7a:	2b00      	cmp	r3, #0
 8005c7c:	bfb8      	it	lt
 8005c7e:	f04f 33ff 	movlt.w	r3, #4294967295
 8005c82:	3402      	adds	r4, #2
 8005c84:	9305      	str	r3, [sp, #20]
 8005c86:	f8df a0e4 	ldr.w	sl, [pc, #228]	; 8005d6c <_vfiprintf_r+0x25c>
 8005c8a:	7821      	ldrb	r1, [r4, #0]
 8005c8c:	2203      	movs	r2, #3
 8005c8e:	4650      	mov	r0, sl
 8005c90:	f7fa fab6 	bl	8000200 <memchr>
 8005c94:	b140      	cbz	r0, 8005ca8 <_vfiprintf_r+0x198>
 8005c96:	2340      	movs	r3, #64	; 0x40
 8005c98:	eba0 000a 	sub.w	r0, r0, sl
 8005c9c:	fa03 f000 	lsl.w	r0, r3, r0
 8005ca0:	9b04      	ldr	r3, [sp, #16]
 8005ca2:	4303      	orrs	r3, r0
 8005ca4:	3401      	adds	r4, #1
 8005ca6:	9304      	str	r3, [sp, #16]
 8005ca8:	f814 1b01 	ldrb.w	r1, [r4], #1
 8005cac:	482c      	ldr	r0, [pc, #176]	; (8005d60 <_vfiprintf_r+0x250>)
 8005cae:	f88d 1028 	strb.w	r1, [sp, #40]	; 0x28
 8005cb2:	2206      	movs	r2, #6
 8005cb4:	f7fa faa4 	bl	8000200 <memchr>
 8005cb8:	2800      	cmp	r0, #0
 8005cba:	d03f      	beq.n	8005d3c <_vfiprintf_r+0x22c>
 8005cbc:	4b29      	ldr	r3, [pc, #164]	; (8005d64 <_vfiprintf_r+0x254>)
 8005cbe:	bb1b      	cbnz	r3, 8005d08 <_vfiprintf_r+0x1f8>
 8005cc0:	9b03      	ldr	r3, [sp, #12]
 8005cc2:	3307      	adds	r3, #7
 8005cc4:	f023 0307 	bic.w	r3, r3, #7
 8005cc8:	3308      	adds	r3, #8
 8005cca:	9303      	str	r3, [sp, #12]
 8005ccc:	9b09      	ldr	r3, [sp, #36]	; 0x24
 8005cce:	443b      	add	r3, r7
 8005cd0:	9309      	str	r3, [sp, #36]	; 0x24
 8005cd2:	e767      	b.n	8005ba4 <_vfiprintf_r+0x94>
 8005cd4:	fb0c 3202 	mla	r2, ip, r2, r3
 8005cd8:	460c      	mov	r4, r1
 8005cda:	2001      	movs	r0, #1
 8005cdc:	e7a5      	b.n	8005c2a <_vfiprintf_r+0x11a>
 8005cde:	2300      	movs	r3, #0
 8005ce0:	3401      	adds	r4, #1
 8005ce2:	9305      	str	r3, [sp, #20]
 8005ce4:	4619      	mov	r1, r3
 8005ce6:	f04f 0c0a 	mov.w	ip, #10
 8005cea:	4620      	mov	r0, r4
 8005cec:	f810 2b01 	ldrb.w	r2, [r0], #1
 8005cf0:	3a30      	subs	r2, #48	; 0x30
 8005cf2:	2a09      	cmp	r2, #9
 8005cf4:	d903      	bls.n	8005cfe <_vfiprintf_r+0x1ee>
 8005cf6:	2b00      	cmp	r3, #0
 8005cf8:	d0c5      	beq.n	8005c86 <_vfiprintf_r+0x176>
 8005cfa:	9105      	str	r1, [sp, #20]
 8005cfc:	e7c3      	b.n	8005c86 <_vfiprintf_r+0x176>
 8005cfe:	fb0c 2101 	mla	r1, ip, r1, r2
 8005d02:	4604      	mov	r4, r0
 8005d04:	2301      	movs	r3, #1
 8005d06:	e7f0      	b.n	8005cea <_vfiprintf_r+0x1da>
 8005d08:	ab03      	add	r3, sp, #12
 8005d0a:	9300      	str	r3, [sp, #0]
 8005d0c:	462a      	mov	r2, r5
 8005d0e:	4b16      	ldr	r3, [pc, #88]	; (8005d68 <_vfiprintf_r+0x258>)
 8005d10:	a904      	add	r1, sp, #16
 8005d12:	4630      	mov	r0, r6
 8005d14:	f000 f8cc 	bl	8005eb0 <_printf_float>
 8005d18:	4607      	mov	r7, r0
 8005d1a:	1c78      	adds	r0, r7, #1
 8005d1c:	d1d6      	bne.n	8005ccc <_vfiprintf_r+0x1bc>
 8005d1e:	6e6b      	ldr	r3, [r5, #100]	; 0x64
 8005d20:	07d9      	lsls	r1, r3, #31
 8005d22:	d405      	bmi.n	8005d30 <_vfiprintf_r+0x220>
 8005d24:	89ab      	ldrh	r3, [r5, #12]
 8005d26:	059a      	lsls	r2, r3, #22
 8005d28:	d402      	bmi.n	8005d30 <_vfiprintf_r+0x220>
 8005d2a:	6da8      	ldr	r0, [r5, #88]	; 0x58
 8005d2c:	f7ff fddb 	bl	80058e6 <__retarget_lock_release_recursive>
 8005d30:	89ab      	ldrh	r3, [r5, #12]
 8005d32:	065b      	lsls	r3, r3, #25
 8005d34:	f53f af12 	bmi.w	8005b5c <_vfiprintf_r+0x4c>
 8005d38:	9809      	ldr	r0, [sp, #36]	; 0x24
 8005d3a:	e711      	b.n	8005b60 <_vfiprintf_r+0x50>
 8005d3c:	ab03      	add	r3, sp, #12
 8005d3e:	9300      	str	r3, [sp, #0]
 8005d40:	462a      	mov	r2, r5
 8005d42:	4b09      	ldr	r3, [pc, #36]	; (8005d68 <_vfiprintf_r+0x258>)
 8005d44:	a904      	add	r1, sp, #16
 8005d46:	4630      	mov	r0, r6
 8005d48:	f000 fb56 	bl	80063f8 <_printf_i>
 8005d4c:	e7e4      	b.n	8005d18 <_vfiprintf_r+0x208>
 8005d4e:	bf00      	nop
 8005d50:	0800a4a0 	.word	0x0800a4a0
 8005d54:	0800a4c0 	.word	0x0800a4c0
 8005d58:	0800a480 	.word	0x0800a480
 8005d5c:	0800a3ac 	.word	0x0800a3ac
 8005d60:	0800a3b6 	.word	0x0800a3b6
 8005d64:	08005eb1 	.word	0x08005eb1
 8005d68:	08005aeb 	.word	0x08005aeb
 8005d6c:	0800a3b2 	.word	0x0800a3b2

08005d70 <__cvt>:
 8005d70:	e92d 47ff 	stmdb	sp!, {r0, r1, r2, r3, r4, r5, r6, r7, r8, r9, sl, lr}
 8005d74:	ec55 4b10 	vmov	r4, r5, d0
 8005d78:	2d00      	cmp	r5, #0
 8005d7a:	460e      	mov	r6, r1
 8005d7c:	4619      	mov	r1, r3
 8005d7e:	462b      	mov	r3, r5
 8005d80:	bfbb      	ittet	lt
 8005d82:	f105 4300 	addlt.w	r3, r5, #2147483648	; 0x80000000
 8005d86:	461d      	movlt	r5, r3
 8005d88:	2300      	movge	r3, #0
 8005d8a:	232d      	movlt	r3, #45	; 0x2d
 8005d8c:	700b      	strb	r3, [r1, #0]
 8005d8e:	9b0d      	ldr	r3, [sp, #52]	; 0x34
 8005d90:	f8dd a030 	ldr.w	sl, [sp, #48]	; 0x30
 8005d94:	4691      	mov	r9, r2
 8005d96:	f023 0820 	bic.w	r8, r3, #32
 8005d9a:	bfbc      	itt	lt
 8005d9c:	4622      	movlt	r2, r4
 8005d9e:	4614      	movlt	r4, r2
 8005da0:	f1b8 0f46 	cmp.w	r8, #70	; 0x46
 8005da4:	d005      	beq.n	8005db2 <__cvt+0x42>
 8005da6:	f1b8 0f45 	cmp.w	r8, #69	; 0x45
 8005daa:	d100      	bne.n	8005dae <__cvt+0x3e>
 8005dac:	3601      	adds	r6, #1
 8005dae:	2102      	movs	r1, #2
 8005db0:	e000      	b.n	8005db4 <__cvt+0x44>
 8005db2:	2103      	movs	r1, #3
 8005db4:	ab03      	add	r3, sp, #12
 8005db6:	9301      	str	r3, [sp, #4]
 8005db8:	ab02      	add	r3, sp, #8
 8005dba:	9300      	str	r3, [sp, #0]
 8005dbc:	ec45 4b10 	vmov	d0, r4, r5
 8005dc0:	4653      	mov	r3, sl
 8005dc2:	4632      	mov	r2, r6
 8005dc4:	f000 fe74 	bl	8006ab0 <_dtoa_r>
 8005dc8:	f1b8 0f47 	cmp.w	r8, #71	; 0x47
 8005dcc:	4607      	mov	r7, r0
 8005dce:	d102      	bne.n	8005dd6 <__cvt+0x66>
 8005dd0:	f019 0f01 	tst.w	r9, #1
 8005dd4:	d022      	beq.n	8005e1c <__cvt+0xac>
 8005dd6:	f1b8 0f46 	cmp.w	r8, #70	; 0x46
 8005dda:	eb07 0906 	add.w	r9, r7, r6
 8005dde:	d110      	bne.n	8005e02 <__cvt+0x92>
 8005de0:	783b      	ldrb	r3, [r7, #0]
 8005de2:	2b30      	cmp	r3, #48	; 0x30
 8005de4:	d10a      	bne.n	8005dfc <__cvt+0x8c>
 8005de6:	2200      	movs	r2, #0
 8005de8:	2300      	movs	r3, #0
 8005dea:	4620      	mov	r0, r4
 8005dec:	4629      	mov	r1, r5
 8005dee:	f7fa fe7b 	bl	8000ae8 <__aeabi_dcmpeq>
 8005df2:	b918      	cbnz	r0, 8005dfc <__cvt+0x8c>
 8005df4:	f1c6 0601 	rsb	r6, r6, #1
 8005df8:	f8ca 6000 	str.w	r6, [sl]
 8005dfc:	f8da 3000 	ldr.w	r3, [sl]
 8005e00:	4499      	add	r9, r3
 8005e02:	2200      	movs	r2, #0
 8005e04:	2300      	movs	r3, #0
 8005e06:	4620      	mov	r0, r4
 8005e08:	4629      	mov	r1, r5
 8005e0a:	f7fa fe6d 	bl	8000ae8 <__aeabi_dcmpeq>
 8005e0e:	b108      	cbz	r0, 8005e14 <__cvt+0xa4>
 8005e10:	f8cd 900c 	str.w	r9, [sp, #12]
 8005e14:	2230      	movs	r2, #48	; 0x30
 8005e16:	9b03      	ldr	r3, [sp, #12]
 8005e18:	454b      	cmp	r3, r9
 8005e1a:	d307      	bcc.n	8005e2c <__cvt+0xbc>
 8005e1c:	9b03      	ldr	r3, [sp, #12]
 8005e1e:	9a0e      	ldr	r2, [sp, #56]	; 0x38
 8005e20:	1bdb      	subs	r3, r3, r7
 8005e22:	4638      	mov	r0, r7
 8005e24:	6013      	str	r3, [r2, #0]
 8005e26:	b004      	add	sp, #16
 8005e28:	e8bd 87f0 	ldmia.w	sp!, {r4, r5, r6, r7, r8, r9, sl, pc}
 8005e2c:	1c59      	adds	r1, r3, #1
 8005e2e:	9103      	str	r1, [sp, #12]
 8005e30:	701a      	strb	r2, [r3, #0]
 8005e32:	e7f0      	b.n	8005e16 <__cvt+0xa6>

08005e34 <__exponent>:
 8005e34:	b5f7      	push	{r0, r1, r2, r4, r5, r6, r7, lr}
 8005e36:	4603      	mov	r3, r0
 8005e38:	2900      	cmp	r1, #0
 8005e3a:	bfb8      	it	lt
 8005e3c:	4249      	neglt	r1, r1
 8005e3e:	f803 2b02 	strb.w	r2, [r3], #2
 8005e42:	bfb4      	ite	lt
 8005e44:	222d      	movlt	r2, #45	; 0x2d
 8005e46:	222b      	movge	r2, #43	; 0x2b
 8005e48:	2909      	cmp	r1, #9
 8005e4a:	7042      	strb	r2, [r0, #1]
 8005e4c:	dd2a      	ble.n	8005ea4 <__exponent+0x70>
 8005e4e:	f10d 0407 	add.w	r4, sp, #7
 8005e52:	46a4      	mov	ip, r4
 8005e54:	270a      	movs	r7, #10
 8005e56:	46a6      	mov	lr, r4
 8005e58:	460a      	mov	r2, r1
 8005e5a:	fb91 f6f7 	sdiv	r6, r1, r7
 8005e5e:	fb07 1516 	mls	r5, r7, r6, r1
 8005e62:	3530      	adds	r5, #48	; 0x30
 8005e64:	2a63      	cmp	r2, #99	; 0x63
 8005e66:	f104 34ff 	add.w	r4, r4, #4294967295
 8005e6a:	f80e 5c01 	strb.w	r5, [lr, #-1]
 8005e6e:	4631      	mov	r1, r6
 8005e70:	dcf1      	bgt.n	8005e56 <__exponent+0x22>
 8005e72:	3130      	adds	r1, #48	; 0x30
 8005e74:	f1ae 0502 	sub.w	r5, lr, #2
 8005e78:	f804 1c01 	strb.w	r1, [r4, #-1]
 8005e7c:	1c44      	adds	r4, r0, #1
 8005e7e:	4629      	mov	r1, r5
 8005e80:	4561      	cmp	r1, ip
 8005e82:	d30a      	bcc.n	8005e9a <__exponent+0x66>
 8005e84:	f10d 0209 	add.w	r2, sp, #9
 8005e88:	eba2 020e 	sub.w	r2, r2, lr
 8005e8c:	4565      	cmp	r5, ip
 8005e8e:	bf88      	it	hi
 8005e90:	2200      	movhi	r2, #0
 8005e92:	4413      	add	r3, r2
 8005e94:	1a18      	subs	r0, r3, r0
 8005e96:	b003      	add	sp, #12
 8005e98:	bdf0      	pop	{r4, r5, r6, r7, pc}
 8005e9a:	f811 2b01 	ldrb.w	r2, [r1], #1
 8005e9e:	f804 2f01 	strb.w	r2, [r4, #1]!
 8005ea2:	e7ed      	b.n	8005e80 <__exponent+0x4c>
 8005ea4:	2330      	movs	r3, #48	; 0x30
 8005ea6:	3130      	adds	r1, #48	; 0x30
 8005ea8:	7083      	strb	r3, [r0, #2]
 8005eaa:	70c1      	strb	r1, [r0, #3]
 8005eac:	1d03      	adds	r3, r0, #4
 8005eae:	e7f1      	b.n	8005e94 <__exponent+0x60>

08005eb0 <_printf_float>:
 8005eb0:	e92d 4ff0 	stmdb	sp!, {r4, r5, r6, r7, r8, r9, sl, fp, lr}
 8005eb4:	ed2d 8b02 	vpush	{d8}
 8005eb8:	b08d      	sub	sp, #52	; 0x34
 8005eba:	460c      	mov	r4, r1
 8005ebc:	f8dd 8060 	ldr.w	r8, [sp, #96]	; 0x60
 8005ec0:	4616      	mov	r6, r2
 8005ec2:	461f      	mov	r7, r3
 8005ec4:	4605      	mov	r5, r0
 8005ec6:	f001 fd97 	bl	80079f8 <_localeconv_r>
 8005eca:	f8d0 a000 	ldr.w	sl, [r0]
 8005ece:	4650      	mov	r0, sl
 8005ed0:	f7fa f988 	bl	80001e4 <strlen>
 8005ed4:	2300      	movs	r3, #0
 8005ed6:	930a      	str	r3, [sp, #40]	; 0x28
 8005ed8:	6823      	ldr	r3, [r4, #0]
 8005eda:	9305      	str	r3, [sp, #20]
 8005edc:	f8d8 3000 	ldr.w	r3, [r8]
 8005ee0:	f894 b018 	ldrb.w	fp, [r4, #24]
 8005ee4:	3307      	adds	r3, #7
 8005ee6:	f023 0307 	bic.w	r3, r3, #7
 8005eea:	f103 0208 	add.w	r2, r3, #8
 8005eee:	f8c8 2000 	str.w	r2, [r8]
 8005ef2:	e9d3 2300 	ldrd	r2, r3, [r3]
 8005ef6:	e9c4 2312 	strd	r2, r3, [r4, #72]	; 0x48
 8005efa:	e9d4 8912 	ldrd	r8, r9, [r4, #72]	; 0x48
 8005efe:	f029 4300 	bic.w	r3, r9, #2147483648	; 0x80000000
 8005f02:	9307      	str	r3, [sp, #28]
 8005f04:	f8cd 8018 	str.w	r8, [sp, #24]
 8005f08:	ee08 0a10 	vmov	s16, r0
 8005f0c:	4b9f      	ldr	r3, [pc, #636]	; (800618c <_printf_float+0x2dc>)
 8005f0e:	e9dd 0106 	ldrd	r0, r1, [sp, #24]
 8005f12:	f04f 32ff 	mov.w	r2, #4294967295
 8005f16:	f7fa fe19 	bl	8000b4c <__aeabi_dcmpun>
 8005f1a:	bb88      	cbnz	r0, 8005f80 <_printf_float+0xd0>
 8005f1c:	e9dd 0106 	ldrd	r0, r1, [sp, #24]
 8005f20:	4b9a      	ldr	r3, [pc, #616]	; (800618c <_printf_float+0x2dc>)
 8005f22:	f04f 32ff 	mov.w	r2, #4294967295
 8005f26:	f7fa fdf3 	bl	8000b10 <__aeabi_dcmple>
 8005f2a:	bb48      	cbnz	r0, 8005f80 <_printf_float+0xd0>
 8005f2c:	2200      	movs	r2, #0
 8005f2e:	2300      	movs	r3, #0
 8005f30:	4640      	mov	r0, r8
 8005f32:	4649      	mov	r1, r9
 8005f34:	f7fa fde2 	bl	8000afc <__aeabi_dcmplt>
 8005f38:	b110      	cbz	r0, 8005f40 <_printf_float+0x90>
 8005f3a:	232d      	movs	r3, #45	; 0x2d
 8005f3c:	f884 3043 	strb.w	r3, [r4, #67]	; 0x43
 8005f40:	4b93      	ldr	r3, [pc, #588]	; (8006190 <_printf_float+0x2e0>)
 8005f42:	4894      	ldr	r0, [pc, #592]	; (8006194 <_printf_float+0x2e4>)
 8005f44:	f1bb 0f47 	cmp.w	fp, #71	; 0x47
 8005f48:	bf94      	ite	ls
 8005f4a:	4698      	movls	r8, r3
 8005f4c:	4680      	movhi	r8, r0
 8005f4e:	2303      	movs	r3, #3
 8005f50:	6123      	str	r3, [r4, #16]
 8005f52:	9b05      	ldr	r3, [sp, #20]
 8005f54:	f023 0204 	bic.w	r2, r3, #4
 8005f58:	6022      	str	r2, [r4, #0]
 8005f5a:	f04f 0900 	mov.w	r9, #0
 8005f5e:	9700      	str	r7, [sp, #0]
 8005f60:	4633      	mov	r3, r6
 8005f62:	aa0b      	add	r2, sp, #44	; 0x2c
 8005f64:	4621      	mov	r1, r4
 8005f66:	4628      	mov	r0, r5
 8005f68:	f000 f9d8 	bl	800631c <_printf_common>
 8005f6c:	3001      	adds	r0, #1
 8005f6e:	f040 8090 	bne.w	8006092 <_printf_float+0x1e2>
 8005f72:	f04f 30ff 	mov.w	r0, #4294967295
 8005f76:	b00d      	add	sp, #52	; 0x34
 8005f78:	ecbd 8b02 	vpop	{d8}
 8005f7c:	e8bd 8ff0 	ldmia.w	sp!, {r4, r5, r6, r7, r8, r9, sl, fp, pc}
 8005f80:	4642      	mov	r2, r8
 8005f82:	464b      	mov	r3, r9
 8005f84:	4640      	mov	r0, r8
 8005f86:	4649      	mov	r1, r9
 8005f88:	f7fa fde0 	bl	8000b4c <__aeabi_dcmpun>
 8005f8c:	b140      	cbz	r0, 8005fa0 <_printf_float+0xf0>
 8005f8e:	464b      	mov	r3, r9
 8005f90:	2b00      	cmp	r3, #0
 8005f92:	bfbc      	itt	lt
 8005f94:	232d      	movlt	r3, #45	; 0x2d
 8005f96:	f884 3043 	strblt.w	r3, [r4, #67]	; 0x43
 8005f9a:	487f      	ldr	r0, [pc, #508]	; (8006198 <_printf_float+0x2e8>)
 8005f9c:	4b7f      	ldr	r3, [pc, #508]	; (800619c <_printf_float+0x2ec>)
 8005f9e:	e7d1      	b.n	8005f44 <_printf_float+0x94>
 8005fa0:	6863      	ldr	r3, [r4, #4]
 8005fa2:	f00b 02df 	and.w	r2, fp, #223	; 0xdf
 8005fa6:	9206      	str	r2, [sp, #24]
 8005fa8:	1c5a      	adds	r2, r3, #1
 8005faa:	d13f      	bne.n	800602c <_printf_float+0x17c>
 8005fac:	2306      	movs	r3, #6
 8005fae:	6063      	str	r3, [r4, #4]
 8005fb0:	9b05      	ldr	r3, [sp, #20]
 8005fb2:	6861      	ldr	r1, [r4, #4]
 8005fb4:	f443 6280 	orr.w	r2, r3, #1024	; 0x400
 8005fb8:	2300      	movs	r3, #0
 8005fba:	9303      	str	r3, [sp, #12]
 8005fbc:	ab0a      	add	r3, sp, #40	; 0x28
 8005fbe:	e9cd b301 	strd	fp, r3, [sp, #4]
 8005fc2:	ab09      	add	r3, sp, #36	; 0x24
 8005fc4:	ec49 8b10 	vmov	d0, r8, r9
 8005fc8:	9300      	str	r3, [sp, #0]
 8005fca:	6022      	str	r2, [r4, #0]
 8005fcc:	f10d 0323 	add.w	r3, sp, #35	; 0x23
 8005fd0:	4628      	mov	r0, r5
 8005fd2:	f7ff fecd 	bl	8005d70 <__cvt>
 8005fd6:	9b06      	ldr	r3, [sp, #24]
 8005fd8:	9909      	ldr	r1, [sp, #36]	; 0x24
 8005fda:	2b47      	cmp	r3, #71	; 0x47
 8005fdc:	4680      	mov	r8, r0
 8005fde:	d108      	bne.n	8005ff2 <_printf_float+0x142>
 8005fe0:	1cc8      	adds	r0, r1, #3
 8005fe2:	db02      	blt.n	8005fea <_printf_float+0x13a>
 8005fe4:	6863      	ldr	r3, [r4, #4]
 8005fe6:	4299      	cmp	r1, r3
 8005fe8:	dd41      	ble.n	800606e <_printf_float+0x1be>
 8005fea:	f1ab 0b02 	sub.w	fp, fp, #2
 8005fee:	fa5f fb8b 	uxtb.w	fp, fp
 8005ff2:	f1bb 0f65 	cmp.w	fp, #101	; 0x65
 8005ff6:	d820      	bhi.n	800603a <_printf_float+0x18a>
 8005ff8:	3901      	subs	r1, #1
 8005ffa:	465a      	mov	r2, fp
 8005ffc:	f104 0050 	add.w	r0, r4, #80	; 0x50
 8006000:	9109      	str	r1, [sp, #36]	; 0x24
 8006002:	f7ff ff17 	bl	8005e34 <__exponent>
 8006006:	9a0a      	ldr	r2, [sp, #40]	; 0x28
 8006008:	1813      	adds	r3, r2, r0
 800600a:	2a01      	cmp	r2, #1
 800600c:	4681      	mov	r9, r0
 800600e:	6123      	str	r3, [r4, #16]
 8006010:	dc02      	bgt.n	8006018 <_printf_float+0x168>
 8006012:	6822      	ldr	r2, [r4, #0]
 8006014:	07d2      	lsls	r2, r2, #31
 8006016:	d501      	bpl.n	800601c <_printf_float+0x16c>
 8006018:	3301      	adds	r3, #1
 800601a:	6123      	str	r3, [r4, #16]
 800601c:	f89d 3023 	ldrb.w	r3, [sp, #35]	; 0x23
 8006020:	2b00      	cmp	r3, #0
 8006022:	d09c      	beq.n	8005f5e <_printf_float+0xae>
 8006024:	232d      	movs	r3, #45	; 0x2d
 8006026:	f884 3043 	strb.w	r3, [r4, #67]	; 0x43
 800602a:	e798      	b.n	8005f5e <_printf_float+0xae>
 800602c:	9a06      	ldr	r2, [sp, #24]
 800602e:	2a47      	cmp	r2, #71	; 0x47
 8006030:	d1be      	bne.n	8005fb0 <_printf_float+0x100>
 8006032:	2b00      	cmp	r3, #0
 8006034:	d1bc      	bne.n	8005fb0 <_printf_float+0x100>
 8006036:	2301      	movs	r3, #1
 8006038:	e7b9      	b.n	8005fae <_printf_float+0xfe>
 800603a:	f1bb 0f66 	cmp.w	fp, #102	; 0x66
 800603e:	d118      	bne.n	8006072 <_printf_float+0x1c2>
 8006040:	2900      	cmp	r1, #0
 8006042:	6863      	ldr	r3, [r4, #4]
 8006044:	dd0b      	ble.n	800605e <_printf_float+0x1ae>
 8006046:	6121      	str	r1, [r4, #16]
 8006048:	b913      	cbnz	r3, 8006050 <_printf_float+0x1a0>
 800604a:	6822      	ldr	r2, [r4, #0]
 800604c:	07d0      	lsls	r0, r2, #31
 800604e:	d502      	bpl.n	8006056 <_printf_float+0x1a6>
 8006050:	3301      	adds	r3, #1
 8006052:	440b      	add	r3, r1
 8006054:	6123      	str	r3, [r4, #16]
 8006056:	65a1      	str	r1, [r4, #88]	; 0x58
 8006058:	f04f 0900 	mov.w	r9, #0
 800605c:	e7de      	b.n	800601c <_printf_float+0x16c>
 800605e:	b913      	cbnz	r3, 8006066 <_printf_float+0x1b6>
 8006060:	6822      	ldr	r2, [r4, #0]
 8006062:	07d2      	lsls	r2, r2, #31
 8006064:	d501      	bpl.n	800606a <_printf_float+0x1ba>
 8006066:	3302      	adds	r3, #2
 8006068:	e7f4      	b.n	8006054 <_printf_float+0x1a4>
 800606a:	2301      	movs	r3, #1
 800606c:	e7f2      	b.n	8006054 <_printf_float+0x1a4>
 800606e:	f04f 0b67 	mov.w	fp, #103	; 0x67
 8006072:	9b0a      	ldr	r3, [sp, #40]	; 0x28
 8006074:	4299      	cmp	r1, r3
 8006076:	db05      	blt.n	8006084 <_printf_float+0x1d4>
 8006078:	6823      	ldr	r3, [r4, #0]
 800607a:	6121      	str	r1, [r4, #16]
 800607c:	07d8      	lsls	r0, r3, #31
 800607e:	d5ea      	bpl.n	8006056 <_printf_float+0x1a6>
 8006080:	1c4b      	adds	r3, r1, #1
 8006082:	e7e7      	b.n	8006054 <_printf_float+0x1a4>
 8006084:	2900      	cmp	r1, #0
 8006086:	bfd4      	ite	le
 8006088:	f1c1 0202 	rsble	r2, r1, #2
 800608c:	2201      	movgt	r2, #1
 800608e:	4413      	add	r3, r2
 8006090:	e7e0      	b.n	8006054 <_printf_float+0x1a4>
 8006092:	6823      	ldr	r3, [r4, #0]
 8006094:	055a      	lsls	r2, r3, #21
 8006096:	d407      	bmi.n	80060a8 <_printf_float+0x1f8>
 8006098:	6923      	ldr	r3, [r4, #16]
 800609a:	4642      	mov	r2, r8
 800609c:	4631      	mov	r1, r6
 800609e:	4628      	mov	r0, r5
 80060a0:	47b8      	blx	r7
 80060a2:	3001      	adds	r0, #1
 80060a4:	d12c      	bne.n	8006100 <_printf_float+0x250>
 80060a6:	e764      	b.n	8005f72 <_printf_float+0xc2>
 80060a8:	f1bb 0f65 	cmp.w	fp, #101	; 0x65
 80060ac:	f240 80e0 	bls.w	8006270 <_printf_float+0x3c0>
 80060b0:	e9d4 0112 	ldrd	r0, r1, [r4, #72]	; 0x48
 80060b4:	2200      	movs	r2, #0
 80060b6:	2300      	movs	r3, #0
 80060b8:	f7fa fd16 	bl	8000ae8 <__aeabi_dcmpeq>
 80060bc:	2800      	cmp	r0, #0
 80060be:	d034      	beq.n	800612a <_printf_float+0x27a>
 80060c0:	4a37      	ldr	r2, [pc, #220]	; (80061a0 <_printf_float+0x2f0>)
 80060c2:	2301      	movs	r3, #1
 80060c4:	4631      	mov	r1, r6
 80060c6:	4628      	mov	r0, r5
 80060c8:	47b8      	blx	r7
 80060ca:	3001      	adds	r0, #1
 80060cc:	f43f af51 	beq.w	8005f72 <_printf_float+0xc2>
 80060d0:	e9dd 2309 	ldrd	r2, r3, [sp, #36]	; 0x24
 80060d4:	429a      	cmp	r2, r3
 80060d6:	db02      	blt.n	80060de <_printf_float+0x22e>
 80060d8:	6823      	ldr	r3, [r4, #0]
 80060da:	07d8      	lsls	r0, r3, #31
 80060dc:	d510      	bpl.n	8006100 <_printf_float+0x250>
 80060de:	ee18 3a10 	vmov	r3, s16
 80060e2:	4652      	mov	r2, sl
 80060e4:	4631      	mov	r1, r6
 80060e6:	4628      	mov	r0, r5
 80060e8:	47b8      	blx	r7
 80060ea:	3001      	adds	r0, #1
 80060ec:	f43f af41 	beq.w	8005f72 <_printf_float+0xc2>
 80060f0:	f04f 0800 	mov.w	r8, #0
 80060f4:	f104 091a 	add.w	r9, r4, #26
 80060f8:	9b0a      	ldr	r3, [sp, #40]	; 0x28
 80060fa:	3b01      	subs	r3, #1
 80060fc:	4543      	cmp	r3, r8
 80060fe:	dc09      	bgt.n	8006114 <_printf_float+0x264>
 8006100:	6823      	ldr	r3, [r4, #0]
 8006102:	079b      	lsls	r3, r3, #30
 8006104:	f100 8105 	bmi.w	8006312 <_printf_float+0x462>
 8006108:	68e0      	ldr	r0, [r4, #12]
 800610a:	9b0b      	ldr	r3, [sp, #44]	; 0x2c
 800610c:	4298      	cmp	r0, r3
 800610e:	bfb8      	it	lt
 8006110:	4618      	movlt	r0, r3
 8006112:	e730      	b.n	8005f76 <_printf_float+0xc6>
 8006114:	2301      	movs	r3, #1
 8006116:	464a      	mov	r2, r9
 8006118:	4631      	mov	r1, r6
 800611a:	4628      	mov	r0, r5
 800611c:	47b8      	blx	r7
 800611e:	3001      	adds	r0, #1
 8006120:	f43f af27 	beq.w	8005f72 <_printf_float+0xc2>
 8006124:	f108 0801 	add.w	r8, r8, #1
 8006128:	e7e6      	b.n	80060f8 <_printf_float+0x248>
 800612a:	9b09      	ldr	r3, [sp, #36]	; 0x24
 800612c:	2b00      	cmp	r3, #0
 800612e:	dc39      	bgt.n	80061a4 <_printf_float+0x2f4>
 8006130:	4a1b      	ldr	r2, [pc, #108]	; (80061a0 <_printf_float+0x2f0>)
 8006132:	2301      	movs	r3, #1
 8006134:	4631      	mov	r1, r6
 8006136:	4628      	mov	r0, r5
 8006138:	47b8      	blx	r7
 800613a:	3001      	adds	r0, #1
 800613c:	f43f af19 	beq.w	8005f72 <_printf_float+0xc2>
 8006140:	e9dd 2309 	ldrd	r2, r3, [sp, #36]	; 0x24
 8006144:	4313      	orrs	r3, r2
 8006146:	d102      	bne.n	800614e <_printf_float+0x29e>
 8006148:	6823      	ldr	r3, [r4, #0]
 800614a:	07d9      	lsls	r1, r3, #31
 800614c:	d5d8      	bpl.n	8006100 <_printf_float+0x250>
 800614e:	ee18 3a10 	vmov	r3, s16
 8006152:	4652      	mov	r2, sl
 8006154:	4631      	mov	r1, r6
 8006156:	4628      	mov	r0, r5
 8006158:	47b8      	blx	r7
 800615a:	3001      	adds	r0, #1
 800615c:	f43f af09 	beq.w	8005f72 <_printf_float+0xc2>
 8006160:	f04f 0900 	mov.w	r9, #0
 8006164:	f104 0a1a 	add.w	sl, r4, #26
 8006168:	9b09      	ldr	r3, [sp, #36]	; 0x24
 800616a:	425b      	negs	r3, r3
 800616c:	454b      	cmp	r3, r9
 800616e:	dc01      	bgt.n	8006174 <_printf_float+0x2c4>
 8006170:	9b0a      	ldr	r3, [sp, #40]	; 0x28
 8006172:	e792      	b.n	800609a <_printf_float+0x1ea>
 8006174:	2301      	movs	r3, #1
 8006176:	4652      	mov	r2, sl
 8006178:	4631      	mov	r1, r6
 800617a:	4628      	mov	r0, r5
 800617c:	47b8      	blx	r7
 800617e:	3001      	adds	r0, #1
 8006180:	f43f aef7 	beq.w	8005f72 <_printf_float+0xc2>
 8006184:	f109 0901 	add.w	r9, r9, #1
 8006188:	e7ee      	b.n	8006168 <_printf_float+0x2b8>
 800618a:	bf00      	nop
 800618c:	7fefffff 	.word	0x7fefffff
 8006190:	0800a3bd 	.word	0x0800a3bd
 8006194:	0800a3c1 	.word	0x0800a3c1
 8006198:	0800a3c9 	.word	0x0800a3c9
 800619c:	0800a3c5 	.word	0x0800a3c5
 80061a0:	08009205 	.word	0x08009205
 80061a4:	9a0a      	ldr	r2, [sp, #40]	; 0x28
 80061a6:	6da3      	ldr	r3, [r4, #88]	; 0x58
 80061a8:	429a      	cmp	r2, r3
 80061aa:	bfa8      	it	ge
 80061ac:	461a      	movge	r2, r3
 80061ae:	2a00      	cmp	r2, #0
 80061b0:	4691      	mov	r9, r2
 80061b2:	dc37      	bgt.n	8006224 <_printf_float+0x374>
 80061b4:	f04f 0b00 	mov.w	fp, #0
 80061b8:	ea29 79e9 	bic.w	r9, r9, r9, asr #31
 80061bc:	f104 021a 	add.w	r2, r4, #26
 80061c0:	6da3      	ldr	r3, [r4, #88]	; 0x58
 80061c2:	9305      	str	r3, [sp, #20]
 80061c4:	eba3 0309 	sub.w	r3, r3, r9
 80061c8:	455b      	cmp	r3, fp
 80061ca:	dc33      	bgt.n	8006234 <_printf_float+0x384>
 80061cc:	e9dd 2309 	ldrd	r2, r3, [sp, #36]	; 0x24
 80061d0:	429a      	cmp	r2, r3
 80061d2:	db3b      	blt.n	800624c <_printf_float+0x39c>
 80061d4:	6823      	ldr	r3, [r4, #0]
 80061d6:	07da      	lsls	r2, r3, #31
 80061d8:	d438      	bmi.n	800624c <_printf_float+0x39c>
 80061da:	9a0a      	ldr	r2, [sp, #40]	; 0x28
 80061dc:	9b05      	ldr	r3, [sp, #20]
 80061de:	9909      	ldr	r1, [sp, #36]	; 0x24
 80061e0:	1ad3      	subs	r3, r2, r3
 80061e2:	eba2 0901 	sub.w	r9, r2, r1
 80061e6:	4599      	cmp	r9, r3
 80061e8:	bfa8      	it	ge
 80061ea:	4699      	movge	r9, r3
 80061ec:	f1b9 0f00 	cmp.w	r9, #0
 80061f0:	dc35      	bgt.n	800625e <_printf_float+0x3ae>
 80061f2:	f04f 0800 	mov.w	r8, #0
 80061f6:	ea29 79e9 	bic.w	r9, r9, r9, asr #31
 80061fa:	f104 0a1a 	add.w	sl, r4, #26
 80061fe:	e9dd 2309 	ldrd	r2, r3, [sp, #36]	; 0x24
 8006202:	1a9b      	subs	r3, r3, r2
 8006204:	eba3 0309 	sub.w	r3, r3, r9
 8006208:	4543      	cmp	r3, r8
 800620a:	f77f af79 	ble.w	8006100 <_printf_float+0x250>
 800620e:	2301      	movs	r3, #1
 8006210:	4652      	mov	r2, sl
 8006212:	4631      	mov	r1, r6
 8006214:	4628      	mov	r0, r5
 8006216:	47b8      	blx	r7
 8006218:	3001      	adds	r0, #1
 800621a:	f43f aeaa 	beq.w	8005f72 <_printf_float+0xc2>
 800621e:	f108 0801 	add.w	r8, r8, #1
 8006222:	e7ec      	b.n	80061fe <_printf_float+0x34e>
 8006224:	4613      	mov	r3, r2
 8006226:	4631      	mov	r1, r6
 8006228:	4642      	mov	r2, r8
 800622a:	4628      	mov	r0, r5
 800622c:	47b8      	blx	r7
 800622e:	3001      	adds	r0, #1
 8006230:	d1c0      	bne.n	80061b4 <_printf_float+0x304>
 8006232:	e69e      	b.n	8005f72 <_printf_float+0xc2>
 8006234:	2301      	movs	r3, #1
 8006236:	4631      	mov	r1, r6
 8006238:	4628      	mov	r0, r5
 800623a:	9205      	str	r2, [sp, #20]
 800623c:	47b8      	blx	r7
 800623e:	3001      	adds	r0, #1
 8006240:	f43f ae97 	beq.w	8005f72 <_printf_float+0xc2>
 8006244:	9a05      	ldr	r2, [sp, #20]
 8006246:	f10b 0b01 	add.w	fp, fp, #1
 800624a:	e7b9      	b.n	80061c0 <_printf_float+0x310>
 800624c:	ee18 3a10 	vmov	r3, s16
 8006250:	4652      	mov	r2, sl
 8006252:	4631      	mov	r1, r6
 8006254:	4628      	mov	r0, r5
 8006256:	47b8      	blx	r7
 8006258:	3001      	adds	r0, #1
 800625a:	d1be      	bne.n	80061da <_printf_float+0x32a>
 800625c:	e689      	b.n	8005f72 <_printf_float+0xc2>
 800625e:	9a05      	ldr	r2, [sp, #20]
 8006260:	464b      	mov	r3, r9
 8006262:	4442      	add	r2, r8
 8006264:	4631      	mov	r1, r6
 8006266:	4628      	mov	r0, r5
 8006268:	47b8      	blx	r7
 800626a:	3001      	adds	r0, #1
 800626c:	d1c1      	bne.n	80061f2 <_printf_float+0x342>
 800626e:	e680      	b.n	8005f72 <_printf_float+0xc2>
 8006270:	9a0a      	ldr	r2, [sp, #40]	; 0x28
 8006272:	2a01      	cmp	r2, #1
 8006274:	dc01      	bgt.n	800627a <_printf_float+0x3ca>
 8006276:	07db      	lsls	r3, r3, #31
 8006278:	d538      	bpl.n	80062ec <_printf_float+0x43c>
 800627a:	2301      	movs	r3, #1
 800627c:	4642      	mov	r2, r8
 800627e:	4631      	mov	r1, r6
 8006280:	4628      	mov	r0, r5
 8006282:	47b8      	blx	r7
 8006284:	3001      	adds	r0, #1
 8006286:	f43f ae74 	beq.w	8005f72 <_printf_float+0xc2>
 800628a:	ee18 3a10 	vmov	r3, s16
 800628e:	4652      	mov	r2, sl
 8006290:	4631      	mov	r1, r6
 8006292:	4628      	mov	r0, r5
 8006294:	47b8      	blx	r7
 8006296:	3001      	adds	r0, #1
 8006298:	f43f ae6b 	beq.w	8005f72 <_printf_float+0xc2>
 800629c:	e9d4 0112 	ldrd	r0, r1, [r4, #72]	; 0x48
 80062a0:	2200      	movs	r2, #0
 80062a2:	2300      	movs	r3, #0
 80062a4:	f7fa fc20 	bl	8000ae8 <__aeabi_dcmpeq>
 80062a8:	b9d8      	cbnz	r0, 80062e2 <_printf_float+0x432>
 80062aa:	9b0a      	ldr	r3, [sp, #40]	; 0x28
 80062ac:	f108 0201 	add.w	r2, r8, #1
 80062b0:	3b01      	subs	r3, #1
 80062b2:	4631      	mov	r1, r6
 80062b4:	4628      	mov	r0, r5
 80062b6:	47b8      	blx	r7
 80062b8:	3001      	adds	r0, #1
 80062ba:	d10e      	bne.n	80062da <_printf_float+0x42a>
 80062bc:	e659      	b.n	8005f72 <_printf_float+0xc2>
 80062be:	2301      	movs	r3, #1
 80062c0:	4652      	mov	r2, sl
 80062c2:	4631      	mov	r1, r6
 80062c4:	4628      	mov	r0, r5
 80062c6:	47b8      	blx	r7
 80062c8:	3001      	adds	r0, #1
 80062ca:	f43f ae52 	beq.w	8005f72 <_printf_float+0xc2>
 80062ce:	f108 0801 	add.w	r8, r8, #1
 80062d2:	9b0a      	ldr	r3, [sp, #40]	; 0x28
 80062d4:	3b01      	subs	r3, #1
 80062d6:	4543      	cmp	r3, r8
 80062d8:	dcf1      	bgt.n	80062be <_printf_float+0x40e>
 80062da:	464b      	mov	r3, r9
 80062dc:	f104 0250 	add.w	r2, r4, #80	; 0x50
 80062e0:	e6dc      	b.n	800609c <_printf_float+0x1ec>
 80062e2:	f04f 0800 	mov.w	r8, #0
 80062e6:	f104 0a1a 	add.w	sl, r4, #26
 80062ea:	e7f2      	b.n	80062d2 <_printf_float+0x422>
 80062ec:	2301      	movs	r3, #1
 80062ee:	4642      	mov	r2, r8
 80062f0:	e7df      	b.n	80062b2 <_printf_float+0x402>
 80062f2:	2301      	movs	r3, #1
 80062f4:	464a      	mov	r2, r9
 80062f6:	4631      	mov	r1, r6
 80062f8:	4628      	mov	r0, r5
 80062fa:	47b8      	blx	r7
 80062fc:	3001      	adds	r0, #1
 80062fe:	f43f ae38 	beq.w	8005f72 <_printf_float+0xc2>
 8006302:	f108 0801 	add.w	r8, r8, #1
 8006306:	68e3      	ldr	r3, [r4, #12]
 8006308:	990b      	ldr	r1, [sp, #44]	; 0x2c
 800630a:	1a5b      	subs	r3, r3, r1
 800630c:	4543      	cmp	r3, r8
 800630e:	dcf0      	bgt.n	80062f2 <_printf_float+0x442>
 8006310:	e6fa      	b.n	8006108 <_printf_float+0x258>
 8006312:	f04f 0800 	mov.w	r8, #0
 8006316:	f104 0919 	add.w	r9, r4, #25
 800631a:	e7f4      	b.n	8006306 <_printf_float+0x456>

0800631c <_printf_common>:
 800631c:	e92d 47f0 	stmdb	sp!, {r4, r5, r6, r7, r8, r9, sl, lr}
 8006320:	4616      	mov	r6, r2
 8006322:	4699      	mov	r9, r3
 8006324:	688a      	ldr	r2, [r1, #8]
 8006326:	690b      	ldr	r3, [r1, #16]
 8006328:	f8dd 8020 	ldr.w	r8, [sp, #32]
 800632c:	4293      	cmp	r3, r2
 800632e:	bfb8      	it	lt
 8006330:	4613      	movlt	r3, r2
 8006332:	6033      	str	r3, [r6, #0]
 8006334:	f891 2043 	ldrb.w	r2, [r1, #67]	; 0x43
 8006338:	4607      	mov	r7, r0
 800633a:	460c      	mov	r4, r1
 800633c:	b10a      	cbz	r2, 8006342 <_printf_common+0x26>
 800633e:	3301      	adds	r3, #1
 8006340:	6033      	str	r3, [r6, #0]
 8006342:	6823      	ldr	r3, [r4, #0]
 8006344:	0699      	lsls	r1, r3, #26
 8006346:	bf42      	ittt	mi
 8006348:	6833      	ldrmi	r3, [r6, #0]
 800634a:	3302      	addmi	r3, #2
 800634c:	6033      	strmi	r3, [r6, #0]
 800634e:	6825      	ldr	r5, [r4, #0]
 8006350:	f015 0506 	ands.w	r5, r5, #6
 8006354:	d106      	bne.n	8006364 <_printf_common+0x48>
 8006356:	f104 0a19 	add.w	sl, r4, #25
 800635a:	68e3      	ldr	r3, [r4, #12]
 800635c:	6832      	ldr	r2, [r6, #0]
 800635e:	1a9b      	subs	r3, r3, r2
 8006360:	42ab      	cmp	r3, r5
 8006362:	dc26      	bgt.n	80063b2 <_printf_common+0x96>
 8006364:	f894 2043 	ldrb.w	r2, [r4, #67]	; 0x43
 8006368:	1e13      	subs	r3, r2, #0
 800636a:	6822      	ldr	r2, [r4, #0]
 800636c:	bf18      	it	ne
 800636e:	2301      	movne	r3, #1
 8006370:	0692      	lsls	r2, r2, #26
 8006372:	d42b      	bmi.n	80063cc <_printf_common+0xb0>
 8006374:	f104 0243 	add.w	r2, r4, #67	; 0x43
 8006378:	4649      	mov	r1, r9
 800637a:	4638      	mov	r0, r7
 800637c:	47c0      	blx	r8
 800637e:	3001      	adds	r0, #1
 8006380:	d01e      	beq.n	80063c0 <_printf_common+0xa4>
 8006382:	6823      	ldr	r3, [r4, #0]
 8006384:	68e5      	ldr	r5, [r4, #12]
 8006386:	6832      	ldr	r2, [r6, #0]
 8006388:	f003 0306 	and.w	r3, r3, #6
 800638c:	2b04      	cmp	r3, #4
 800638e:	bf08      	it	eq
 8006390:	1aad      	subeq	r5, r5, r2
 8006392:	68a3      	ldr	r3, [r4, #8]
 8006394:	6922      	ldr	r2, [r4, #16]
 8006396:	bf0c      	ite	eq
 8006398:	ea25 75e5 	biceq.w	r5, r5, r5, asr #31
 800639c:	2500      	movne	r5, #0
 800639e:	4293      	cmp	r3, r2
 80063a0:	bfc4      	itt	gt
 80063a2:	1a9b      	subgt	r3, r3, r2
 80063a4:	18ed      	addgt	r5, r5, r3
 80063a6:	2600      	movs	r6, #0
 80063a8:	341a      	adds	r4, #26
 80063aa:	42b5      	cmp	r5, r6
 80063ac:	d11a      	bne.n	80063e4 <_printf_common+0xc8>
 80063ae:	2000      	movs	r0, #0
 80063b0:	e008      	b.n	80063c4 <_printf_common+0xa8>
 80063b2:	2301      	movs	r3, #1
 80063b4:	4652      	mov	r2, sl
 80063b6:	4649      	mov	r1, r9
 80063b8:	4638      	mov	r0, r7
 80063ba:	47c0      	blx	r8
 80063bc:	3001      	adds	r0, #1
 80063be:	d103      	bne.n	80063c8 <_printf_common+0xac>
 80063c0:	f04f 30ff 	mov.w	r0, #4294967295
 80063c4:	e8bd 87f0 	ldmia.w	sp!, {r4, r5, r6, r7, r8, r9, sl, pc}
 80063c8:	3501      	adds	r5, #1
 80063ca:	e7c6      	b.n	800635a <_printf_common+0x3e>
 80063cc:	18e1      	adds	r1, r4, r3
 80063ce:	1c5a      	adds	r2, r3, #1
 80063d0:	2030      	movs	r0, #48	; 0x30
 80063d2:	f881 0043 	strb.w	r0, [r1, #67]	; 0x43
 80063d6:	4422      	add	r2, r4
 80063d8:	f894 1045 	ldrb.w	r1, [r4, #69]	; 0x45
 80063dc:	f882 1043 	strb.w	r1, [r2, #67]	; 0x43
 80063e0:	3302      	adds	r3, #2
 80063e2:	e7c7      	b.n	8006374 <_printf_common+0x58>
 80063e4:	2301      	movs	r3, #1
 80063e6:	4622      	mov	r2, r4
 80063e8:	4649      	mov	r1, r9
 80063ea:	4638      	mov	r0, r7
 80063ec:	47c0      	blx	r8
 80063ee:	3001      	adds	r0, #1
 80063f0:	d0e6      	beq.n	80063c0 <_printf_common+0xa4>
 80063f2:	3601      	adds	r6, #1
 80063f4:	e7d9      	b.n	80063aa <_printf_common+0x8e>
	...

080063f8 <_printf_i>:
 80063f8:	e92d 47ff 	stmdb	sp!, {r0, r1, r2, r3, r4, r5, r6, r7, r8, r9, sl, lr}
 80063fc:	460c      	mov	r4, r1
 80063fe:	4691      	mov	r9, r2
 8006400:	7e27      	ldrb	r7, [r4, #24]
 8006402:	990c      	ldr	r1, [sp, #48]	; 0x30
 8006404:	2f78      	cmp	r7, #120	; 0x78
 8006406:	4680      	mov	r8, r0
 8006408:	469a      	mov	sl, r3
 800640a:	f104 0243 	add.w	r2, r4, #67	; 0x43
 800640e:	d807      	bhi.n	8006420 <_printf_i+0x28>
 8006410:	2f62      	cmp	r7, #98	; 0x62
 8006412:	d80a      	bhi.n	800642a <_printf_i+0x32>
 8006414:	2f00      	cmp	r7, #0
 8006416:	f000 80d8 	beq.w	80065ca <_printf_i+0x1d2>
 800641a:	2f58      	cmp	r7, #88	; 0x58
 800641c:	f000 80a3 	beq.w	8006566 <_printf_i+0x16e>
 8006420:	f104 0642 	add.w	r6, r4, #66	; 0x42
 8006424:	f884 7042 	strb.w	r7, [r4, #66]	; 0x42
 8006428:	e03a      	b.n	80064a0 <_printf_i+0xa8>
 800642a:	f1a7 0363 	sub.w	r3, r7, #99	; 0x63
 800642e:	2b15      	cmp	r3, #21
 8006430:	d8f6      	bhi.n	8006420 <_printf_i+0x28>
 8006432:	a001      	add	r0, pc, #4	; (adr r0, 8006438 <_printf_i+0x40>)
 8006434:	f850 f023 	ldr.w	pc, [r0, r3, lsl #2]
 8006438:	08006491 	.word	0x08006491
 800643c:	080064a5 	.word	0x080064a5
 8006440:	08006421 	.word	0x08006421
 8006444:	08006421 	.word	0x08006421
 8006448:	08006421 	.word	0x08006421
 800644c:	08006421 	.word	0x08006421
 8006450:	080064a5 	.word	0x080064a5
 8006454:	08006421 	.word	0x08006421
 8006458:	08006421 	.word	0x08006421
 800645c:	08006421 	.word	0x08006421
 8006460:	08006421 	.word	0x08006421
 8006464:	080065b1 	.word	0x080065b1
 8006468:	080064d5 	.word	0x080064d5
 800646c:	08006593 	.word	0x08006593
 8006470:	08006421 	.word	0x08006421
 8006474:	08006421 	.word	0x08006421
 8006478:	080065d3 	.word	0x080065d3
 800647c:	08006421 	.word	0x08006421
 8006480:	080064d5 	.word	0x080064d5
 8006484:	08006421 	.word	0x08006421
 8006488:	08006421 	.word	0x08006421
 800648c:	0800659b 	.word	0x0800659b
 8006490:	680b      	ldr	r3, [r1, #0]
 8006492:	1d1a      	adds	r2, r3, #4
 8006494:	681b      	ldr	r3, [r3, #0]
 8006496:	600a      	str	r2, [r1, #0]
 8006498:	f104 0642 	add.w	r6, r4, #66	; 0x42
 800649c:	f884 3042 	strb.w	r3, [r4, #66]	; 0x42
 80064a0:	2301      	movs	r3, #1
 80064a2:	e0a3      	b.n	80065ec <_printf_i+0x1f4>
 80064a4:	6825      	ldr	r5, [r4, #0]
 80064a6:	6808      	ldr	r0, [r1, #0]
 80064a8:	062e      	lsls	r6, r5, #24
 80064aa:	f100 0304 	add.w	r3, r0, #4
 80064ae:	d50a      	bpl.n	80064c6 <_printf_i+0xce>
 80064b0:	6805      	ldr	r5, [r0, #0]
 80064b2:	600b      	str	r3, [r1, #0]
 80064b4:	2d00      	cmp	r5, #0
 80064b6:	da03      	bge.n	80064c0 <_printf_i+0xc8>
 80064b8:	232d      	movs	r3, #45	; 0x2d
 80064ba:	426d      	negs	r5, r5
 80064bc:	f884 3043 	strb.w	r3, [r4, #67]	; 0x43
 80064c0:	485e      	ldr	r0, [pc, #376]	; (800663c <_printf_i+0x244>)
 80064c2:	230a      	movs	r3, #10
 80064c4:	e019      	b.n	80064fa <_printf_i+0x102>
 80064c6:	f015 0f40 	tst.w	r5, #64	; 0x40
 80064ca:	6805      	ldr	r5, [r0, #0]
 80064cc:	600b      	str	r3, [r1, #0]
 80064ce:	bf18      	it	ne
 80064d0:	b22d      	sxthne	r5, r5
 80064d2:	e7ef      	b.n	80064b4 <_printf_i+0xbc>
 80064d4:	680b      	ldr	r3, [r1, #0]
 80064d6:	6825      	ldr	r5, [r4, #0]
 80064d8:	1d18      	adds	r0, r3, #4
 80064da:	6008      	str	r0, [r1, #0]
 80064dc:	0628      	lsls	r0, r5, #24
 80064de:	d501      	bpl.n	80064e4 <_printf_i+0xec>
 80064e0:	681d      	ldr	r5, [r3, #0]
 80064e2:	e002      	b.n	80064ea <_printf_i+0xf2>
 80064e4:	0669      	lsls	r1, r5, #25
 80064e6:	d5fb      	bpl.n	80064e0 <_printf_i+0xe8>
 80064e8:	881d      	ldrh	r5, [r3, #0]
 80064ea:	4854      	ldr	r0, [pc, #336]	; (800663c <_printf_i+0x244>)
 80064ec:	2f6f      	cmp	r7, #111	; 0x6f
 80064ee:	bf0c      	ite	eq
 80064f0:	2308      	moveq	r3, #8
 80064f2:	230a      	movne	r3, #10
 80064f4:	2100      	movs	r1, #0
 80064f6:	f884 1043 	strb.w	r1, [r4, #67]	; 0x43
 80064fa:	6866      	ldr	r6, [r4, #4]
 80064fc:	60a6      	str	r6, [r4, #8]
 80064fe:	2e00      	cmp	r6, #0
 8006500:	bfa2      	ittt	ge
 8006502:	6821      	ldrge	r1, [r4, #0]
 8006504:	f021 0104 	bicge.w	r1, r1, #4
 8006508:	6021      	strge	r1, [r4, #0]
 800650a:	b90d      	cbnz	r5, 8006510 <_printf_i+0x118>
 800650c:	2e00      	cmp	r6, #0
 800650e:	d04d      	beq.n	80065ac <_printf_i+0x1b4>
 8006510:	4616      	mov	r6, r2
 8006512:	fbb5 f1f3 	udiv	r1, r5, r3
 8006516:	fb03 5711 	mls	r7, r3, r1, r5
 800651a:	5dc7      	ldrb	r7, [r0, r7]
 800651c:	f806 7d01 	strb.w	r7, [r6, #-1]!
 8006520:	462f      	mov	r7, r5
 8006522:	42bb      	cmp	r3, r7
 8006524:	460d      	mov	r5, r1
 8006526:	d9f4      	bls.n	8006512 <_printf_i+0x11a>
 8006528:	2b08      	cmp	r3, #8
 800652a:	d10b      	bne.n	8006544 <_printf_i+0x14c>
 800652c:	6823      	ldr	r3, [r4, #0]
 800652e:	07df      	lsls	r7, r3, #31
 8006530:	d508      	bpl.n	8006544 <_printf_i+0x14c>
 8006532:	6923      	ldr	r3, [r4, #16]
 8006534:	6861      	ldr	r1, [r4, #4]
 8006536:	4299      	cmp	r1, r3
 8006538:	bfde      	ittt	le
 800653a:	2330      	movle	r3, #48	; 0x30
 800653c:	f806 3c01 	strble.w	r3, [r6, #-1]
 8006540:	f106 36ff 	addle.w	r6, r6, #4294967295
 8006544:	1b92      	subs	r2, r2, r6
 8006546:	6122      	str	r2, [r4, #16]
 8006548:	f8cd a000 	str.w	sl, [sp]
 800654c:	464b      	mov	r3, r9
 800654e:	aa03      	add	r2, sp, #12
 8006550:	4621      	mov	r1, r4
 8006552:	4640      	mov	r0, r8
 8006554:	f7ff fee2 	bl	800631c <_printf_common>
 8006558:	3001      	adds	r0, #1
 800655a:	d14c      	bne.n	80065f6 <_printf_i+0x1fe>
 800655c:	f04f 30ff 	mov.w	r0, #4294967295
 8006560:	b004      	add	sp, #16
 8006562:	e8bd 87f0 	ldmia.w	sp!, {r4, r5, r6, r7, r8, r9, sl, pc}
 8006566:	4835      	ldr	r0, [pc, #212]	; (800663c <_printf_i+0x244>)
 8006568:	f884 7045 	strb.w	r7, [r4, #69]	; 0x45
 800656c:	6823      	ldr	r3, [r4, #0]
 800656e:	680e      	ldr	r6, [r1, #0]
 8006570:	061f      	lsls	r7, r3, #24
 8006572:	f856 5b04 	ldr.w	r5, [r6], #4
 8006576:	600e      	str	r6, [r1, #0]
 8006578:	d514      	bpl.n	80065a4 <_printf_i+0x1ac>
 800657a:	07d9      	lsls	r1, r3, #31
 800657c:	bf44      	itt	mi
 800657e:	f043 0320 	orrmi.w	r3, r3, #32
 8006582:	6023      	strmi	r3, [r4, #0]
 8006584:	b91d      	cbnz	r5, 800658e <_printf_i+0x196>
 8006586:	6823      	ldr	r3, [r4, #0]
 8006588:	f023 0320 	bic.w	r3, r3, #32
 800658c:	6023      	str	r3, [r4, #0]
 800658e:	2310      	movs	r3, #16
 8006590:	e7b0      	b.n	80064f4 <_printf_i+0xfc>
 8006592:	6823      	ldr	r3, [r4, #0]
 8006594:	f043 0320 	orr.w	r3, r3, #32
 8006598:	6023      	str	r3, [r4, #0]
 800659a:	2378      	movs	r3, #120	; 0x78
 800659c:	4828      	ldr	r0, [pc, #160]	; (8006640 <_printf_i+0x248>)
 800659e:	f884 3045 	strb.w	r3, [r4, #69]	; 0x45
 80065a2:	e7e3      	b.n	800656c <_printf_i+0x174>
 80065a4:	065e      	lsls	r6, r3, #25
 80065a6:	bf48      	it	mi
 80065a8:	b2ad      	uxthmi	r5, r5
 80065aa:	e7e6      	b.n	800657a <_printf_i+0x182>
 80065ac:	4616      	mov	r6, r2
 80065ae:	e7bb      	b.n	8006528 <_printf_i+0x130>
 80065b0:	680b      	ldr	r3, [r1, #0]
 80065b2:	6826      	ldr	r6, [r4, #0]
 80065b4:	6960      	ldr	r0, [r4, #20]
 80065b6:	1d1d      	adds	r5, r3, #4
 80065b8:	600d      	str	r5, [r1, #0]
 80065ba:	0635      	lsls	r5, r6, #24
 80065bc:	681b      	ldr	r3, [r3, #0]
 80065be:	d501      	bpl.n	80065c4 <_printf_i+0x1cc>
 80065c0:	6018      	str	r0, [r3, #0]
 80065c2:	e002      	b.n	80065ca <_printf_i+0x1d2>
 80065c4:	0671      	lsls	r1, r6, #25
 80065c6:	d5fb      	bpl.n	80065c0 <_printf_i+0x1c8>
 80065c8:	8018      	strh	r0, [r3, #0]
 80065ca:	2300      	movs	r3, #0
 80065cc:	6123      	str	r3, [r4, #16]
 80065ce:	4616      	mov	r6, r2
 80065d0:	e7ba      	b.n	8006548 <_printf_i+0x150>
 80065d2:	680b      	ldr	r3, [r1, #0]
 80065d4:	1d1a      	adds	r2, r3, #4
 80065d6:	600a      	str	r2, [r1, #0]
 80065d8:	681e      	ldr	r6, [r3, #0]
 80065da:	6862      	ldr	r2, [r4, #4]
 80065dc:	2100      	movs	r1, #0
 80065de:	4630      	mov	r0, r6
 80065e0:	f7f9 fe0e 	bl	8000200 <memchr>
 80065e4:	b108      	cbz	r0, 80065ea <_printf_i+0x1f2>
 80065e6:	1b80      	subs	r0, r0, r6
 80065e8:	6060      	str	r0, [r4, #4]
 80065ea:	6863      	ldr	r3, [r4, #4]
 80065ec:	6123      	str	r3, [r4, #16]
 80065ee:	2300      	movs	r3, #0
 80065f0:	f884 3043 	strb.w	r3, [r4, #67]	; 0x43
 80065f4:	e7a8      	b.n	8006548 <_printf_i+0x150>
 80065f6:	6923      	ldr	r3, [r4, #16]
 80065f8:	4632      	mov	r2, r6
 80065fa:	4649      	mov	r1, r9
 80065fc:	4640      	mov	r0, r8
 80065fe:	47d0      	blx	sl
 8006600:	3001      	adds	r0, #1
 8006602:	d0ab      	beq.n	800655c <_printf_i+0x164>
 8006604:	6823      	ldr	r3, [r4, #0]
 8006606:	079b      	lsls	r3, r3, #30
 8006608:	d413      	bmi.n	8006632 <_printf_i+0x23a>
 800660a:	68e0      	ldr	r0, [r4, #12]
 800660c:	9b03      	ldr	r3, [sp, #12]
 800660e:	4298      	cmp	r0, r3
 8006610:	bfb8      	it	lt
 8006612:	4618      	movlt	r0, r3
 8006614:	e7a4      	b.n	8006560 <_printf_i+0x168>
 8006616:	2301      	movs	r3, #1
 8006618:	4632      	mov	r2, r6
 800661a:	4649      	mov	r1, r9
 800661c:	4640      	mov	r0, r8
 800661e:	47d0      	blx	sl
 8006620:	3001      	adds	r0, #1
 8006622:	d09b      	beq.n	800655c <_printf_i+0x164>
 8006624:	3501      	adds	r5, #1
 8006626:	68e3      	ldr	r3, [r4, #12]
 8006628:	9903      	ldr	r1, [sp, #12]
 800662a:	1a5b      	subs	r3, r3, r1
 800662c:	42ab      	cmp	r3, r5
 800662e:	dcf2      	bgt.n	8006616 <_printf_i+0x21e>
 8006630:	e7eb      	b.n	800660a <_printf_i+0x212>
 8006632:	2500      	movs	r5, #0
 8006634:	f104 0619 	add.w	r6, r4, #25
 8006638:	e7f5      	b.n	8006626 <_printf_i+0x22e>
 800663a:	bf00      	nop
 800663c:	0800a3cd 	.word	0x0800a3cd
 8006640:	0800a3de 	.word	0x0800a3de

08006644 <_sbrk_r>:
 8006644:	b538      	push	{r3, r4, r5, lr}
 8006646:	4d06      	ldr	r5, [pc, #24]	; (8006660 <_sbrk_r+0x1c>)
 8006648:	2300      	movs	r3, #0
 800664a:	4604      	mov	r4, r0
 800664c:	4608      	mov	r0, r1
 800664e:	602b      	str	r3, [r5, #0]
 8006650:	f7fa ffd2 	bl	80015f8 <_sbrk>
 8006654:	1c43      	adds	r3, r0, #1
 8006656:	d102      	bne.n	800665e <_sbrk_r+0x1a>
 8006658:	682b      	ldr	r3, [r5, #0]
 800665a:	b103      	cbz	r3, 800665e <_sbrk_r+0x1a>
 800665c:	6023      	str	r3, [r4, #0]
 800665e:	bd38      	pop	{r3, r4, r5, pc}
 8006660:	20001834 	.word	0x20001834

08006664 <_raise_r>:
 8006664:	291f      	cmp	r1, #31
 8006666:	b538      	push	{r3, r4, r5, lr}
 8006668:	4604      	mov	r4, r0
 800666a:	460d      	mov	r5, r1
 800666c:	d904      	bls.n	8006678 <_raise_r+0x14>
 800666e:	2316      	movs	r3, #22
 8006670:	6003      	str	r3, [r0, #0]
 8006672:	f04f 30ff 	mov.w	r0, #4294967295
 8006676:	bd38      	pop	{r3, r4, r5, pc}
 8006678:	6c42      	ldr	r2, [r0, #68]	; 0x44
 800667a:	b112      	cbz	r2, 8006682 <_raise_r+0x1e>
 800667c:	f852 3021 	ldr.w	r3, [r2, r1, lsl #2]
 8006680:	b94b      	cbnz	r3, 8006696 <_raise_r+0x32>
 8006682:	4620      	mov	r0, r4
 8006684:	f000 f830 	bl	80066e8 <_getpid_r>
 8006688:	462a      	mov	r2, r5
 800668a:	4601      	mov	r1, r0
 800668c:	4620      	mov	r0, r4
 800668e:	e8bd 4038 	ldmia.w	sp!, {r3, r4, r5, lr}
 8006692:	f000 b817 	b.w	80066c4 <_kill_r>
 8006696:	2b01      	cmp	r3, #1
 8006698:	d00a      	beq.n	80066b0 <_raise_r+0x4c>
 800669a:	1c59      	adds	r1, r3, #1
 800669c:	d103      	bne.n	80066a6 <_raise_r+0x42>
 800669e:	2316      	movs	r3, #22
 80066a0:	6003      	str	r3, [r0, #0]
 80066a2:	2001      	movs	r0, #1
 80066a4:	e7e7      	b.n	8006676 <_raise_r+0x12>
 80066a6:	2400      	movs	r4, #0
 80066a8:	f842 4025 	str.w	r4, [r2, r5, lsl #2]
 80066ac:	4628      	mov	r0, r5
 80066ae:	4798      	blx	r3
 80066b0:	2000      	movs	r0, #0
 80066b2:	e7e0      	b.n	8006676 <_raise_r+0x12>

080066b4 <raise>:
 80066b4:	4b02      	ldr	r3, [pc, #8]	; (80066c0 <raise+0xc>)
 80066b6:	4601      	mov	r1, r0
 80066b8:	6818      	ldr	r0, [r3, #0]
 80066ba:	f7ff bfd3 	b.w	8006664 <_raise_r>
 80066be:	bf00      	nop
 80066c0:	20000bc0 	.word	0x20000bc0

080066c4 <_kill_r>:
 80066c4:	b538      	push	{r3, r4, r5, lr}
 80066c6:	4d07      	ldr	r5, [pc, #28]	; (80066e4 <_kill_r+0x20>)
 80066c8:	2300      	movs	r3, #0
 80066ca:	4604      	mov	r4, r0
 80066cc:	4608      	mov	r0, r1
 80066ce:	4611      	mov	r1, r2
 80066d0:	602b      	str	r3, [r5, #0]
 80066d2:	f7fa ff5d 	bl	8001590 <_kill>
 80066d6:	1c43      	adds	r3, r0, #1
 80066d8:	d102      	bne.n	80066e0 <_kill_r+0x1c>
 80066da:	682b      	ldr	r3, [r5, #0]
 80066dc:	b103      	cbz	r3, 80066e0 <_kill_r+0x1c>
 80066de:	6023      	str	r3, [r4, #0]
 80066e0:	bd38      	pop	{r3, r4, r5, pc}
 80066e2:	bf00      	nop
 80066e4:	20001834 	.word	0x20001834

080066e8 <_getpid_r>:
 80066e8:	f7fa bf50 	b.w	800158c <_getpid>

080066ec <siprintf>:
 80066ec:	b40e      	push	{r1, r2, r3}
 80066ee:	b500      	push	{lr}
 80066f0:	b09c      	sub	sp, #112	; 0x70
 80066f2:	ab1d      	add	r3, sp, #116	; 0x74
 80066f4:	9002      	str	r0, [sp, #8]
 80066f6:	9006      	str	r0, [sp, #24]
 80066f8:	f06f 4100 	mvn.w	r1, #2147483648	; 0x80000000
 80066fc:	4809      	ldr	r0, [pc, #36]	; (8006724 <siprintf+0x38>)
 80066fe:	9107      	str	r1, [sp, #28]
 8006700:	9104      	str	r1, [sp, #16]
 8006702:	4909      	ldr	r1, [pc, #36]	; (8006728 <siprintf+0x3c>)
 8006704:	f853 2b04 	ldr.w	r2, [r3], #4
 8006708:	9105      	str	r1, [sp, #20]
 800670a:	6800      	ldr	r0, [r0, #0]
 800670c:	9301      	str	r3, [sp, #4]
 800670e:	a902      	add	r1, sp, #8
 8006710:	f001 fdf4 	bl	80082fc <_svfiprintf_r>
 8006714:	9b02      	ldr	r3, [sp, #8]
 8006716:	2200      	movs	r2, #0
 8006718:	701a      	strb	r2, [r3, #0]
 800671a:	b01c      	add	sp, #112	; 0x70
 800671c:	f85d eb04 	ldr.w	lr, [sp], #4
 8006720:	b003      	add	sp, #12
 8006722:	4770      	bx	lr
 8006724:	20000bc0 	.word	0x20000bc0
 8006728:	ffff0208 	.word	0xffff0208

0800672c <strncmp>:
 800672c:	b510      	push	{r4, lr}
 800672e:	b16a      	cbz	r2, 800674c <strncmp+0x20>
 8006730:	3901      	subs	r1, #1
 8006732:	1884      	adds	r4, r0, r2
 8006734:	f810 3b01 	ldrb.w	r3, [r0], #1
 8006738:	f811 2f01 	ldrb.w	r2, [r1, #1]!
 800673c:	4293      	cmp	r3, r2
 800673e:	d103      	bne.n	8006748 <strncmp+0x1c>
 8006740:	42a0      	cmp	r0, r4
 8006742:	d001      	beq.n	8006748 <strncmp+0x1c>
 8006744:	2b00      	cmp	r3, #0
 8006746:	d1f5      	bne.n	8006734 <strncmp+0x8>
 8006748:	1a98      	subs	r0, r3, r2
 800674a:	bd10      	pop	{r4, pc}
 800674c:	4610      	mov	r0, r2
 800674e:	e7fc      	b.n	800674a <strncmp+0x1e>

08006750 <__swbuf_r>:
 8006750:	b5f8      	push	{r3, r4, r5, r6, r7, lr}
 8006752:	460e      	mov	r6, r1
 8006754:	4614      	mov	r4, r2
 8006756:	4605      	mov	r5, r0
 8006758:	b118      	cbz	r0, 8006762 <__swbuf_r+0x12>
 800675a:	6983      	ldr	r3, [r0, #24]
 800675c:	b90b      	cbnz	r3, 8006762 <__swbuf_r+0x12>
 800675e:	f001 f8ad 	bl	80078bc <__sinit>
 8006762:	4b21      	ldr	r3, [pc, #132]	; (80067e8 <__swbuf_r+0x98>)
 8006764:	429c      	cmp	r4, r3
 8006766:	d12b      	bne.n	80067c0 <__swbuf_r+0x70>
 8006768:	686c      	ldr	r4, [r5, #4]
 800676a:	69a3      	ldr	r3, [r4, #24]
 800676c:	60a3      	str	r3, [r4, #8]
 800676e:	89a3      	ldrh	r3, [r4, #12]
 8006770:	071a      	lsls	r2, r3, #28
 8006772:	d52f      	bpl.n	80067d4 <__swbuf_r+0x84>
 8006774:	6923      	ldr	r3, [r4, #16]
 8006776:	b36b      	cbz	r3, 80067d4 <__swbuf_r+0x84>
 8006778:	6923      	ldr	r3, [r4, #16]
 800677a:	6820      	ldr	r0, [r4, #0]
 800677c:	1ac0      	subs	r0, r0, r3
 800677e:	6963      	ldr	r3, [r4, #20]
 8006780:	b2f6      	uxtb	r6, r6
 8006782:	4283      	cmp	r3, r0
 8006784:	4637      	mov	r7, r6
 8006786:	dc04      	bgt.n	8006792 <__swbuf_r+0x42>
 8006788:	4621      	mov	r1, r4
 800678a:	4628      	mov	r0, r5
 800678c:	f001 f802 	bl	8007794 <_fflush_r>
 8006790:	bb30      	cbnz	r0, 80067e0 <__swbuf_r+0x90>
 8006792:	68a3      	ldr	r3, [r4, #8]
 8006794:	3b01      	subs	r3, #1
 8006796:	60a3      	str	r3, [r4, #8]
 8006798:	6823      	ldr	r3, [r4, #0]
 800679a:	1c5a      	adds	r2, r3, #1
 800679c:	6022      	str	r2, [r4, #0]
 800679e:	701e      	strb	r6, [r3, #0]
 80067a0:	6963      	ldr	r3, [r4, #20]
 80067a2:	3001      	adds	r0, #1
 80067a4:	4283      	cmp	r3, r0
 80067a6:	d004      	beq.n	80067b2 <__swbuf_r+0x62>
 80067a8:	89a3      	ldrh	r3, [r4, #12]
 80067aa:	07db      	lsls	r3, r3, #31
 80067ac:	d506      	bpl.n	80067bc <__swbuf_r+0x6c>
 80067ae:	2e0a      	cmp	r6, #10
 80067b0:	d104      	bne.n	80067bc <__swbuf_r+0x6c>
 80067b2:	4621      	mov	r1, r4
 80067b4:	4628      	mov	r0, r5
 80067b6:	f000 ffed 	bl	8007794 <_fflush_r>
 80067ba:	b988      	cbnz	r0, 80067e0 <__swbuf_r+0x90>
 80067bc:	4638      	mov	r0, r7
 80067be:	bdf8      	pop	{r3, r4, r5, r6, r7, pc}
 80067c0:	4b0a      	ldr	r3, [pc, #40]	; (80067ec <__swbuf_r+0x9c>)
 80067c2:	429c      	cmp	r4, r3
 80067c4:	d101      	bne.n	80067ca <__swbuf_r+0x7a>
 80067c6:	68ac      	ldr	r4, [r5, #8]
 80067c8:	e7cf      	b.n	800676a <__swbuf_r+0x1a>
 80067ca:	4b09      	ldr	r3, [pc, #36]	; (80067f0 <__swbuf_r+0xa0>)
 80067cc:	429c      	cmp	r4, r3
 80067ce:	bf08      	it	eq
 80067d0:	68ec      	ldreq	r4, [r5, #12]
 80067d2:	e7ca      	b.n	800676a <__swbuf_r+0x1a>
 80067d4:	4621      	mov	r1, r4
 80067d6:	4628      	mov	r0, r5
 80067d8:	f000 f80c 	bl	80067f4 <__swsetup_r>
 80067dc:	2800      	cmp	r0, #0
 80067de:	d0cb      	beq.n	8006778 <__swbuf_r+0x28>
 80067e0:	f04f 37ff 	mov.w	r7, #4294967295
 80067e4:	e7ea      	b.n	80067bc <__swbuf_r+0x6c>
 80067e6:	bf00      	nop
 80067e8:	0800a4a0 	.word	0x0800a4a0
 80067ec:	0800a4c0 	.word	0x0800a4c0
 80067f0:	0800a480 	.word	0x0800a480

080067f4 <__swsetup_r>:
 80067f4:	4b32      	ldr	r3, [pc, #200]	; (80068c0 <__swsetup_r+0xcc>)
 80067f6:	b570      	push	{r4, r5, r6, lr}
 80067f8:	681d      	ldr	r5, [r3, #0]
 80067fa:	4606      	mov	r6, r0
 80067fc:	460c      	mov	r4, r1
 80067fe:	b125      	cbz	r5, 800680a <__swsetup_r+0x16>
 8006800:	69ab      	ldr	r3, [r5, #24]
 8006802:	b913      	cbnz	r3, 800680a <__swsetup_r+0x16>
 8006804:	4628      	mov	r0, r5
 8006806:	f001 f859 	bl	80078bc <__sinit>
 800680a:	4b2e      	ldr	r3, [pc, #184]	; (80068c4 <__swsetup_r+0xd0>)
 800680c:	429c      	cmp	r4, r3
 800680e:	d10f      	bne.n	8006830 <__swsetup_r+0x3c>
 8006810:	686c      	ldr	r4, [r5, #4]
 8006812:	89a3      	ldrh	r3, [r4, #12]
 8006814:	f9b4 200c 	ldrsh.w	r2, [r4, #12]
 8006818:	0719      	lsls	r1, r3, #28
 800681a:	d42c      	bmi.n	8006876 <__swsetup_r+0x82>
 800681c:	06dd      	lsls	r5, r3, #27
 800681e:	d411      	bmi.n	8006844 <__swsetup_r+0x50>
 8006820:	2309      	movs	r3, #9
 8006822:	6033      	str	r3, [r6, #0]
 8006824:	f042 0340 	orr.w	r3, r2, #64	; 0x40
 8006828:	81a3      	strh	r3, [r4, #12]
 800682a:	f04f 30ff 	mov.w	r0, #4294967295
 800682e:	e03e      	b.n	80068ae <__swsetup_r+0xba>
 8006830:	4b25      	ldr	r3, [pc, #148]	; (80068c8 <__swsetup_r+0xd4>)
 8006832:	429c      	cmp	r4, r3
 8006834:	d101      	bne.n	800683a <__swsetup_r+0x46>
 8006836:	68ac      	ldr	r4, [r5, #8]
 8006838:	e7eb      	b.n	8006812 <__swsetup_r+0x1e>
 800683a:	4b24      	ldr	r3, [pc, #144]	; (80068cc <__swsetup_r+0xd8>)
 800683c:	429c      	cmp	r4, r3
 800683e:	bf08      	it	eq
 8006840:	68ec      	ldreq	r4, [r5, #12]
 8006842:	e7e6      	b.n	8006812 <__swsetup_r+0x1e>
 8006844:	0758      	lsls	r0, r3, #29
 8006846:	d512      	bpl.n	800686e <__swsetup_r+0x7a>
 8006848:	6b61      	ldr	r1, [r4, #52]	; 0x34
 800684a:	b141      	cbz	r1, 800685e <__swsetup_r+0x6a>
 800684c:	f104 0344 	add.w	r3, r4, #68	; 0x44
 8006850:	4299      	cmp	r1, r3
 8006852:	d002      	beq.n	800685a <__swsetup_r+0x66>
 8006854:	4630      	mov	r0, r6
 8006856:	f7ff f887 	bl	8005968 <_free_r>
 800685a:	2300      	movs	r3, #0
 800685c:	6363      	str	r3, [r4, #52]	; 0x34
 800685e:	89a3      	ldrh	r3, [r4, #12]
 8006860:	f023 0324 	bic.w	r3, r3, #36	; 0x24
 8006864:	81a3      	strh	r3, [r4, #12]
 8006866:	2300      	movs	r3, #0
 8006868:	6063      	str	r3, [r4, #4]
 800686a:	6923      	ldr	r3, [r4, #16]
 800686c:	6023      	str	r3, [r4, #0]
 800686e:	89a3      	ldrh	r3, [r4, #12]
 8006870:	f043 0308 	orr.w	r3, r3, #8
 8006874:	81a3      	strh	r3, [r4, #12]
 8006876:	6923      	ldr	r3, [r4, #16]
 8006878:	b94b      	cbnz	r3, 800688e <__swsetup_r+0x9a>
 800687a:	89a3      	ldrh	r3, [r4, #12]
 800687c:	f403 7320 	and.w	r3, r3, #640	; 0x280
 8006880:	f5b3 7f00 	cmp.w	r3, #512	; 0x200
 8006884:	d003      	beq.n	800688e <__swsetup_r+0x9a>
 8006886:	4621      	mov	r1, r4
 8006888:	4630      	mov	r0, r6
 800688a:	f001 f8dd 	bl	8007a48 <__smakebuf_r>
 800688e:	89a0      	ldrh	r0, [r4, #12]
 8006890:	f9b4 200c 	ldrsh.w	r2, [r4, #12]
 8006894:	f010 0301 	ands.w	r3, r0, #1
 8006898:	d00a      	beq.n	80068b0 <__swsetup_r+0xbc>
 800689a:	2300      	movs	r3, #0
 800689c:	60a3      	str	r3, [r4, #8]
 800689e:	6963      	ldr	r3, [r4, #20]
 80068a0:	425b      	negs	r3, r3
 80068a2:	61a3      	str	r3, [r4, #24]
 80068a4:	6923      	ldr	r3, [r4, #16]
 80068a6:	b943      	cbnz	r3, 80068ba <__swsetup_r+0xc6>
 80068a8:	f010 0080 	ands.w	r0, r0, #128	; 0x80
 80068ac:	d1ba      	bne.n	8006824 <__swsetup_r+0x30>
 80068ae:	bd70      	pop	{r4, r5, r6, pc}
 80068b0:	0781      	lsls	r1, r0, #30
 80068b2:	bf58      	it	pl
 80068b4:	6963      	ldrpl	r3, [r4, #20]
 80068b6:	60a3      	str	r3, [r4, #8]
 80068b8:	e7f4      	b.n	80068a4 <__swsetup_r+0xb0>
 80068ba:	2000      	movs	r0, #0
 80068bc:	e7f7      	b.n	80068ae <__swsetup_r+0xba>
 80068be:	bf00      	nop
 80068c0:	20000bc0 	.word	0x20000bc0
 80068c4:	0800a4a0 	.word	0x0800a4a0
 80068c8:	0800a4c0 	.word	0x0800a4c0
 80068cc:	0800a480 	.word	0x0800a480

080068d0 <__register_exitproc>:
 80068d0:	e92d 43f8 	stmdb	sp!, {r3, r4, r5, r6, r7, r8, r9, lr}
 80068d4:	f8df 80b8 	ldr.w	r8, [pc, #184]	; 8006990 <__register_exitproc+0xc0>
 80068d8:	4606      	mov	r6, r0
 80068da:	f8d8 0000 	ldr.w	r0, [r8]
 80068de:	461f      	mov	r7, r3
 80068e0:	460d      	mov	r5, r1
 80068e2:	4691      	mov	r9, r2
 80068e4:	f7fe fffd 	bl	80058e2 <__retarget_lock_acquire_recursive>
 80068e8:	4b25      	ldr	r3, [pc, #148]	; (8006980 <__register_exitproc+0xb0>)
 80068ea:	681c      	ldr	r4, [r3, #0]
 80068ec:	b934      	cbnz	r4, 80068fc <__register_exitproc+0x2c>
 80068ee:	4c25      	ldr	r4, [pc, #148]	; (8006984 <__register_exitproc+0xb4>)
 80068f0:	601c      	str	r4, [r3, #0]
 80068f2:	4b25      	ldr	r3, [pc, #148]	; (8006988 <__register_exitproc+0xb8>)
 80068f4:	b113      	cbz	r3, 80068fc <__register_exitproc+0x2c>
 80068f6:	681b      	ldr	r3, [r3, #0]
 80068f8:	f8c4 3088 	str.w	r3, [r4, #136]	; 0x88
 80068fc:	6863      	ldr	r3, [r4, #4]
 80068fe:	2b1f      	cmp	r3, #31
 8006900:	dd07      	ble.n	8006912 <__register_exitproc+0x42>
 8006902:	f8d8 0000 	ldr.w	r0, [r8]
 8006906:	f7fe ffee 	bl	80058e6 <__retarget_lock_release_recursive>
 800690a:	f04f 30ff 	mov.w	r0, #4294967295
 800690e:	e8bd 83f8 	ldmia.w	sp!, {r3, r4, r5, r6, r7, r8, r9, pc}
 8006912:	b34e      	cbz	r6, 8006968 <__register_exitproc+0x98>
 8006914:	f8d4 0088 	ldr.w	r0, [r4, #136]	; 0x88
 8006918:	b988      	cbnz	r0, 800693e <__register_exitproc+0x6e>
 800691a:	4b1c      	ldr	r3, [pc, #112]	; (800698c <__register_exitproc+0xbc>)
 800691c:	b923      	cbnz	r3, 8006928 <__register_exitproc+0x58>
 800691e:	f8d8 0000 	ldr.w	r0, [r8]
 8006922:	f7fe ffdf 	bl	80058e4 <__retarget_lock_release>
 8006926:	e7f0      	b.n	800690a <__register_exitproc+0x3a>
 8006928:	f44f 7084 	mov.w	r0, #264	; 0x108
 800692c:	f7fe ffdc 	bl	80058e8 <malloc>
 8006930:	2800      	cmp	r0, #0
 8006932:	d0f4      	beq.n	800691e <__register_exitproc+0x4e>
 8006934:	2300      	movs	r3, #0
 8006936:	e9c0 3340 	strd	r3, r3, [r0, #256]	; 0x100
 800693a:	f8c4 0088 	str.w	r0, [r4, #136]	; 0x88
 800693e:	6863      	ldr	r3, [r4, #4]
 8006940:	f840 9023 	str.w	r9, [r0, r3, lsl #2]
 8006944:	2201      	movs	r2, #1
 8006946:	409a      	lsls	r2, r3
 8006948:	eb00 0183 	add.w	r1, r0, r3, lsl #2
 800694c:	f8d0 3100 	ldr.w	r3, [r0, #256]	; 0x100
 8006950:	4313      	orrs	r3, r2
 8006952:	2e02      	cmp	r6, #2
 8006954:	f8c0 3100 	str.w	r3, [r0, #256]	; 0x100
 8006958:	f8c1 7080 	str.w	r7, [r1, #128]	; 0x80
 800695c:	bf02      	ittt	eq
 800695e:	f8d0 3104 	ldreq.w	r3, [r0, #260]	; 0x104
 8006962:	431a      	orreq	r2, r3
 8006964:	f8c0 2104 	streq.w	r2, [r0, #260]	; 0x104
 8006968:	6863      	ldr	r3, [r4, #4]
 800696a:	f8d8 0000 	ldr.w	r0, [r8]
 800696e:	1c5a      	adds	r2, r3, #1
 8006970:	3302      	adds	r3, #2
 8006972:	6062      	str	r2, [r4, #4]
 8006974:	f844 5023 	str.w	r5, [r4, r3, lsl #2]
 8006978:	f7fe ffb5 	bl	80058e6 <__retarget_lock_release_recursive>
 800697c:	2000      	movs	r0, #0
 800697e:	e7c6      	b.n	800690e <__register_exitproc+0x3e>
 8006980:	20001820 	.word	0x20001820
 8006984:	20001794 	.word	0x20001794
 8006988:	00000000 	.word	0x00000000
 800698c:	080058e9 	.word	0x080058e9
 8006990:	20000c24 	.word	0x20000c24

08006994 <quorem>:
 8006994:	e92d 4ff7 	stmdb	sp!, {r0, r1, r2, r4, r5, r6, r7, r8, r9, sl, fp, lr}
 8006998:	6903      	ldr	r3, [r0, #16]
 800699a:	690c      	ldr	r4, [r1, #16]
 800699c:	42a3      	cmp	r3, r4
 800699e:	4607      	mov	r7, r0
 80069a0:	f2c0 8081 	blt.w	8006aa6 <quorem+0x112>
 80069a4:	3c01      	subs	r4, #1
 80069a6:	f101 0814 	add.w	r8, r1, #20
 80069aa:	f100 0514 	add.w	r5, r0, #20
 80069ae:	eb05 0384 	add.w	r3, r5, r4, lsl #2
 80069b2:	9301      	str	r3, [sp, #4]
 80069b4:	f858 3024 	ldr.w	r3, [r8, r4, lsl #2]
 80069b8:	f855 2024 	ldr.w	r2, [r5, r4, lsl #2]
 80069bc:	3301      	adds	r3, #1
 80069be:	429a      	cmp	r2, r3
 80069c0:	ea4f 0b84 	mov.w	fp, r4, lsl #2
 80069c4:	eb08 0984 	add.w	r9, r8, r4, lsl #2
 80069c8:	fbb2 f6f3 	udiv	r6, r2, r3
 80069cc:	d331      	bcc.n	8006a32 <quorem+0x9e>
 80069ce:	f04f 0e00 	mov.w	lr, #0
 80069d2:	4640      	mov	r0, r8
 80069d4:	46ac      	mov	ip, r5
 80069d6:	46f2      	mov	sl, lr
 80069d8:	f850 2b04 	ldr.w	r2, [r0], #4
 80069dc:	b293      	uxth	r3, r2
 80069de:	fb06 e303 	mla	r3, r6, r3, lr
 80069e2:	ea4f 4e13 	mov.w	lr, r3, lsr #16
 80069e6:	b29b      	uxth	r3, r3
 80069e8:	ebaa 0303 	sub.w	r3, sl, r3
 80069ec:	0c12      	lsrs	r2, r2, #16
 80069ee:	f8dc a000 	ldr.w	sl, [ip]
 80069f2:	fb06 e202 	mla	r2, r6, r2, lr
 80069f6:	fa13 f38a 	uxtah	r3, r3, sl
 80069fa:	ea4f 4e12 	mov.w	lr, r2, lsr #16
 80069fe:	fa1f fa82 	uxth.w	sl, r2
 8006a02:	f8dc 2000 	ldr.w	r2, [ip]
 8006a06:	ebca 4212 	rsb	r2, sl, r2, lsr #16
 8006a0a:	eb02 4223 	add.w	r2, r2, r3, asr #16
 8006a0e:	b29b      	uxth	r3, r3
 8006a10:	ea43 4302 	orr.w	r3, r3, r2, lsl #16
 8006a14:	4581      	cmp	r9, r0
 8006a16:	f84c 3b04 	str.w	r3, [ip], #4
 8006a1a:	ea4f 4a22 	mov.w	sl, r2, asr #16
 8006a1e:	d2db      	bcs.n	80069d8 <quorem+0x44>
 8006a20:	f855 300b 	ldr.w	r3, [r5, fp]
 8006a24:	b92b      	cbnz	r3, 8006a32 <quorem+0x9e>
 8006a26:	9b01      	ldr	r3, [sp, #4]
 8006a28:	3b04      	subs	r3, #4
 8006a2a:	429d      	cmp	r5, r3
 8006a2c:	461a      	mov	r2, r3
 8006a2e:	d32e      	bcc.n	8006a8e <quorem+0xfa>
 8006a30:	613c      	str	r4, [r7, #16]
 8006a32:	4638      	mov	r0, r7
 8006a34:	f001 fad2 	bl	8007fdc <__mcmp>
 8006a38:	2800      	cmp	r0, #0
 8006a3a:	db24      	blt.n	8006a86 <quorem+0xf2>
 8006a3c:	3601      	adds	r6, #1
 8006a3e:	4628      	mov	r0, r5
 8006a40:	f04f 0c00 	mov.w	ip, #0
 8006a44:	f858 2b04 	ldr.w	r2, [r8], #4
 8006a48:	f8d0 e000 	ldr.w	lr, [r0]
 8006a4c:	b293      	uxth	r3, r2
 8006a4e:	ebac 0303 	sub.w	r3, ip, r3
 8006a52:	0c12      	lsrs	r2, r2, #16
 8006a54:	fa13 f38e 	uxtah	r3, r3, lr
 8006a58:	ebc2 421e 	rsb	r2, r2, lr, lsr #16
 8006a5c:	eb02 4223 	add.w	r2, r2, r3, asr #16
 8006a60:	b29b      	uxth	r3, r3
 8006a62:	ea43 4302 	orr.w	r3, r3, r2, lsl #16
 8006a66:	45c1      	cmp	r9, r8
 8006a68:	f840 3b04 	str.w	r3, [r0], #4
 8006a6c:	ea4f 4c22 	mov.w	ip, r2, asr #16
 8006a70:	d2e8      	bcs.n	8006a44 <quorem+0xb0>
 8006a72:	f855 2024 	ldr.w	r2, [r5, r4, lsl #2]
 8006a76:	eb05 0384 	add.w	r3, r5, r4, lsl #2
 8006a7a:	b922      	cbnz	r2, 8006a86 <quorem+0xf2>
 8006a7c:	3b04      	subs	r3, #4
 8006a7e:	429d      	cmp	r5, r3
 8006a80:	461a      	mov	r2, r3
 8006a82:	d30a      	bcc.n	8006a9a <quorem+0x106>
 8006a84:	613c      	str	r4, [r7, #16]
 8006a86:	4630      	mov	r0, r6
 8006a88:	b003      	add	sp, #12
 8006a8a:	e8bd 8ff0 	ldmia.w	sp!, {r4, r5, r6, r7, r8, r9, sl, fp, pc}
 8006a8e:	6812      	ldr	r2, [r2, #0]
 8006a90:	3b04      	subs	r3, #4
 8006a92:	2a00      	cmp	r2, #0
 8006a94:	d1cc      	bne.n	8006a30 <quorem+0x9c>
 8006a96:	3c01      	subs	r4, #1
 8006a98:	e7c7      	b.n	8006a2a <quorem+0x96>
 8006a9a:	6812      	ldr	r2, [r2, #0]
 8006a9c:	3b04      	subs	r3, #4
 8006a9e:	2a00      	cmp	r2, #0
 8006aa0:	d1f0      	bne.n	8006a84 <quorem+0xf0>
 8006aa2:	3c01      	subs	r4, #1
 8006aa4:	e7eb      	b.n	8006a7e <quorem+0xea>
 8006aa6:	2000      	movs	r0, #0
 8006aa8:	e7ee      	b.n	8006a88 <quorem+0xf4>
 8006aaa:	0000      	movs	r0, r0
 8006aac:	0000      	movs	r0, r0
	...

08006ab0 <_dtoa_r>:
 8006ab0:	e92d 4ff0 	stmdb	sp!, {r4, r5, r6, r7, r8, r9, sl, fp, lr}
 8006ab4:	ed2d 8b02 	vpush	{d8}
 8006ab8:	ec57 6b10 	vmov	r6, r7, d0
 8006abc:	b095      	sub	sp, #84	; 0x54
 8006abe:	6a45      	ldr	r5, [r0, #36]	; 0x24
 8006ac0:	f8dd 8080 	ldr.w	r8, [sp, #128]	; 0x80
 8006ac4:	9105      	str	r1, [sp, #20]
 8006ac6:	e9cd 6702 	strd	r6, r7, [sp, #8]
 8006aca:	4604      	mov	r4, r0
 8006acc:	9209      	str	r2, [sp, #36]	; 0x24
 8006ace:	930f      	str	r3, [sp, #60]	; 0x3c
 8006ad0:	b975      	cbnz	r5, 8006af0 <_dtoa_r+0x40>
 8006ad2:	2010      	movs	r0, #16
 8006ad4:	f7fe ff08 	bl	80058e8 <malloc>
 8006ad8:	4602      	mov	r2, r0
 8006ada:	6260      	str	r0, [r4, #36]	; 0x24
 8006adc:	b920      	cbnz	r0, 8006ae8 <_dtoa_r+0x38>
 8006ade:	4bb2      	ldr	r3, [pc, #712]	; (8006da8 <_dtoa_r+0x2f8>)
 8006ae0:	21ea      	movs	r1, #234	; 0xea
 8006ae2:	48b2      	ldr	r0, [pc, #712]	; (8006dac <_dtoa_r+0x2fc>)
 8006ae4:	f7fe fe9c 	bl	8005820 <__assert_func>
 8006ae8:	e9c0 5501 	strd	r5, r5, [r0, #4]
 8006aec:	6005      	str	r5, [r0, #0]
 8006aee:	60c5      	str	r5, [r0, #12]
 8006af0:	6a63      	ldr	r3, [r4, #36]	; 0x24
 8006af2:	6819      	ldr	r1, [r3, #0]
 8006af4:	b151      	cbz	r1, 8006b0c <_dtoa_r+0x5c>
 8006af6:	685a      	ldr	r2, [r3, #4]
 8006af8:	604a      	str	r2, [r1, #4]
 8006afa:	2301      	movs	r3, #1
 8006afc:	4093      	lsls	r3, r2
 8006afe:	608b      	str	r3, [r1, #8]
 8006b00:	4620      	mov	r0, r4
 8006b02:	f001 f82d 	bl	8007b60 <_Bfree>
 8006b06:	6a63      	ldr	r3, [r4, #36]	; 0x24
 8006b08:	2200      	movs	r2, #0
 8006b0a:	601a      	str	r2, [r3, #0]
 8006b0c:	1e3b      	subs	r3, r7, #0
 8006b0e:	bfb9      	ittee	lt
 8006b10:	f023 4300 	biclt.w	r3, r3, #2147483648	; 0x80000000
 8006b14:	9303      	strlt	r3, [sp, #12]
 8006b16:	2300      	movge	r3, #0
 8006b18:	f8c8 3000 	strge.w	r3, [r8]
 8006b1c:	f8dd 900c 	ldr.w	r9, [sp, #12]
 8006b20:	4ba3      	ldr	r3, [pc, #652]	; (8006db0 <_dtoa_r+0x300>)
 8006b22:	bfbc      	itt	lt
 8006b24:	2201      	movlt	r2, #1
 8006b26:	f8c8 2000 	strlt.w	r2, [r8]
 8006b2a:	ea33 0309 	bics.w	r3, r3, r9
 8006b2e:	d11b      	bne.n	8006b68 <_dtoa_r+0xb8>
 8006b30:	9a0f      	ldr	r2, [sp, #60]	; 0x3c
 8006b32:	f242 730f 	movw	r3, #9999	; 0x270f
 8006b36:	6013      	str	r3, [r2, #0]
 8006b38:	f3c9 0313 	ubfx	r3, r9, #0, #20
 8006b3c:	4333      	orrs	r3, r6
 8006b3e:	f000 857a 	beq.w	8007636 <_dtoa_r+0xb86>
 8006b42:	9b21      	ldr	r3, [sp, #132]	; 0x84
 8006b44:	b963      	cbnz	r3, 8006b60 <_dtoa_r+0xb0>
 8006b46:	4b9b      	ldr	r3, [pc, #620]	; (8006db4 <_dtoa_r+0x304>)
 8006b48:	e024      	b.n	8006b94 <_dtoa_r+0xe4>
 8006b4a:	4b9b      	ldr	r3, [pc, #620]	; (8006db8 <_dtoa_r+0x308>)
 8006b4c:	9300      	str	r3, [sp, #0]
 8006b4e:	3308      	adds	r3, #8
 8006b50:	9a21      	ldr	r2, [sp, #132]	; 0x84
 8006b52:	6013      	str	r3, [r2, #0]
 8006b54:	9800      	ldr	r0, [sp, #0]
 8006b56:	b015      	add	sp, #84	; 0x54
 8006b58:	ecbd 8b02 	vpop	{d8}
 8006b5c:	e8bd 8ff0 	ldmia.w	sp!, {r4, r5, r6, r7, r8, r9, sl, fp, pc}
 8006b60:	4b94      	ldr	r3, [pc, #592]	; (8006db4 <_dtoa_r+0x304>)
 8006b62:	9300      	str	r3, [sp, #0]
 8006b64:	3303      	adds	r3, #3
 8006b66:	e7f3      	b.n	8006b50 <_dtoa_r+0xa0>
 8006b68:	ed9d 7b02 	vldr	d7, [sp, #8]
 8006b6c:	2200      	movs	r2, #0
 8006b6e:	ec51 0b17 	vmov	r0, r1, d7
 8006b72:	2300      	movs	r3, #0
 8006b74:	ed8d 7b0a 	vstr	d7, [sp, #40]	; 0x28
 8006b78:	f7f9 ffb6 	bl	8000ae8 <__aeabi_dcmpeq>
 8006b7c:	4680      	mov	r8, r0
 8006b7e:	b158      	cbz	r0, 8006b98 <_dtoa_r+0xe8>
 8006b80:	9a0f      	ldr	r2, [sp, #60]	; 0x3c
 8006b82:	2301      	movs	r3, #1
 8006b84:	6013      	str	r3, [r2, #0]
 8006b86:	9b21      	ldr	r3, [sp, #132]	; 0x84
 8006b88:	2b00      	cmp	r3, #0
 8006b8a:	f000 8551 	beq.w	8007630 <_dtoa_r+0xb80>
 8006b8e:	488b      	ldr	r0, [pc, #556]	; (8006dbc <_dtoa_r+0x30c>)
 8006b90:	6018      	str	r0, [r3, #0]
 8006b92:	1e43      	subs	r3, r0, #1
 8006b94:	9300      	str	r3, [sp, #0]
 8006b96:	e7dd      	b.n	8006b54 <_dtoa_r+0xa4>
 8006b98:	ed9d 0b0a 	vldr	d0, [sp, #40]	; 0x28
 8006b9c:	aa12      	add	r2, sp, #72	; 0x48
 8006b9e:	a913      	add	r1, sp, #76	; 0x4c
 8006ba0:	4620      	mov	r0, r4
 8006ba2:	f001 fabf 	bl	8008124 <__d2b>
 8006ba6:	f3c9 550a 	ubfx	r5, r9, #20, #11
 8006baa:	4683      	mov	fp, r0
 8006bac:	2d00      	cmp	r5, #0
 8006bae:	d07c      	beq.n	8006caa <_dtoa_r+0x1fa>
 8006bb0:	9b0b      	ldr	r3, [sp, #44]	; 0x2c
 8006bb2:	f8cd 8040 	str.w	r8, [sp, #64]	; 0x40
 8006bb6:	f3c3 0313 	ubfx	r3, r3, #0, #20
 8006bba:	e9dd 670a 	ldrd	r6, r7, [sp, #40]	; 0x28
 8006bbe:	f043 577f 	orr.w	r7, r3, #1069547520	; 0x3fc00000
 8006bc2:	f447 1740 	orr.w	r7, r7, #3145728	; 0x300000
 8006bc6:	f2a5 35ff 	subw	r5, r5, #1023	; 0x3ff
 8006bca:	4b7d      	ldr	r3, [pc, #500]	; (8006dc0 <_dtoa_r+0x310>)
 8006bcc:	2200      	movs	r2, #0
 8006bce:	4630      	mov	r0, r6
 8006bd0:	4639      	mov	r1, r7
 8006bd2:	f7f9 fb69 	bl	80002a8 <__aeabi_dsub>
 8006bd6:	a36e      	add	r3, pc, #440	; (adr r3, 8006d90 <_dtoa_r+0x2e0>)
 8006bd8:	e9d3 2300 	ldrd	r2, r3, [r3]
 8006bdc:	f7f9 fd1c 	bl	8000618 <__aeabi_dmul>
 8006be0:	a36d      	add	r3, pc, #436	; (adr r3, 8006d98 <_dtoa_r+0x2e8>)
 8006be2:	e9d3 2300 	ldrd	r2, r3, [r3]
 8006be6:	f7f9 fb61 	bl	80002ac <__adddf3>
 8006bea:	4606      	mov	r6, r0
 8006bec:	4628      	mov	r0, r5
 8006bee:	460f      	mov	r7, r1
 8006bf0:	f7f9 fca8 	bl	8000544 <__aeabi_i2d>
 8006bf4:	a36a      	add	r3, pc, #424	; (adr r3, 8006da0 <_dtoa_r+0x2f0>)
 8006bf6:	e9d3 2300 	ldrd	r2, r3, [r3]
 8006bfa:	f7f9 fd0d 	bl	8000618 <__aeabi_dmul>
 8006bfe:	4602      	mov	r2, r0
 8006c00:	460b      	mov	r3, r1
 8006c02:	4630      	mov	r0, r6
 8006c04:	4639      	mov	r1, r7
 8006c06:	f7f9 fb51 	bl	80002ac <__adddf3>
 8006c0a:	4606      	mov	r6, r0
 8006c0c:	460f      	mov	r7, r1
 8006c0e:	f7f9 ffb3 	bl	8000b78 <__aeabi_d2iz>
 8006c12:	2200      	movs	r2, #0
 8006c14:	4682      	mov	sl, r0
 8006c16:	2300      	movs	r3, #0
 8006c18:	4630      	mov	r0, r6
 8006c1a:	4639      	mov	r1, r7
 8006c1c:	f7f9 ff6e 	bl	8000afc <__aeabi_dcmplt>
 8006c20:	b148      	cbz	r0, 8006c36 <_dtoa_r+0x186>
 8006c22:	4650      	mov	r0, sl
 8006c24:	f7f9 fc8e 	bl	8000544 <__aeabi_i2d>
 8006c28:	4632      	mov	r2, r6
 8006c2a:	463b      	mov	r3, r7
 8006c2c:	f7f9 ff5c 	bl	8000ae8 <__aeabi_dcmpeq>
 8006c30:	b908      	cbnz	r0, 8006c36 <_dtoa_r+0x186>
 8006c32:	f10a 3aff 	add.w	sl, sl, #4294967295
 8006c36:	f1ba 0f16 	cmp.w	sl, #22
 8006c3a:	d854      	bhi.n	8006ce6 <_dtoa_r+0x236>
 8006c3c:	4b61      	ldr	r3, [pc, #388]	; (8006dc4 <_dtoa_r+0x314>)
 8006c3e:	eb03 03ca 	add.w	r3, r3, sl, lsl #3
 8006c42:	e9d3 2300 	ldrd	r2, r3, [r3]
 8006c46:	e9dd 010a 	ldrd	r0, r1, [sp, #40]	; 0x28
 8006c4a:	f7f9 ff57 	bl	8000afc <__aeabi_dcmplt>
 8006c4e:	2800      	cmp	r0, #0
 8006c50:	d04b      	beq.n	8006cea <_dtoa_r+0x23a>
 8006c52:	f10a 3aff 	add.w	sl, sl, #4294967295
 8006c56:	2300      	movs	r3, #0
 8006c58:	930e      	str	r3, [sp, #56]	; 0x38
 8006c5a:	9b12      	ldr	r3, [sp, #72]	; 0x48
 8006c5c:	1b5d      	subs	r5, r3, r5
 8006c5e:	1e6b      	subs	r3, r5, #1
 8006c60:	9304      	str	r3, [sp, #16]
 8006c62:	bf43      	ittte	mi
 8006c64:	2300      	movmi	r3, #0
 8006c66:	f1c5 0801 	rsbmi	r8, r5, #1
 8006c6a:	9304      	strmi	r3, [sp, #16]
 8006c6c:	f04f 0800 	movpl.w	r8, #0
 8006c70:	f1ba 0f00 	cmp.w	sl, #0
 8006c74:	db3b      	blt.n	8006cee <_dtoa_r+0x23e>
 8006c76:	9b04      	ldr	r3, [sp, #16]
 8006c78:	f8cd a034 	str.w	sl, [sp, #52]	; 0x34
 8006c7c:	4453      	add	r3, sl
 8006c7e:	9304      	str	r3, [sp, #16]
 8006c80:	2300      	movs	r3, #0
 8006c82:	9306      	str	r3, [sp, #24]
 8006c84:	9b05      	ldr	r3, [sp, #20]
 8006c86:	2b09      	cmp	r3, #9
 8006c88:	d869      	bhi.n	8006d5e <_dtoa_r+0x2ae>
 8006c8a:	2b05      	cmp	r3, #5
 8006c8c:	bfc4      	itt	gt
 8006c8e:	3b04      	subgt	r3, #4
 8006c90:	9305      	strgt	r3, [sp, #20]
 8006c92:	9b05      	ldr	r3, [sp, #20]
 8006c94:	f1a3 0302 	sub.w	r3, r3, #2
 8006c98:	bfcc      	ite	gt
 8006c9a:	2500      	movgt	r5, #0
 8006c9c:	2501      	movle	r5, #1
 8006c9e:	2b03      	cmp	r3, #3
 8006ca0:	d869      	bhi.n	8006d76 <_dtoa_r+0x2c6>
 8006ca2:	e8df f003 	tbb	[pc, r3]
 8006ca6:	4e2c      	.short	0x4e2c
 8006ca8:	5a4c      	.short	0x5a4c
 8006caa:	e9dd 5312 	ldrd	r5, r3, [sp, #72]	; 0x48
 8006cae:	441d      	add	r5, r3
 8006cb0:	f205 4332 	addw	r3, r5, #1074	; 0x432
 8006cb4:	2b20      	cmp	r3, #32
 8006cb6:	bfc1      	itttt	gt
 8006cb8:	f1c3 0340 	rsbgt	r3, r3, #64	; 0x40
 8006cbc:	f205 4012 	addwgt	r0, r5, #1042	; 0x412
 8006cc0:	fa09 f303 	lslgt.w	r3, r9, r3
 8006cc4:	fa26 f000 	lsrgt.w	r0, r6, r0
 8006cc8:	bfda      	itte	le
 8006cca:	f1c3 0320 	rsble	r3, r3, #32
 8006cce:	fa06 f003 	lslle.w	r0, r6, r3
 8006cd2:	4318      	orrgt	r0, r3
 8006cd4:	f7f9 fc26 	bl	8000524 <__aeabi_ui2d>
 8006cd8:	2301      	movs	r3, #1
 8006cda:	4606      	mov	r6, r0
 8006cdc:	f1a1 77f8 	sub.w	r7, r1, #32505856	; 0x1f00000
 8006ce0:	3d01      	subs	r5, #1
 8006ce2:	9310      	str	r3, [sp, #64]	; 0x40
 8006ce4:	e771      	b.n	8006bca <_dtoa_r+0x11a>
 8006ce6:	2301      	movs	r3, #1
 8006ce8:	e7b6      	b.n	8006c58 <_dtoa_r+0x1a8>
 8006cea:	900e      	str	r0, [sp, #56]	; 0x38
 8006cec:	e7b5      	b.n	8006c5a <_dtoa_r+0x1aa>
 8006cee:	f1ca 0300 	rsb	r3, sl, #0
 8006cf2:	9306      	str	r3, [sp, #24]
 8006cf4:	2300      	movs	r3, #0
 8006cf6:	eba8 080a 	sub.w	r8, r8, sl
 8006cfa:	930d      	str	r3, [sp, #52]	; 0x34
 8006cfc:	e7c2      	b.n	8006c84 <_dtoa_r+0x1d4>
 8006cfe:	2300      	movs	r3, #0
 8006d00:	9308      	str	r3, [sp, #32]
 8006d02:	9b09      	ldr	r3, [sp, #36]	; 0x24
 8006d04:	2b00      	cmp	r3, #0
 8006d06:	dc39      	bgt.n	8006d7c <_dtoa_r+0x2cc>
 8006d08:	f04f 0901 	mov.w	r9, #1
 8006d0c:	f8cd 9004 	str.w	r9, [sp, #4]
 8006d10:	464b      	mov	r3, r9
 8006d12:	f8cd 9024 	str.w	r9, [sp, #36]	; 0x24
 8006d16:	6a60      	ldr	r0, [r4, #36]	; 0x24
 8006d18:	2200      	movs	r2, #0
 8006d1a:	6042      	str	r2, [r0, #4]
 8006d1c:	2204      	movs	r2, #4
 8006d1e:	f102 0614 	add.w	r6, r2, #20
 8006d22:	429e      	cmp	r6, r3
 8006d24:	6841      	ldr	r1, [r0, #4]
 8006d26:	d92f      	bls.n	8006d88 <_dtoa_r+0x2d8>
 8006d28:	4620      	mov	r0, r4
 8006d2a:	f000 fed9 	bl	8007ae0 <_Balloc>
 8006d2e:	9000      	str	r0, [sp, #0]
 8006d30:	2800      	cmp	r0, #0
 8006d32:	d14b      	bne.n	8006dcc <_dtoa_r+0x31c>
 8006d34:	4b24      	ldr	r3, [pc, #144]	; (8006dc8 <_dtoa_r+0x318>)
 8006d36:	4602      	mov	r2, r0
 8006d38:	f44f 71d5 	mov.w	r1, #426	; 0x1aa
 8006d3c:	e6d1      	b.n	8006ae2 <_dtoa_r+0x32>
 8006d3e:	2301      	movs	r3, #1
 8006d40:	e7de      	b.n	8006d00 <_dtoa_r+0x250>
 8006d42:	2300      	movs	r3, #0
 8006d44:	9308      	str	r3, [sp, #32]
 8006d46:	9b09      	ldr	r3, [sp, #36]	; 0x24
 8006d48:	eb0a 0903 	add.w	r9, sl, r3
 8006d4c:	f109 0301 	add.w	r3, r9, #1
 8006d50:	2b01      	cmp	r3, #1
 8006d52:	9301      	str	r3, [sp, #4]
 8006d54:	bfb8      	it	lt
 8006d56:	2301      	movlt	r3, #1
 8006d58:	e7dd      	b.n	8006d16 <_dtoa_r+0x266>
 8006d5a:	2301      	movs	r3, #1
 8006d5c:	e7f2      	b.n	8006d44 <_dtoa_r+0x294>
 8006d5e:	2501      	movs	r5, #1
 8006d60:	2300      	movs	r3, #0
 8006d62:	9305      	str	r3, [sp, #20]
 8006d64:	9508      	str	r5, [sp, #32]
 8006d66:	f04f 39ff 	mov.w	r9, #4294967295
 8006d6a:	2200      	movs	r2, #0
 8006d6c:	f8cd 9004 	str.w	r9, [sp, #4]
 8006d70:	2312      	movs	r3, #18
 8006d72:	9209      	str	r2, [sp, #36]	; 0x24
 8006d74:	e7cf      	b.n	8006d16 <_dtoa_r+0x266>
 8006d76:	2301      	movs	r3, #1
 8006d78:	9308      	str	r3, [sp, #32]
 8006d7a:	e7f4      	b.n	8006d66 <_dtoa_r+0x2b6>
 8006d7c:	f8dd 9024 	ldr.w	r9, [sp, #36]	; 0x24
 8006d80:	f8cd 9004 	str.w	r9, [sp, #4]
 8006d84:	464b      	mov	r3, r9
 8006d86:	e7c6      	b.n	8006d16 <_dtoa_r+0x266>
 8006d88:	3101      	adds	r1, #1
 8006d8a:	6041      	str	r1, [r0, #4]
 8006d8c:	0052      	lsls	r2, r2, #1
 8006d8e:	e7c6      	b.n	8006d1e <_dtoa_r+0x26e>
 8006d90:	636f4361 	.word	0x636f4361
 8006d94:	3fd287a7 	.word	0x3fd287a7
 8006d98:	8b60c8b3 	.word	0x8b60c8b3
 8006d9c:	3fc68a28 	.word	0x3fc68a28
 8006da0:	509f79fb 	.word	0x509f79fb
 8006da4:	3fd34413 	.word	0x3fd34413
 8006da8:	0800a3f8 	.word	0x0800a3f8
 8006dac:	0800a40f 	.word	0x0800a40f
 8006db0:	7ff00000 	.word	0x7ff00000
 8006db4:	0800a022 	.word	0x0800a022
 8006db8:	0800a3ef 	.word	0x0800a3ef
 8006dbc:	08009206 	.word	0x08009206
 8006dc0:	3ff80000 	.word	0x3ff80000
 8006dc4:	0800a568 	.word	0x0800a568
 8006dc8:	0800a46e 	.word	0x0800a46e
 8006dcc:	6a63      	ldr	r3, [r4, #36]	; 0x24
 8006dce:	9a00      	ldr	r2, [sp, #0]
 8006dd0:	601a      	str	r2, [r3, #0]
 8006dd2:	9b01      	ldr	r3, [sp, #4]
 8006dd4:	2b0e      	cmp	r3, #14
 8006dd6:	f200 80ad 	bhi.w	8006f34 <_dtoa_r+0x484>
 8006dda:	2d00      	cmp	r5, #0
 8006ddc:	f000 80aa 	beq.w	8006f34 <_dtoa_r+0x484>
 8006de0:	f1ba 0f00 	cmp.w	sl, #0
 8006de4:	dd36      	ble.n	8006e54 <_dtoa_r+0x3a4>
 8006de6:	4ac3      	ldr	r2, [pc, #780]	; (80070f4 <_dtoa_r+0x644>)
 8006de8:	f00a 030f 	and.w	r3, sl, #15
 8006dec:	eb02 03c3 	add.w	r3, r2, r3, lsl #3
 8006df0:	ed93 7b00 	vldr	d7, [r3]
 8006df4:	f41a 7f80 	tst.w	sl, #256	; 0x100
 8006df8:	ea4f 172a 	mov.w	r7, sl, asr #4
 8006dfc:	eeb0 8a47 	vmov.f32	s16, s14
 8006e00:	eef0 8a67 	vmov.f32	s17, s15
 8006e04:	d016      	beq.n	8006e34 <_dtoa_r+0x384>
 8006e06:	4bbc      	ldr	r3, [pc, #752]	; (80070f8 <_dtoa_r+0x648>)
 8006e08:	e9dd 010a 	ldrd	r0, r1, [sp, #40]	; 0x28
 8006e0c:	e9d3 2308 	ldrd	r2, r3, [r3, #32]
 8006e10:	f7f9 fd2c 	bl	800086c <__aeabi_ddiv>
 8006e14:	e9cd 0102 	strd	r0, r1, [sp, #8]
 8006e18:	f007 070f 	and.w	r7, r7, #15
 8006e1c:	2503      	movs	r5, #3
 8006e1e:	4eb6      	ldr	r6, [pc, #728]	; (80070f8 <_dtoa_r+0x648>)
 8006e20:	b957      	cbnz	r7, 8006e38 <_dtoa_r+0x388>
 8006e22:	e9dd 0102 	ldrd	r0, r1, [sp, #8]
 8006e26:	ec53 2b18 	vmov	r2, r3, d8
 8006e2a:	f7f9 fd1f 	bl	800086c <__aeabi_ddiv>
 8006e2e:	e9cd 0102 	strd	r0, r1, [sp, #8]
 8006e32:	e029      	b.n	8006e88 <_dtoa_r+0x3d8>
 8006e34:	2502      	movs	r5, #2
 8006e36:	e7f2      	b.n	8006e1e <_dtoa_r+0x36e>
 8006e38:	07f9      	lsls	r1, r7, #31
 8006e3a:	d508      	bpl.n	8006e4e <_dtoa_r+0x39e>
 8006e3c:	ec51 0b18 	vmov	r0, r1, d8
 8006e40:	e9d6 2300 	ldrd	r2, r3, [r6]
 8006e44:	f7f9 fbe8 	bl	8000618 <__aeabi_dmul>
 8006e48:	ec41 0b18 	vmov	d8, r0, r1
 8006e4c:	3501      	adds	r5, #1
 8006e4e:	107f      	asrs	r7, r7, #1
 8006e50:	3608      	adds	r6, #8
 8006e52:	e7e5      	b.n	8006e20 <_dtoa_r+0x370>
 8006e54:	f000 80a6 	beq.w	8006fa4 <_dtoa_r+0x4f4>
 8006e58:	f1ca 0600 	rsb	r6, sl, #0
 8006e5c:	4ba5      	ldr	r3, [pc, #660]	; (80070f4 <_dtoa_r+0x644>)
 8006e5e:	4fa6      	ldr	r7, [pc, #664]	; (80070f8 <_dtoa_r+0x648>)
 8006e60:	f006 020f 	and.w	r2, r6, #15
 8006e64:	eb03 03c2 	add.w	r3, r3, r2, lsl #3
 8006e68:	e9d3 2300 	ldrd	r2, r3, [r3]
 8006e6c:	e9dd 010a 	ldrd	r0, r1, [sp, #40]	; 0x28
 8006e70:	f7f9 fbd2 	bl	8000618 <__aeabi_dmul>
 8006e74:	e9cd 0102 	strd	r0, r1, [sp, #8]
 8006e78:	1136      	asrs	r6, r6, #4
 8006e7a:	2300      	movs	r3, #0
 8006e7c:	2502      	movs	r5, #2
 8006e7e:	2e00      	cmp	r6, #0
 8006e80:	f040 8085 	bne.w	8006f8e <_dtoa_r+0x4de>
 8006e84:	2b00      	cmp	r3, #0
 8006e86:	d1d2      	bne.n	8006e2e <_dtoa_r+0x37e>
 8006e88:	9b0e      	ldr	r3, [sp, #56]	; 0x38
 8006e8a:	2b00      	cmp	r3, #0
 8006e8c:	f000 808c 	beq.w	8006fa8 <_dtoa_r+0x4f8>
 8006e90:	e9dd 6702 	ldrd	r6, r7, [sp, #8]
 8006e94:	4b99      	ldr	r3, [pc, #612]	; (80070fc <_dtoa_r+0x64c>)
 8006e96:	2200      	movs	r2, #0
 8006e98:	4630      	mov	r0, r6
 8006e9a:	4639      	mov	r1, r7
 8006e9c:	f7f9 fe2e 	bl	8000afc <__aeabi_dcmplt>
 8006ea0:	2800      	cmp	r0, #0
 8006ea2:	f000 8081 	beq.w	8006fa8 <_dtoa_r+0x4f8>
 8006ea6:	9b01      	ldr	r3, [sp, #4]
 8006ea8:	2b00      	cmp	r3, #0
 8006eaa:	d07d      	beq.n	8006fa8 <_dtoa_r+0x4f8>
 8006eac:	f1b9 0f00 	cmp.w	r9, #0
 8006eb0:	dd3c      	ble.n	8006f2c <_dtoa_r+0x47c>
 8006eb2:	f10a 33ff 	add.w	r3, sl, #4294967295
 8006eb6:	9307      	str	r3, [sp, #28]
 8006eb8:	2200      	movs	r2, #0
 8006eba:	4b91      	ldr	r3, [pc, #580]	; (8007100 <_dtoa_r+0x650>)
 8006ebc:	4630      	mov	r0, r6
 8006ebe:	4639      	mov	r1, r7
 8006ec0:	f7f9 fbaa 	bl	8000618 <__aeabi_dmul>
 8006ec4:	e9cd 0102 	strd	r0, r1, [sp, #8]
 8006ec8:	3501      	adds	r5, #1
 8006eca:	f8cd 9030 	str.w	r9, [sp, #48]	; 0x30
 8006ece:	e9dd 6702 	ldrd	r6, r7, [sp, #8]
 8006ed2:	4628      	mov	r0, r5
 8006ed4:	f7f9 fb36 	bl	8000544 <__aeabi_i2d>
 8006ed8:	4632      	mov	r2, r6
 8006eda:	463b      	mov	r3, r7
 8006edc:	f7f9 fb9c 	bl	8000618 <__aeabi_dmul>
 8006ee0:	4b88      	ldr	r3, [pc, #544]	; (8007104 <_dtoa_r+0x654>)
 8006ee2:	2200      	movs	r2, #0
 8006ee4:	f7f9 f9e2 	bl	80002ac <__adddf3>
 8006ee8:	f1a1 7350 	sub.w	r3, r1, #54525952	; 0x3400000
 8006eec:	e9cd 0102 	strd	r0, r1, [sp, #8]
 8006ef0:	9303      	str	r3, [sp, #12]
 8006ef2:	9b0c      	ldr	r3, [sp, #48]	; 0x30
 8006ef4:	2b00      	cmp	r3, #0
 8006ef6:	d15c      	bne.n	8006fb2 <_dtoa_r+0x502>
 8006ef8:	4b83      	ldr	r3, [pc, #524]	; (8007108 <_dtoa_r+0x658>)
 8006efa:	2200      	movs	r2, #0
 8006efc:	4630      	mov	r0, r6
 8006efe:	4639      	mov	r1, r7
 8006f00:	f7f9 f9d2 	bl	80002a8 <__aeabi_dsub>
 8006f04:	e9dd 2302 	ldrd	r2, r3, [sp, #8]
 8006f08:	4606      	mov	r6, r0
 8006f0a:	460f      	mov	r7, r1
 8006f0c:	f7f9 fe14 	bl	8000b38 <__aeabi_dcmpgt>
 8006f10:	2800      	cmp	r0, #0
 8006f12:	f040 8296 	bne.w	8007442 <_dtoa_r+0x992>
 8006f16:	e9dd 2102 	ldrd	r2, r1, [sp, #8]
 8006f1a:	4630      	mov	r0, r6
 8006f1c:	f101 4300 	add.w	r3, r1, #2147483648	; 0x80000000
 8006f20:	4639      	mov	r1, r7
 8006f22:	f7f9 fdeb 	bl	8000afc <__aeabi_dcmplt>
 8006f26:	2800      	cmp	r0, #0
 8006f28:	f040 8288 	bne.w	800743c <_dtoa_r+0x98c>
 8006f2c:	e9dd 230a 	ldrd	r2, r3, [sp, #40]	; 0x28
 8006f30:	e9cd 2302 	strd	r2, r3, [sp, #8]
 8006f34:	9b13      	ldr	r3, [sp, #76]	; 0x4c
 8006f36:	2b00      	cmp	r3, #0
 8006f38:	f2c0 8158 	blt.w	80071ec <_dtoa_r+0x73c>
 8006f3c:	f1ba 0f0e 	cmp.w	sl, #14
 8006f40:	f300 8154 	bgt.w	80071ec <_dtoa_r+0x73c>
 8006f44:	4b6b      	ldr	r3, [pc, #428]	; (80070f4 <_dtoa_r+0x644>)
 8006f46:	eb03 03ca 	add.w	r3, r3, sl, lsl #3
 8006f4a:	e9d3 8900 	ldrd	r8, r9, [r3]
 8006f4e:	9b09      	ldr	r3, [sp, #36]	; 0x24
 8006f50:	2b00      	cmp	r3, #0
 8006f52:	f280 80e3 	bge.w	800711c <_dtoa_r+0x66c>
 8006f56:	9b01      	ldr	r3, [sp, #4]
 8006f58:	2b00      	cmp	r3, #0
 8006f5a:	f300 80df 	bgt.w	800711c <_dtoa_r+0x66c>
 8006f5e:	f040 826d 	bne.w	800743c <_dtoa_r+0x98c>
 8006f62:	4b69      	ldr	r3, [pc, #420]	; (8007108 <_dtoa_r+0x658>)
 8006f64:	2200      	movs	r2, #0
 8006f66:	4640      	mov	r0, r8
 8006f68:	4649      	mov	r1, r9
 8006f6a:	f7f9 fb55 	bl	8000618 <__aeabi_dmul>
 8006f6e:	e9dd 2302 	ldrd	r2, r3, [sp, #8]
 8006f72:	f7f9 fdd7 	bl	8000b24 <__aeabi_dcmpge>
 8006f76:	9e01      	ldr	r6, [sp, #4]
 8006f78:	4637      	mov	r7, r6
 8006f7a:	2800      	cmp	r0, #0
 8006f7c:	f040 8243 	bne.w	8007406 <_dtoa_r+0x956>
 8006f80:	9d00      	ldr	r5, [sp, #0]
 8006f82:	2331      	movs	r3, #49	; 0x31
 8006f84:	f805 3b01 	strb.w	r3, [r5], #1
 8006f88:	f10a 0a01 	add.w	sl, sl, #1
 8006f8c:	e23f      	b.n	800740e <_dtoa_r+0x95e>
 8006f8e:	07f2      	lsls	r2, r6, #31
 8006f90:	d505      	bpl.n	8006f9e <_dtoa_r+0x4ee>
 8006f92:	e9d7 2300 	ldrd	r2, r3, [r7]
 8006f96:	f7f9 fb3f 	bl	8000618 <__aeabi_dmul>
 8006f9a:	3501      	adds	r5, #1
 8006f9c:	2301      	movs	r3, #1
 8006f9e:	1076      	asrs	r6, r6, #1
 8006fa0:	3708      	adds	r7, #8
 8006fa2:	e76c      	b.n	8006e7e <_dtoa_r+0x3ce>
 8006fa4:	2502      	movs	r5, #2
 8006fa6:	e76f      	b.n	8006e88 <_dtoa_r+0x3d8>
 8006fa8:	9b01      	ldr	r3, [sp, #4]
 8006faa:	f8cd a01c 	str.w	sl, [sp, #28]
 8006fae:	930c      	str	r3, [sp, #48]	; 0x30
 8006fb0:	e78d      	b.n	8006ece <_dtoa_r+0x41e>
 8006fb2:	9900      	ldr	r1, [sp, #0]
 8006fb4:	980c      	ldr	r0, [sp, #48]	; 0x30
 8006fb6:	9a0c      	ldr	r2, [sp, #48]	; 0x30
 8006fb8:	4b4e      	ldr	r3, [pc, #312]	; (80070f4 <_dtoa_r+0x644>)
 8006fba:	ed9d 7b02 	vldr	d7, [sp, #8]
 8006fbe:	4401      	add	r1, r0
 8006fc0:	9102      	str	r1, [sp, #8]
 8006fc2:	9908      	ldr	r1, [sp, #32]
 8006fc4:	eeb0 8a47 	vmov.f32	s16, s14
 8006fc8:	eef0 8a67 	vmov.f32	s17, s15
 8006fcc:	eb03 03c2 	add.w	r3, r3, r2, lsl #3
 8006fd0:	e953 2302 	ldrd	r2, r3, [r3, #-8]
 8006fd4:	2900      	cmp	r1, #0
 8006fd6:	d045      	beq.n	8007064 <_dtoa_r+0x5b4>
 8006fd8:	494c      	ldr	r1, [pc, #304]	; (800710c <_dtoa_r+0x65c>)
 8006fda:	2000      	movs	r0, #0
 8006fdc:	f7f9 fc46 	bl	800086c <__aeabi_ddiv>
 8006fe0:	ec53 2b18 	vmov	r2, r3, d8
 8006fe4:	f7f9 f960 	bl	80002a8 <__aeabi_dsub>
 8006fe8:	9d00      	ldr	r5, [sp, #0]
 8006fea:	ec41 0b18 	vmov	d8, r0, r1
 8006fee:	4639      	mov	r1, r7
 8006ff0:	4630      	mov	r0, r6
 8006ff2:	f7f9 fdc1 	bl	8000b78 <__aeabi_d2iz>
 8006ff6:	900c      	str	r0, [sp, #48]	; 0x30
 8006ff8:	f7f9 faa4 	bl	8000544 <__aeabi_i2d>
 8006ffc:	4602      	mov	r2, r0
 8006ffe:	460b      	mov	r3, r1
 8007000:	4630      	mov	r0, r6
 8007002:	4639      	mov	r1, r7
 8007004:	f7f9 f950 	bl	80002a8 <__aeabi_dsub>
 8007008:	9b0c      	ldr	r3, [sp, #48]	; 0x30
 800700a:	3330      	adds	r3, #48	; 0x30
 800700c:	f805 3b01 	strb.w	r3, [r5], #1
 8007010:	ec53 2b18 	vmov	r2, r3, d8
 8007014:	4606      	mov	r6, r0
 8007016:	460f      	mov	r7, r1
 8007018:	f7f9 fd70 	bl	8000afc <__aeabi_dcmplt>
 800701c:	2800      	cmp	r0, #0
 800701e:	d165      	bne.n	80070ec <_dtoa_r+0x63c>
 8007020:	4632      	mov	r2, r6
 8007022:	463b      	mov	r3, r7
 8007024:	4935      	ldr	r1, [pc, #212]	; (80070fc <_dtoa_r+0x64c>)
 8007026:	2000      	movs	r0, #0
 8007028:	f7f9 f93e 	bl	80002a8 <__aeabi_dsub>
 800702c:	ec53 2b18 	vmov	r2, r3, d8
 8007030:	f7f9 fd64 	bl	8000afc <__aeabi_dcmplt>
 8007034:	2800      	cmp	r0, #0
 8007036:	f040 80b9 	bne.w	80071ac <_dtoa_r+0x6fc>
 800703a:	9b02      	ldr	r3, [sp, #8]
 800703c:	429d      	cmp	r5, r3
 800703e:	f43f af75 	beq.w	8006f2c <_dtoa_r+0x47c>
 8007042:	4b2f      	ldr	r3, [pc, #188]	; (8007100 <_dtoa_r+0x650>)
 8007044:	ec51 0b18 	vmov	r0, r1, d8
 8007048:	2200      	movs	r2, #0
 800704a:	f7f9 fae5 	bl	8000618 <__aeabi_dmul>
 800704e:	4b2c      	ldr	r3, [pc, #176]	; (8007100 <_dtoa_r+0x650>)
 8007050:	ec41 0b18 	vmov	d8, r0, r1
 8007054:	2200      	movs	r2, #0
 8007056:	4630      	mov	r0, r6
 8007058:	4639      	mov	r1, r7
 800705a:	f7f9 fadd 	bl	8000618 <__aeabi_dmul>
 800705e:	4606      	mov	r6, r0
 8007060:	460f      	mov	r7, r1
 8007062:	e7c4      	b.n	8006fee <_dtoa_r+0x53e>
 8007064:	ec51 0b17 	vmov	r0, r1, d7
 8007068:	f7f9 fad6 	bl	8000618 <__aeabi_dmul>
 800706c:	9b02      	ldr	r3, [sp, #8]
 800706e:	9d00      	ldr	r5, [sp, #0]
 8007070:	930c      	str	r3, [sp, #48]	; 0x30
 8007072:	ec41 0b18 	vmov	d8, r0, r1
 8007076:	4639      	mov	r1, r7
 8007078:	4630      	mov	r0, r6
 800707a:	f7f9 fd7d 	bl	8000b78 <__aeabi_d2iz>
 800707e:	9011      	str	r0, [sp, #68]	; 0x44
 8007080:	f7f9 fa60 	bl	8000544 <__aeabi_i2d>
 8007084:	4602      	mov	r2, r0
 8007086:	460b      	mov	r3, r1
 8007088:	4630      	mov	r0, r6
 800708a:	4639      	mov	r1, r7
 800708c:	f7f9 f90c 	bl	80002a8 <__aeabi_dsub>
 8007090:	9b11      	ldr	r3, [sp, #68]	; 0x44
 8007092:	3330      	adds	r3, #48	; 0x30
 8007094:	f805 3b01 	strb.w	r3, [r5], #1
 8007098:	9b02      	ldr	r3, [sp, #8]
 800709a:	429d      	cmp	r5, r3
 800709c:	4606      	mov	r6, r0
 800709e:	460f      	mov	r7, r1
 80070a0:	f04f 0200 	mov.w	r2, #0
 80070a4:	d134      	bne.n	8007110 <_dtoa_r+0x660>
 80070a6:	4b19      	ldr	r3, [pc, #100]	; (800710c <_dtoa_r+0x65c>)
 80070a8:	ec51 0b18 	vmov	r0, r1, d8
 80070ac:	f7f9 f8fe 	bl	80002ac <__adddf3>
 80070b0:	4602      	mov	r2, r0
 80070b2:	460b      	mov	r3, r1
 80070b4:	4630      	mov	r0, r6
 80070b6:	4639      	mov	r1, r7
 80070b8:	f7f9 fd3e 	bl	8000b38 <__aeabi_dcmpgt>
 80070bc:	2800      	cmp	r0, #0
 80070be:	d175      	bne.n	80071ac <_dtoa_r+0x6fc>
 80070c0:	ec53 2b18 	vmov	r2, r3, d8
 80070c4:	4911      	ldr	r1, [pc, #68]	; (800710c <_dtoa_r+0x65c>)
 80070c6:	2000      	movs	r0, #0
 80070c8:	f7f9 f8ee 	bl	80002a8 <__aeabi_dsub>
 80070cc:	4602      	mov	r2, r0
 80070ce:	460b      	mov	r3, r1
 80070d0:	4630      	mov	r0, r6
 80070d2:	4639      	mov	r1, r7
 80070d4:	f7f9 fd12 	bl	8000afc <__aeabi_dcmplt>
 80070d8:	2800      	cmp	r0, #0
 80070da:	f43f af27 	beq.w	8006f2c <_dtoa_r+0x47c>
 80070de:	9d0c      	ldr	r5, [sp, #48]	; 0x30
 80070e0:	1e6b      	subs	r3, r5, #1
 80070e2:	930c      	str	r3, [sp, #48]	; 0x30
 80070e4:	f815 3c01 	ldrb.w	r3, [r5, #-1]
 80070e8:	2b30      	cmp	r3, #48	; 0x30
 80070ea:	d0f8      	beq.n	80070de <_dtoa_r+0x62e>
 80070ec:	f8dd a01c 	ldr.w	sl, [sp, #28]
 80070f0:	e04a      	b.n	8007188 <_dtoa_r+0x6d8>
 80070f2:	bf00      	nop
 80070f4:	0800a568 	.word	0x0800a568
 80070f8:	0800a540 	.word	0x0800a540
 80070fc:	3ff00000 	.word	0x3ff00000
 8007100:	40240000 	.word	0x40240000
 8007104:	401c0000 	.word	0x401c0000
 8007108:	40140000 	.word	0x40140000
 800710c:	3fe00000 	.word	0x3fe00000
 8007110:	4baf      	ldr	r3, [pc, #700]	; (80073d0 <_dtoa_r+0x920>)
 8007112:	f7f9 fa81 	bl	8000618 <__aeabi_dmul>
 8007116:	4606      	mov	r6, r0
 8007118:	460f      	mov	r7, r1
 800711a:	e7ac      	b.n	8007076 <_dtoa_r+0x5c6>
 800711c:	e9dd 6702 	ldrd	r6, r7, [sp, #8]
 8007120:	9d00      	ldr	r5, [sp, #0]
 8007122:	4642      	mov	r2, r8
 8007124:	464b      	mov	r3, r9
 8007126:	4630      	mov	r0, r6
 8007128:	4639      	mov	r1, r7
 800712a:	f7f9 fb9f 	bl	800086c <__aeabi_ddiv>
 800712e:	f7f9 fd23 	bl	8000b78 <__aeabi_d2iz>
 8007132:	9002      	str	r0, [sp, #8]
 8007134:	f7f9 fa06 	bl	8000544 <__aeabi_i2d>
 8007138:	4642      	mov	r2, r8
 800713a:	464b      	mov	r3, r9
 800713c:	f7f9 fa6c 	bl	8000618 <__aeabi_dmul>
 8007140:	4602      	mov	r2, r0
 8007142:	460b      	mov	r3, r1
 8007144:	4630      	mov	r0, r6
 8007146:	4639      	mov	r1, r7
 8007148:	f7f9 f8ae 	bl	80002a8 <__aeabi_dsub>
 800714c:	9e02      	ldr	r6, [sp, #8]
 800714e:	9f01      	ldr	r7, [sp, #4]
 8007150:	3630      	adds	r6, #48	; 0x30
 8007152:	f805 6b01 	strb.w	r6, [r5], #1
 8007156:	9e00      	ldr	r6, [sp, #0]
 8007158:	1bae      	subs	r6, r5, r6
 800715a:	42b7      	cmp	r7, r6
 800715c:	4602      	mov	r2, r0
 800715e:	460b      	mov	r3, r1
 8007160:	d137      	bne.n	80071d2 <_dtoa_r+0x722>
 8007162:	f7f9 f8a3 	bl	80002ac <__adddf3>
 8007166:	4642      	mov	r2, r8
 8007168:	464b      	mov	r3, r9
 800716a:	4606      	mov	r6, r0
 800716c:	460f      	mov	r7, r1
 800716e:	f7f9 fce3 	bl	8000b38 <__aeabi_dcmpgt>
 8007172:	b9c8      	cbnz	r0, 80071a8 <_dtoa_r+0x6f8>
 8007174:	4642      	mov	r2, r8
 8007176:	464b      	mov	r3, r9
 8007178:	4630      	mov	r0, r6
 800717a:	4639      	mov	r1, r7
 800717c:	f7f9 fcb4 	bl	8000ae8 <__aeabi_dcmpeq>
 8007180:	b110      	cbz	r0, 8007188 <_dtoa_r+0x6d8>
 8007182:	9b02      	ldr	r3, [sp, #8]
 8007184:	07d9      	lsls	r1, r3, #31
 8007186:	d40f      	bmi.n	80071a8 <_dtoa_r+0x6f8>
 8007188:	4620      	mov	r0, r4
 800718a:	4659      	mov	r1, fp
 800718c:	f000 fce8 	bl	8007b60 <_Bfree>
 8007190:	2300      	movs	r3, #0
 8007192:	702b      	strb	r3, [r5, #0]
 8007194:	9b0f      	ldr	r3, [sp, #60]	; 0x3c
 8007196:	f10a 0001 	add.w	r0, sl, #1
 800719a:	6018      	str	r0, [r3, #0]
 800719c:	9b21      	ldr	r3, [sp, #132]	; 0x84
 800719e:	2b00      	cmp	r3, #0
 80071a0:	f43f acd8 	beq.w	8006b54 <_dtoa_r+0xa4>
 80071a4:	601d      	str	r5, [r3, #0]
 80071a6:	e4d5      	b.n	8006b54 <_dtoa_r+0xa4>
 80071a8:	f8cd a01c 	str.w	sl, [sp, #28]
 80071ac:	462b      	mov	r3, r5
 80071ae:	461d      	mov	r5, r3
 80071b0:	f813 2d01 	ldrb.w	r2, [r3, #-1]!
 80071b4:	2a39      	cmp	r2, #57	; 0x39
 80071b6:	d108      	bne.n	80071ca <_dtoa_r+0x71a>
 80071b8:	9a00      	ldr	r2, [sp, #0]
 80071ba:	429a      	cmp	r2, r3
 80071bc:	d1f7      	bne.n	80071ae <_dtoa_r+0x6fe>
 80071be:	9a07      	ldr	r2, [sp, #28]
 80071c0:	9900      	ldr	r1, [sp, #0]
 80071c2:	3201      	adds	r2, #1
 80071c4:	9207      	str	r2, [sp, #28]
 80071c6:	2230      	movs	r2, #48	; 0x30
 80071c8:	700a      	strb	r2, [r1, #0]
 80071ca:	781a      	ldrb	r2, [r3, #0]
 80071cc:	3201      	adds	r2, #1
 80071ce:	701a      	strb	r2, [r3, #0]
 80071d0:	e78c      	b.n	80070ec <_dtoa_r+0x63c>
 80071d2:	4b7f      	ldr	r3, [pc, #508]	; (80073d0 <_dtoa_r+0x920>)
 80071d4:	2200      	movs	r2, #0
 80071d6:	f7f9 fa1f 	bl	8000618 <__aeabi_dmul>
 80071da:	2200      	movs	r2, #0
 80071dc:	2300      	movs	r3, #0
 80071de:	4606      	mov	r6, r0
 80071e0:	460f      	mov	r7, r1
 80071e2:	f7f9 fc81 	bl	8000ae8 <__aeabi_dcmpeq>
 80071e6:	2800      	cmp	r0, #0
 80071e8:	d09b      	beq.n	8007122 <_dtoa_r+0x672>
 80071ea:	e7cd      	b.n	8007188 <_dtoa_r+0x6d8>
 80071ec:	9a08      	ldr	r2, [sp, #32]
 80071ee:	2a00      	cmp	r2, #0
 80071f0:	f000 80c4 	beq.w	800737c <_dtoa_r+0x8cc>
 80071f4:	9a05      	ldr	r2, [sp, #20]
 80071f6:	2a01      	cmp	r2, #1
 80071f8:	f300 80a8 	bgt.w	800734c <_dtoa_r+0x89c>
 80071fc:	9a10      	ldr	r2, [sp, #64]	; 0x40
 80071fe:	2a00      	cmp	r2, #0
 8007200:	f000 80a0 	beq.w	8007344 <_dtoa_r+0x894>
 8007204:	f203 4333 	addw	r3, r3, #1075	; 0x433
 8007208:	9e06      	ldr	r6, [sp, #24]
 800720a:	4645      	mov	r5, r8
 800720c:	9a04      	ldr	r2, [sp, #16]
 800720e:	2101      	movs	r1, #1
 8007210:	441a      	add	r2, r3
 8007212:	4620      	mov	r0, r4
 8007214:	4498      	add	r8, r3
 8007216:	9204      	str	r2, [sp, #16]
 8007218:	f000 fd5e 	bl	8007cd8 <__i2b>
 800721c:	4607      	mov	r7, r0
 800721e:	2d00      	cmp	r5, #0
 8007220:	dd0b      	ble.n	800723a <_dtoa_r+0x78a>
 8007222:	9b04      	ldr	r3, [sp, #16]
 8007224:	2b00      	cmp	r3, #0
 8007226:	dd08      	ble.n	800723a <_dtoa_r+0x78a>
 8007228:	42ab      	cmp	r3, r5
 800722a:	9a04      	ldr	r2, [sp, #16]
 800722c:	bfa8      	it	ge
 800722e:	462b      	movge	r3, r5
 8007230:	eba8 0803 	sub.w	r8, r8, r3
 8007234:	1aed      	subs	r5, r5, r3
 8007236:	1ad3      	subs	r3, r2, r3
 8007238:	9304      	str	r3, [sp, #16]
 800723a:	9b06      	ldr	r3, [sp, #24]
 800723c:	b1fb      	cbz	r3, 800727e <_dtoa_r+0x7ce>
 800723e:	9b08      	ldr	r3, [sp, #32]
 8007240:	2b00      	cmp	r3, #0
 8007242:	f000 809f 	beq.w	8007384 <_dtoa_r+0x8d4>
 8007246:	2e00      	cmp	r6, #0
 8007248:	dd11      	ble.n	800726e <_dtoa_r+0x7be>
 800724a:	4639      	mov	r1, r7
 800724c:	4632      	mov	r2, r6
 800724e:	4620      	mov	r0, r4
 8007250:	f000 fdfe 	bl	8007e50 <__pow5mult>
 8007254:	465a      	mov	r2, fp
 8007256:	4601      	mov	r1, r0
 8007258:	4607      	mov	r7, r0
 800725a:	4620      	mov	r0, r4
 800725c:	f000 fd52 	bl	8007d04 <__multiply>
 8007260:	4659      	mov	r1, fp
 8007262:	9007      	str	r0, [sp, #28]
 8007264:	4620      	mov	r0, r4
 8007266:	f000 fc7b 	bl	8007b60 <_Bfree>
 800726a:	9b07      	ldr	r3, [sp, #28]
 800726c:	469b      	mov	fp, r3
 800726e:	9b06      	ldr	r3, [sp, #24]
 8007270:	1b9a      	subs	r2, r3, r6
 8007272:	d004      	beq.n	800727e <_dtoa_r+0x7ce>
 8007274:	4659      	mov	r1, fp
 8007276:	4620      	mov	r0, r4
 8007278:	f000 fdea 	bl	8007e50 <__pow5mult>
 800727c:	4683      	mov	fp, r0
 800727e:	2101      	movs	r1, #1
 8007280:	4620      	mov	r0, r4
 8007282:	f000 fd29 	bl	8007cd8 <__i2b>
 8007286:	9b0d      	ldr	r3, [sp, #52]	; 0x34
 8007288:	2b00      	cmp	r3, #0
 800728a:	4606      	mov	r6, r0
 800728c:	dd7c      	ble.n	8007388 <_dtoa_r+0x8d8>
 800728e:	461a      	mov	r2, r3
 8007290:	4601      	mov	r1, r0
 8007292:	4620      	mov	r0, r4
 8007294:	f000 fddc 	bl	8007e50 <__pow5mult>
 8007298:	9b05      	ldr	r3, [sp, #20]
 800729a:	2b01      	cmp	r3, #1
 800729c:	4606      	mov	r6, r0
 800729e:	dd76      	ble.n	800738e <_dtoa_r+0x8de>
 80072a0:	2300      	movs	r3, #0
 80072a2:	9306      	str	r3, [sp, #24]
 80072a4:	6933      	ldr	r3, [r6, #16]
 80072a6:	eb06 0383 	add.w	r3, r6, r3, lsl #2
 80072aa:	6918      	ldr	r0, [r3, #16]
 80072ac:	f000 fcc4 	bl	8007c38 <__hi0bits>
 80072b0:	f1c0 0020 	rsb	r0, r0, #32
 80072b4:	9b04      	ldr	r3, [sp, #16]
 80072b6:	4418      	add	r0, r3
 80072b8:	f010 001f 	ands.w	r0, r0, #31
 80072bc:	f000 8086 	beq.w	80073cc <_dtoa_r+0x91c>
 80072c0:	f1c0 0320 	rsb	r3, r0, #32
 80072c4:	2b04      	cmp	r3, #4
 80072c6:	dd7f      	ble.n	80073c8 <_dtoa_r+0x918>
 80072c8:	f1c0 001c 	rsb	r0, r0, #28
 80072cc:	9b04      	ldr	r3, [sp, #16]
 80072ce:	4403      	add	r3, r0
 80072d0:	4480      	add	r8, r0
 80072d2:	4405      	add	r5, r0
 80072d4:	9304      	str	r3, [sp, #16]
 80072d6:	f1b8 0f00 	cmp.w	r8, #0
 80072da:	dd05      	ble.n	80072e8 <_dtoa_r+0x838>
 80072dc:	4659      	mov	r1, fp
 80072de:	4642      	mov	r2, r8
 80072e0:	4620      	mov	r0, r4
 80072e2:	f000 fe0f 	bl	8007f04 <__lshift>
 80072e6:	4683      	mov	fp, r0
 80072e8:	9b04      	ldr	r3, [sp, #16]
 80072ea:	2b00      	cmp	r3, #0
 80072ec:	dd05      	ble.n	80072fa <_dtoa_r+0x84a>
 80072ee:	4631      	mov	r1, r6
 80072f0:	461a      	mov	r2, r3
 80072f2:	4620      	mov	r0, r4
 80072f4:	f000 fe06 	bl	8007f04 <__lshift>
 80072f8:	4606      	mov	r6, r0
 80072fa:	9b0e      	ldr	r3, [sp, #56]	; 0x38
 80072fc:	2b00      	cmp	r3, #0
 80072fe:	d069      	beq.n	80073d4 <_dtoa_r+0x924>
 8007300:	4631      	mov	r1, r6
 8007302:	4658      	mov	r0, fp
 8007304:	f000 fe6a 	bl	8007fdc <__mcmp>
 8007308:	2800      	cmp	r0, #0
 800730a:	da63      	bge.n	80073d4 <_dtoa_r+0x924>
 800730c:	2300      	movs	r3, #0
 800730e:	4659      	mov	r1, fp
 8007310:	220a      	movs	r2, #10
 8007312:	4620      	mov	r0, r4
 8007314:	f000 fc46 	bl	8007ba4 <__multadd>
 8007318:	9b08      	ldr	r3, [sp, #32]
 800731a:	f10a 3aff 	add.w	sl, sl, #4294967295
 800731e:	4683      	mov	fp, r0
 8007320:	2b00      	cmp	r3, #0
 8007322:	f000 818f 	beq.w	8007644 <_dtoa_r+0xb94>
 8007326:	4639      	mov	r1, r7
 8007328:	2300      	movs	r3, #0
 800732a:	220a      	movs	r2, #10
 800732c:	4620      	mov	r0, r4
 800732e:	f000 fc39 	bl	8007ba4 <__multadd>
 8007332:	f1b9 0f00 	cmp.w	r9, #0
 8007336:	4607      	mov	r7, r0
 8007338:	f300 808e 	bgt.w	8007458 <_dtoa_r+0x9a8>
 800733c:	9b05      	ldr	r3, [sp, #20]
 800733e:	2b02      	cmp	r3, #2
 8007340:	dc50      	bgt.n	80073e4 <_dtoa_r+0x934>
 8007342:	e089      	b.n	8007458 <_dtoa_r+0x9a8>
 8007344:	9b12      	ldr	r3, [sp, #72]	; 0x48
 8007346:	f1c3 0336 	rsb	r3, r3, #54	; 0x36
 800734a:	e75d      	b.n	8007208 <_dtoa_r+0x758>
 800734c:	9b01      	ldr	r3, [sp, #4]
 800734e:	1e5e      	subs	r6, r3, #1
 8007350:	9b06      	ldr	r3, [sp, #24]
 8007352:	42b3      	cmp	r3, r6
 8007354:	bfbf      	itttt	lt
 8007356:	9b06      	ldrlt	r3, [sp, #24]
 8007358:	9606      	strlt	r6, [sp, #24]
 800735a:	1af2      	sublt	r2, r6, r3
 800735c:	9b0d      	ldrlt	r3, [sp, #52]	; 0x34
 800735e:	bfb6      	itet	lt
 8007360:	189b      	addlt	r3, r3, r2
 8007362:	1b9e      	subge	r6, r3, r6
 8007364:	930d      	strlt	r3, [sp, #52]	; 0x34
 8007366:	9b01      	ldr	r3, [sp, #4]
 8007368:	bfb8      	it	lt
 800736a:	2600      	movlt	r6, #0
 800736c:	2b00      	cmp	r3, #0
 800736e:	bfb5      	itete	lt
 8007370:	eba8 0503 	sublt.w	r5, r8, r3
 8007374:	9b01      	ldrge	r3, [sp, #4]
 8007376:	2300      	movlt	r3, #0
 8007378:	4645      	movge	r5, r8
 800737a:	e747      	b.n	800720c <_dtoa_r+0x75c>
 800737c:	9e06      	ldr	r6, [sp, #24]
 800737e:	9f08      	ldr	r7, [sp, #32]
 8007380:	4645      	mov	r5, r8
 8007382:	e74c      	b.n	800721e <_dtoa_r+0x76e>
 8007384:	9a06      	ldr	r2, [sp, #24]
 8007386:	e775      	b.n	8007274 <_dtoa_r+0x7c4>
 8007388:	9b05      	ldr	r3, [sp, #20]
 800738a:	2b01      	cmp	r3, #1
 800738c:	dc18      	bgt.n	80073c0 <_dtoa_r+0x910>
 800738e:	9b02      	ldr	r3, [sp, #8]
 8007390:	b9b3      	cbnz	r3, 80073c0 <_dtoa_r+0x910>
 8007392:	9b03      	ldr	r3, [sp, #12]
 8007394:	f3c3 0313 	ubfx	r3, r3, #0, #20
 8007398:	b9a3      	cbnz	r3, 80073c4 <_dtoa_r+0x914>
 800739a:	9b03      	ldr	r3, [sp, #12]
 800739c:	f023 4300 	bic.w	r3, r3, #2147483648	; 0x80000000
 80073a0:	0d1b      	lsrs	r3, r3, #20
 80073a2:	051b      	lsls	r3, r3, #20
 80073a4:	b12b      	cbz	r3, 80073b2 <_dtoa_r+0x902>
 80073a6:	9b04      	ldr	r3, [sp, #16]
 80073a8:	3301      	adds	r3, #1
 80073aa:	9304      	str	r3, [sp, #16]
 80073ac:	f108 0801 	add.w	r8, r8, #1
 80073b0:	2301      	movs	r3, #1
 80073b2:	9306      	str	r3, [sp, #24]
 80073b4:	9b0d      	ldr	r3, [sp, #52]	; 0x34
 80073b6:	2b00      	cmp	r3, #0
 80073b8:	f47f af74 	bne.w	80072a4 <_dtoa_r+0x7f4>
 80073bc:	2001      	movs	r0, #1
 80073be:	e779      	b.n	80072b4 <_dtoa_r+0x804>
 80073c0:	2300      	movs	r3, #0
 80073c2:	e7f6      	b.n	80073b2 <_dtoa_r+0x902>
 80073c4:	9b02      	ldr	r3, [sp, #8]
 80073c6:	e7f4      	b.n	80073b2 <_dtoa_r+0x902>
 80073c8:	d085      	beq.n	80072d6 <_dtoa_r+0x826>
 80073ca:	4618      	mov	r0, r3
 80073cc:	301c      	adds	r0, #28
 80073ce:	e77d      	b.n	80072cc <_dtoa_r+0x81c>
 80073d0:	40240000 	.word	0x40240000
 80073d4:	9b01      	ldr	r3, [sp, #4]
 80073d6:	2b00      	cmp	r3, #0
 80073d8:	dc38      	bgt.n	800744c <_dtoa_r+0x99c>
 80073da:	9b05      	ldr	r3, [sp, #20]
 80073dc:	2b02      	cmp	r3, #2
 80073de:	dd35      	ble.n	800744c <_dtoa_r+0x99c>
 80073e0:	f8dd 9004 	ldr.w	r9, [sp, #4]
 80073e4:	f1b9 0f00 	cmp.w	r9, #0
 80073e8:	d10d      	bne.n	8007406 <_dtoa_r+0x956>
 80073ea:	4631      	mov	r1, r6
 80073ec:	464b      	mov	r3, r9
 80073ee:	2205      	movs	r2, #5
 80073f0:	4620      	mov	r0, r4
 80073f2:	f000 fbd7 	bl	8007ba4 <__multadd>
 80073f6:	4601      	mov	r1, r0
 80073f8:	4606      	mov	r6, r0
 80073fa:	4658      	mov	r0, fp
 80073fc:	f000 fdee 	bl	8007fdc <__mcmp>
 8007400:	2800      	cmp	r0, #0
 8007402:	f73f adbd 	bgt.w	8006f80 <_dtoa_r+0x4d0>
 8007406:	9b09      	ldr	r3, [sp, #36]	; 0x24
 8007408:	9d00      	ldr	r5, [sp, #0]
 800740a:	ea6f 0a03 	mvn.w	sl, r3
 800740e:	f04f 0800 	mov.w	r8, #0
 8007412:	4631      	mov	r1, r6
 8007414:	4620      	mov	r0, r4
 8007416:	f000 fba3 	bl	8007b60 <_Bfree>
 800741a:	2f00      	cmp	r7, #0
 800741c:	f43f aeb4 	beq.w	8007188 <_dtoa_r+0x6d8>
 8007420:	f1b8 0f00 	cmp.w	r8, #0
 8007424:	d005      	beq.n	8007432 <_dtoa_r+0x982>
 8007426:	45b8      	cmp	r8, r7
 8007428:	d003      	beq.n	8007432 <_dtoa_r+0x982>
 800742a:	4641      	mov	r1, r8
 800742c:	4620      	mov	r0, r4
 800742e:	f000 fb97 	bl	8007b60 <_Bfree>
 8007432:	4639      	mov	r1, r7
 8007434:	4620      	mov	r0, r4
 8007436:	f000 fb93 	bl	8007b60 <_Bfree>
 800743a:	e6a5      	b.n	8007188 <_dtoa_r+0x6d8>
 800743c:	2600      	movs	r6, #0
 800743e:	4637      	mov	r7, r6
 8007440:	e7e1      	b.n	8007406 <_dtoa_r+0x956>
 8007442:	9e0c      	ldr	r6, [sp, #48]	; 0x30
 8007444:	f8dd a01c 	ldr.w	sl, [sp, #28]
 8007448:	4637      	mov	r7, r6
 800744a:	e599      	b.n	8006f80 <_dtoa_r+0x4d0>
 800744c:	9b08      	ldr	r3, [sp, #32]
 800744e:	f8dd 9004 	ldr.w	r9, [sp, #4]
 8007452:	2b00      	cmp	r3, #0
 8007454:	f000 80fd 	beq.w	8007652 <_dtoa_r+0xba2>
 8007458:	2d00      	cmp	r5, #0
 800745a:	dd05      	ble.n	8007468 <_dtoa_r+0x9b8>
 800745c:	4639      	mov	r1, r7
 800745e:	462a      	mov	r2, r5
 8007460:	4620      	mov	r0, r4
 8007462:	f000 fd4f 	bl	8007f04 <__lshift>
 8007466:	4607      	mov	r7, r0
 8007468:	9b06      	ldr	r3, [sp, #24]
 800746a:	2b00      	cmp	r3, #0
 800746c:	d05c      	beq.n	8007528 <_dtoa_r+0xa78>
 800746e:	6879      	ldr	r1, [r7, #4]
 8007470:	4620      	mov	r0, r4
 8007472:	f000 fb35 	bl	8007ae0 <_Balloc>
 8007476:	4605      	mov	r5, r0
 8007478:	b928      	cbnz	r0, 8007486 <_dtoa_r+0x9d6>
 800747a:	4b80      	ldr	r3, [pc, #512]	; (800767c <_dtoa_r+0xbcc>)
 800747c:	4602      	mov	r2, r0
 800747e:	f240 21ea 	movw	r1, #746	; 0x2ea
 8007482:	f7ff bb2e 	b.w	8006ae2 <_dtoa_r+0x32>
 8007486:	693a      	ldr	r2, [r7, #16]
 8007488:	3202      	adds	r2, #2
 800748a:	0092      	lsls	r2, r2, #2
 800748c:	f107 010c 	add.w	r1, r7, #12
 8007490:	300c      	adds	r0, #12
 8007492:	f7fe fa39 	bl	8005908 <memcpy>
 8007496:	2201      	movs	r2, #1
 8007498:	4629      	mov	r1, r5
 800749a:	4620      	mov	r0, r4
 800749c:	f000 fd32 	bl	8007f04 <__lshift>
 80074a0:	9b00      	ldr	r3, [sp, #0]
 80074a2:	3301      	adds	r3, #1
 80074a4:	9301      	str	r3, [sp, #4]
 80074a6:	9b00      	ldr	r3, [sp, #0]
 80074a8:	444b      	add	r3, r9
 80074aa:	9307      	str	r3, [sp, #28]
 80074ac:	9b02      	ldr	r3, [sp, #8]
 80074ae:	f003 0301 	and.w	r3, r3, #1
 80074b2:	46b8      	mov	r8, r7
 80074b4:	9306      	str	r3, [sp, #24]
 80074b6:	4607      	mov	r7, r0
 80074b8:	9b01      	ldr	r3, [sp, #4]
 80074ba:	4631      	mov	r1, r6
 80074bc:	3b01      	subs	r3, #1
 80074be:	4658      	mov	r0, fp
 80074c0:	9302      	str	r3, [sp, #8]
 80074c2:	f7ff fa67 	bl	8006994 <quorem>
 80074c6:	4603      	mov	r3, r0
 80074c8:	3330      	adds	r3, #48	; 0x30
 80074ca:	9004      	str	r0, [sp, #16]
 80074cc:	4641      	mov	r1, r8
 80074ce:	4658      	mov	r0, fp
 80074d0:	9308      	str	r3, [sp, #32]
 80074d2:	f000 fd83 	bl	8007fdc <__mcmp>
 80074d6:	463a      	mov	r2, r7
 80074d8:	4681      	mov	r9, r0
 80074da:	4631      	mov	r1, r6
 80074dc:	4620      	mov	r0, r4
 80074de:	f000 fd99 	bl	8008014 <__mdiff>
 80074e2:	68c2      	ldr	r2, [r0, #12]
 80074e4:	9b08      	ldr	r3, [sp, #32]
 80074e6:	4605      	mov	r5, r0
 80074e8:	bb02      	cbnz	r2, 800752c <_dtoa_r+0xa7c>
 80074ea:	4601      	mov	r1, r0
 80074ec:	4658      	mov	r0, fp
 80074ee:	f000 fd75 	bl	8007fdc <__mcmp>
 80074f2:	9b08      	ldr	r3, [sp, #32]
 80074f4:	4602      	mov	r2, r0
 80074f6:	4629      	mov	r1, r5
 80074f8:	4620      	mov	r0, r4
 80074fa:	e9cd 3208 	strd	r3, r2, [sp, #32]
 80074fe:	f000 fb2f 	bl	8007b60 <_Bfree>
 8007502:	9b05      	ldr	r3, [sp, #20]
 8007504:	9a09      	ldr	r2, [sp, #36]	; 0x24
 8007506:	9d01      	ldr	r5, [sp, #4]
 8007508:	ea43 0102 	orr.w	r1, r3, r2
 800750c:	9b06      	ldr	r3, [sp, #24]
 800750e:	430b      	orrs	r3, r1
 8007510:	9b08      	ldr	r3, [sp, #32]
 8007512:	d10d      	bne.n	8007530 <_dtoa_r+0xa80>
 8007514:	2b39      	cmp	r3, #57	; 0x39
 8007516:	d029      	beq.n	800756c <_dtoa_r+0xabc>
 8007518:	f1b9 0f00 	cmp.w	r9, #0
 800751c:	dd01      	ble.n	8007522 <_dtoa_r+0xa72>
 800751e:	9b04      	ldr	r3, [sp, #16]
 8007520:	3331      	adds	r3, #49	; 0x31
 8007522:	9a02      	ldr	r2, [sp, #8]
 8007524:	7013      	strb	r3, [r2, #0]
 8007526:	e774      	b.n	8007412 <_dtoa_r+0x962>
 8007528:	4638      	mov	r0, r7
 800752a:	e7b9      	b.n	80074a0 <_dtoa_r+0x9f0>
 800752c:	2201      	movs	r2, #1
 800752e:	e7e2      	b.n	80074f6 <_dtoa_r+0xa46>
 8007530:	f1b9 0f00 	cmp.w	r9, #0
 8007534:	db06      	blt.n	8007544 <_dtoa_r+0xa94>
 8007536:	9905      	ldr	r1, [sp, #20]
 8007538:	ea41 0909 	orr.w	r9, r1, r9
 800753c:	9906      	ldr	r1, [sp, #24]
 800753e:	ea59 0101 	orrs.w	r1, r9, r1
 8007542:	d120      	bne.n	8007586 <_dtoa_r+0xad6>
 8007544:	2a00      	cmp	r2, #0
 8007546:	ddec      	ble.n	8007522 <_dtoa_r+0xa72>
 8007548:	4659      	mov	r1, fp
 800754a:	2201      	movs	r2, #1
 800754c:	4620      	mov	r0, r4
 800754e:	9301      	str	r3, [sp, #4]
 8007550:	f000 fcd8 	bl	8007f04 <__lshift>
 8007554:	4631      	mov	r1, r6
 8007556:	4683      	mov	fp, r0
 8007558:	f000 fd40 	bl	8007fdc <__mcmp>
 800755c:	2800      	cmp	r0, #0
 800755e:	9b01      	ldr	r3, [sp, #4]
 8007560:	dc02      	bgt.n	8007568 <_dtoa_r+0xab8>
 8007562:	d1de      	bne.n	8007522 <_dtoa_r+0xa72>
 8007564:	07da      	lsls	r2, r3, #31
 8007566:	d5dc      	bpl.n	8007522 <_dtoa_r+0xa72>
 8007568:	2b39      	cmp	r3, #57	; 0x39
 800756a:	d1d8      	bne.n	800751e <_dtoa_r+0xa6e>
 800756c:	9a02      	ldr	r2, [sp, #8]
 800756e:	2339      	movs	r3, #57	; 0x39
 8007570:	7013      	strb	r3, [r2, #0]
 8007572:	462b      	mov	r3, r5
 8007574:	461d      	mov	r5, r3
 8007576:	3b01      	subs	r3, #1
 8007578:	f815 2c01 	ldrb.w	r2, [r5, #-1]
 800757c:	2a39      	cmp	r2, #57	; 0x39
 800757e:	d050      	beq.n	8007622 <_dtoa_r+0xb72>
 8007580:	3201      	adds	r2, #1
 8007582:	701a      	strb	r2, [r3, #0]
 8007584:	e745      	b.n	8007412 <_dtoa_r+0x962>
 8007586:	2a00      	cmp	r2, #0
 8007588:	dd03      	ble.n	8007592 <_dtoa_r+0xae2>
 800758a:	2b39      	cmp	r3, #57	; 0x39
 800758c:	d0ee      	beq.n	800756c <_dtoa_r+0xabc>
 800758e:	3301      	adds	r3, #1
 8007590:	e7c7      	b.n	8007522 <_dtoa_r+0xa72>
 8007592:	9a01      	ldr	r2, [sp, #4]
 8007594:	9907      	ldr	r1, [sp, #28]
 8007596:	f802 3c01 	strb.w	r3, [r2, #-1]
 800759a:	428a      	cmp	r2, r1
 800759c:	d02a      	beq.n	80075f4 <_dtoa_r+0xb44>
 800759e:	4659      	mov	r1, fp
 80075a0:	2300      	movs	r3, #0
 80075a2:	220a      	movs	r2, #10
 80075a4:	4620      	mov	r0, r4
 80075a6:	f000 fafd 	bl	8007ba4 <__multadd>
 80075aa:	45b8      	cmp	r8, r7
 80075ac:	4683      	mov	fp, r0
 80075ae:	f04f 0300 	mov.w	r3, #0
 80075b2:	f04f 020a 	mov.w	r2, #10
 80075b6:	4641      	mov	r1, r8
 80075b8:	4620      	mov	r0, r4
 80075ba:	d107      	bne.n	80075cc <_dtoa_r+0xb1c>
 80075bc:	f000 faf2 	bl	8007ba4 <__multadd>
 80075c0:	4680      	mov	r8, r0
 80075c2:	4607      	mov	r7, r0
 80075c4:	9b01      	ldr	r3, [sp, #4]
 80075c6:	3301      	adds	r3, #1
 80075c8:	9301      	str	r3, [sp, #4]
 80075ca:	e775      	b.n	80074b8 <_dtoa_r+0xa08>
 80075cc:	f000 faea 	bl	8007ba4 <__multadd>
 80075d0:	4639      	mov	r1, r7
 80075d2:	4680      	mov	r8, r0
 80075d4:	2300      	movs	r3, #0
 80075d6:	220a      	movs	r2, #10
 80075d8:	4620      	mov	r0, r4
 80075da:	f000 fae3 	bl	8007ba4 <__multadd>
 80075de:	4607      	mov	r7, r0
 80075e0:	e7f0      	b.n	80075c4 <_dtoa_r+0xb14>
 80075e2:	f1b9 0f00 	cmp.w	r9, #0
 80075e6:	9a00      	ldr	r2, [sp, #0]
 80075e8:	bfcc      	ite	gt
 80075ea:	464d      	movgt	r5, r9
 80075ec:	2501      	movle	r5, #1
 80075ee:	4415      	add	r5, r2
 80075f0:	f04f 0800 	mov.w	r8, #0
 80075f4:	4659      	mov	r1, fp
 80075f6:	2201      	movs	r2, #1
 80075f8:	4620      	mov	r0, r4
 80075fa:	9301      	str	r3, [sp, #4]
 80075fc:	f000 fc82 	bl	8007f04 <__lshift>
 8007600:	4631      	mov	r1, r6
 8007602:	4683      	mov	fp, r0
 8007604:	f000 fcea 	bl	8007fdc <__mcmp>
 8007608:	2800      	cmp	r0, #0
 800760a:	dcb2      	bgt.n	8007572 <_dtoa_r+0xac2>
 800760c:	d102      	bne.n	8007614 <_dtoa_r+0xb64>
 800760e:	9b01      	ldr	r3, [sp, #4]
 8007610:	07db      	lsls	r3, r3, #31
 8007612:	d4ae      	bmi.n	8007572 <_dtoa_r+0xac2>
 8007614:	462b      	mov	r3, r5
 8007616:	461d      	mov	r5, r3
 8007618:	f813 2d01 	ldrb.w	r2, [r3, #-1]!
 800761c:	2a30      	cmp	r2, #48	; 0x30
 800761e:	d0fa      	beq.n	8007616 <_dtoa_r+0xb66>
 8007620:	e6f7      	b.n	8007412 <_dtoa_r+0x962>
 8007622:	9a00      	ldr	r2, [sp, #0]
 8007624:	429a      	cmp	r2, r3
 8007626:	d1a5      	bne.n	8007574 <_dtoa_r+0xac4>
 8007628:	f10a 0a01 	add.w	sl, sl, #1
 800762c:	2331      	movs	r3, #49	; 0x31
 800762e:	e779      	b.n	8007524 <_dtoa_r+0xa74>
 8007630:	4b13      	ldr	r3, [pc, #76]	; (8007680 <_dtoa_r+0xbd0>)
 8007632:	f7ff baaf 	b.w	8006b94 <_dtoa_r+0xe4>
 8007636:	9b21      	ldr	r3, [sp, #132]	; 0x84
 8007638:	2b00      	cmp	r3, #0
 800763a:	f47f aa86 	bne.w	8006b4a <_dtoa_r+0x9a>
 800763e:	4b11      	ldr	r3, [pc, #68]	; (8007684 <_dtoa_r+0xbd4>)
 8007640:	f7ff baa8 	b.w	8006b94 <_dtoa_r+0xe4>
 8007644:	f1b9 0f00 	cmp.w	r9, #0
 8007648:	dc03      	bgt.n	8007652 <_dtoa_r+0xba2>
 800764a:	9b05      	ldr	r3, [sp, #20]
 800764c:	2b02      	cmp	r3, #2
 800764e:	f73f aec9 	bgt.w	80073e4 <_dtoa_r+0x934>
 8007652:	9d00      	ldr	r5, [sp, #0]
 8007654:	4631      	mov	r1, r6
 8007656:	4658      	mov	r0, fp
 8007658:	f7ff f99c 	bl	8006994 <quorem>
 800765c:	f100 0330 	add.w	r3, r0, #48	; 0x30
 8007660:	f805 3b01 	strb.w	r3, [r5], #1
 8007664:	9a00      	ldr	r2, [sp, #0]
 8007666:	1aaa      	subs	r2, r5, r2
 8007668:	4591      	cmp	r9, r2
 800766a:	ddba      	ble.n	80075e2 <_dtoa_r+0xb32>
 800766c:	4659      	mov	r1, fp
 800766e:	2300      	movs	r3, #0
 8007670:	220a      	movs	r2, #10
 8007672:	4620      	mov	r0, r4
 8007674:	f000 fa96 	bl	8007ba4 <__multadd>
 8007678:	4683      	mov	fp, r0
 800767a:	e7eb      	b.n	8007654 <_dtoa_r+0xba4>
 800767c:	0800a46e 	.word	0x0800a46e
 8007680:	08009205 	.word	0x08009205
 8007684:	0800a3ef 	.word	0x0800a3ef

08007688 <__sflush_r>:
 8007688:	898a      	ldrh	r2, [r1, #12]
 800768a:	e92d 41f0 	stmdb	sp!, {r4, r5, r6, r7, r8, lr}
 800768e:	4605      	mov	r5, r0
 8007690:	0710      	lsls	r0, r2, #28
 8007692:	460c      	mov	r4, r1
 8007694:	d458      	bmi.n	8007748 <__sflush_r+0xc0>
 8007696:	684b      	ldr	r3, [r1, #4]
 8007698:	2b00      	cmp	r3, #0
 800769a:	dc05      	bgt.n	80076a8 <__sflush_r+0x20>
 800769c:	6c0b      	ldr	r3, [r1, #64]	; 0x40
 800769e:	2b00      	cmp	r3, #0
 80076a0:	dc02      	bgt.n	80076a8 <__sflush_r+0x20>
 80076a2:	2000      	movs	r0, #0
 80076a4:	e8bd 81f0 	ldmia.w	sp!, {r4, r5, r6, r7, r8, pc}
 80076a8:	6ae6      	ldr	r6, [r4, #44]	; 0x2c
 80076aa:	2e00      	cmp	r6, #0
 80076ac:	d0f9      	beq.n	80076a2 <__sflush_r+0x1a>
 80076ae:	2300      	movs	r3, #0
 80076b0:	f412 5280 	ands.w	r2, r2, #4096	; 0x1000
 80076b4:	682f      	ldr	r7, [r5, #0]
 80076b6:	602b      	str	r3, [r5, #0]
 80076b8:	d032      	beq.n	8007720 <__sflush_r+0x98>
 80076ba:	6d60      	ldr	r0, [r4, #84]	; 0x54
 80076bc:	89a3      	ldrh	r3, [r4, #12]
 80076be:	075a      	lsls	r2, r3, #29
 80076c0:	d505      	bpl.n	80076ce <__sflush_r+0x46>
 80076c2:	6863      	ldr	r3, [r4, #4]
 80076c4:	1ac0      	subs	r0, r0, r3
 80076c6:	6b63      	ldr	r3, [r4, #52]	; 0x34
 80076c8:	b10b      	cbz	r3, 80076ce <__sflush_r+0x46>
 80076ca:	6c23      	ldr	r3, [r4, #64]	; 0x40
 80076cc:	1ac0      	subs	r0, r0, r3
 80076ce:	2300      	movs	r3, #0
 80076d0:	4602      	mov	r2, r0
 80076d2:	6ae6      	ldr	r6, [r4, #44]	; 0x2c
 80076d4:	6a21      	ldr	r1, [r4, #32]
 80076d6:	4628      	mov	r0, r5
 80076d8:	47b0      	blx	r6
 80076da:	1c43      	adds	r3, r0, #1
 80076dc:	89a3      	ldrh	r3, [r4, #12]
 80076de:	d106      	bne.n	80076ee <__sflush_r+0x66>
 80076e0:	6829      	ldr	r1, [r5, #0]
 80076e2:	291d      	cmp	r1, #29
 80076e4:	d82c      	bhi.n	8007740 <__sflush_r+0xb8>
 80076e6:	4a2a      	ldr	r2, [pc, #168]	; (8007790 <__sflush_r+0x108>)
 80076e8:	40ca      	lsrs	r2, r1
 80076ea:	07d6      	lsls	r6, r2, #31
 80076ec:	d528      	bpl.n	8007740 <__sflush_r+0xb8>
 80076ee:	2200      	movs	r2, #0
 80076f0:	6062      	str	r2, [r4, #4]
 80076f2:	04d9      	lsls	r1, r3, #19
 80076f4:	6922      	ldr	r2, [r4, #16]
 80076f6:	6022      	str	r2, [r4, #0]
 80076f8:	d504      	bpl.n	8007704 <__sflush_r+0x7c>
 80076fa:	1c42      	adds	r2, r0, #1
 80076fc:	d101      	bne.n	8007702 <__sflush_r+0x7a>
 80076fe:	682b      	ldr	r3, [r5, #0]
 8007700:	b903      	cbnz	r3, 8007704 <__sflush_r+0x7c>
 8007702:	6560      	str	r0, [r4, #84]	; 0x54
 8007704:	6b61      	ldr	r1, [r4, #52]	; 0x34
 8007706:	602f      	str	r7, [r5, #0]
 8007708:	2900      	cmp	r1, #0
 800770a:	d0ca      	beq.n	80076a2 <__sflush_r+0x1a>
 800770c:	f104 0344 	add.w	r3, r4, #68	; 0x44
 8007710:	4299      	cmp	r1, r3
 8007712:	d002      	beq.n	800771a <__sflush_r+0x92>
 8007714:	4628      	mov	r0, r5
 8007716:	f7fe f927 	bl	8005968 <_free_r>
 800771a:	2000      	movs	r0, #0
 800771c:	6360      	str	r0, [r4, #52]	; 0x34
 800771e:	e7c1      	b.n	80076a4 <__sflush_r+0x1c>
 8007720:	6a21      	ldr	r1, [r4, #32]
 8007722:	2301      	movs	r3, #1
 8007724:	4628      	mov	r0, r5
 8007726:	47b0      	blx	r6
 8007728:	1c41      	adds	r1, r0, #1
 800772a:	d1c7      	bne.n	80076bc <__sflush_r+0x34>
 800772c:	682b      	ldr	r3, [r5, #0]
 800772e:	2b00      	cmp	r3, #0
 8007730:	d0c4      	beq.n	80076bc <__sflush_r+0x34>
 8007732:	2b1d      	cmp	r3, #29
 8007734:	d001      	beq.n	800773a <__sflush_r+0xb2>
 8007736:	2b16      	cmp	r3, #22
 8007738:	d101      	bne.n	800773e <__sflush_r+0xb6>
 800773a:	602f      	str	r7, [r5, #0]
 800773c:	e7b1      	b.n	80076a2 <__sflush_r+0x1a>
 800773e:	89a3      	ldrh	r3, [r4, #12]
 8007740:	f043 0340 	orr.w	r3, r3, #64	; 0x40
 8007744:	81a3      	strh	r3, [r4, #12]
 8007746:	e7ad      	b.n	80076a4 <__sflush_r+0x1c>
 8007748:	690f      	ldr	r7, [r1, #16]
 800774a:	2f00      	cmp	r7, #0
 800774c:	d0a9      	beq.n	80076a2 <__sflush_r+0x1a>
 800774e:	0793      	lsls	r3, r2, #30
 8007750:	680e      	ldr	r6, [r1, #0]
 8007752:	bf08      	it	eq
 8007754:	694b      	ldreq	r3, [r1, #20]
 8007756:	600f      	str	r7, [r1, #0]
 8007758:	bf18      	it	ne
 800775a:	2300      	movne	r3, #0
 800775c:	eba6 0807 	sub.w	r8, r6, r7
 8007760:	608b      	str	r3, [r1, #8]
 8007762:	f1b8 0f00 	cmp.w	r8, #0
 8007766:	dd9c      	ble.n	80076a2 <__sflush_r+0x1a>
 8007768:	6a21      	ldr	r1, [r4, #32]
 800776a:	6aa6      	ldr	r6, [r4, #40]	; 0x28
 800776c:	4643      	mov	r3, r8
 800776e:	463a      	mov	r2, r7
 8007770:	4628      	mov	r0, r5
 8007772:	47b0      	blx	r6
 8007774:	2800      	cmp	r0, #0
 8007776:	dc06      	bgt.n	8007786 <__sflush_r+0xfe>
 8007778:	89a3      	ldrh	r3, [r4, #12]
 800777a:	f043 0340 	orr.w	r3, r3, #64	; 0x40
 800777e:	81a3      	strh	r3, [r4, #12]
 8007780:	f04f 30ff 	mov.w	r0, #4294967295
 8007784:	e78e      	b.n	80076a4 <__sflush_r+0x1c>
 8007786:	4407      	add	r7, r0
 8007788:	eba8 0800 	sub.w	r8, r8, r0
 800778c:	e7e9      	b.n	8007762 <__sflush_r+0xda>
 800778e:	bf00      	nop
 8007790:	20400001 	.word	0x20400001

08007794 <_fflush_r>:
 8007794:	b538      	push	{r3, r4, r5, lr}
 8007796:	690b      	ldr	r3, [r1, #16]
 8007798:	4605      	mov	r5, r0
 800779a:	460c      	mov	r4, r1
 800779c:	b913      	cbnz	r3, 80077a4 <_fflush_r+0x10>
 800779e:	2500      	movs	r5, #0
 80077a0:	4628      	mov	r0, r5
 80077a2:	bd38      	pop	{r3, r4, r5, pc}
 80077a4:	b118      	cbz	r0, 80077ae <_fflush_r+0x1a>
 80077a6:	6983      	ldr	r3, [r0, #24]
 80077a8:	b90b      	cbnz	r3, 80077ae <_fflush_r+0x1a>
 80077aa:	f000 f887 	bl	80078bc <__sinit>
 80077ae:	4b14      	ldr	r3, [pc, #80]	; (8007800 <_fflush_r+0x6c>)
 80077b0:	429c      	cmp	r4, r3
 80077b2:	d11b      	bne.n	80077ec <_fflush_r+0x58>
 80077b4:	686c      	ldr	r4, [r5, #4]
 80077b6:	f9b4 300c 	ldrsh.w	r3, [r4, #12]
 80077ba:	2b00      	cmp	r3, #0
 80077bc:	d0ef      	beq.n	800779e <_fflush_r+0xa>
 80077be:	6e62      	ldr	r2, [r4, #100]	; 0x64
 80077c0:	07d0      	lsls	r0, r2, #31
 80077c2:	d404      	bmi.n	80077ce <_fflush_r+0x3a>
 80077c4:	0599      	lsls	r1, r3, #22
 80077c6:	d402      	bmi.n	80077ce <_fflush_r+0x3a>
 80077c8:	6da0      	ldr	r0, [r4, #88]	; 0x58
 80077ca:	f7fe f88a 	bl	80058e2 <__retarget_lock_acquire_recursive>
 80077ce:	4628      	mov	r0, r5
 80077d0:	4621      	mov	r1, r4
 80077d2:	f7ff ff59 	bl	8007688 <__sflush_r>
 80077d6:	6e63      	ldr	r3, [r4, #100]	; 0x64
 80077d8:	07da      	lsls	r2, r3, #31
 80077da:	4605      	mov	r5, r0
 80077dc:	d4e0      	bmi.n	80077a0 <_fflush_r+0xc>
 80077de:	89a3      	ldrh	r3, [r4, #12]
 80077e0:	059b      	lsls	r3, r3, #22
 80077e2:	d4dd      	bmi.n	80077a0 <_fflush_r+0xc>
 80077e4:	6da0      	ldr	r0, [r4, #88]	; 0x58
 80077e6:	f7fe f87e 	bl	80058e6 <__retarget_lock_release_recursive>
 80077ea:	e7d9      	b.n	80077a0 <_fflush_r+0xc>
 80077ec:	4b05      	ldr	r3, [pc, #20]	; (8007804 <_fflush_r+0x70>)
 80077ee:	429c      	cmp	r4, r3
 80077f0:	d101      	bne.n	80077f6 <_fflush_r+0x62>
 80077f2:	68ac      	ldr	r4, [r5, #8]
 80077f4:	e7df      	b.n	80077b6 <_fflush_r+0x22>
 80077f6:	4b04      	ldr	r3, [pc, #16]	; (8007808 <_fflush_r+0x74>)
 80077f8:	429c      	cmp	r4, r3
 80077fa:	bf08      	it	eq
 80077fc:	68ec      	ldreq	r4, [r5, #12]
 80077fe:	e7da      	b.n	80077b6 <_fflush_r+0x22>
 8007800:	0800a4a0 	.word	0x0800a4a0
 8007804:	0800a4c0 	.word	0x0800a4c0
 8007808:	0800a480 	.word	0x0800a480

0800780c <std>:
 800780c:	2300      	movs	r3, #0
 800780e:	b510      	push	{r4, lr}
 8007810:	4604      	mov	r4, r0
 8007812:	e9c0 3300 	strd	r3, r3, [r0]
 8007816:	e9c0 3304 	strd	r3, r3, [r0, #16]
 800781a:	6083      	str	r3, [r0, #8]
 800781c:	8181      	strh	r1, [r0, #12]
 800781e:	6643      	str	r3, [r0, #100]	; 0x64
 8007820:	81c2      	strh	r2, [r0, #14]
 8007822:	6183      	str	r3, [r0, #24]
 8007824:	4619      	mov	r1, r3
 8007826:	2208      	movs	r2, #8
 8007828:	305c      	adds	r0, #92	; 0x5c
 800782a:	f7fe f895 	bl	8005958 <memset>
 800782e:	4b05      	ldr	r3, [pc, #20]	; (8007844 <std+0x38>)
 8007830:	6263      	str	r3, [r4, #36]	; 0x24
 8007832:	4b05      	ldr	r3, [pc, #20]	; (8007848 <std+0x3c>)
 8007834:	62a3      	str	r3, [r4, #40]	; 0x28
 8007836:	4b05      	ldr	r3, [pc, #20]	; (800784c <std+0x40>)
 8007838:	62e3      	str	r3, [r4, #44]	; 0x2c
 800783a:	4b05      	ldr	r3, [pc, #20]	; (8007850 <std+0x44>)
 800783c:	6224      	str	r4, [r4, #32]
 800783e:	6323      	str	r3, [r4, #48]	; 0x30
 8007840:	bd10      	pop	{r4, pc}
 8007842:	bf00      	nop
 8007844:	080084fd 	.word	0x080084fd
 8007848:	0800851f 	.word	0x0800851f
 800784c:	08008557 	.word	0x08008557
 8007850:	0800857b 	.word	0x0800857b

08007854 <_cleanup_r>:
 8007854:	4901      	ldr	r1, [pc, #4]	; (800785c <_cleanup_r+0x8>)
 8007856:	f000 b8af 	b.w	80079b8 <_fwalk_reent>
 800785a:	bf00      	nop
 800785c:	08007795 	.word	0x08007795

08007860 <__sfmoreglue>:
 8007860:	b570      	push	{r4, r5, r6, lr}
 8007862:	1e4a      	subs	r2, r1, #1
 8007864:	2568      	movs	r5, #104	; 0x68
 8007866:	4355      	muls	r5, r2
 8007868:	460e      	mov	r6, r1
 800786a:	f105 0174 	add.w	r1, r5, #116	; 0x74
 800786e:	f7fe f8cb 	bl	8005a08 <_malloc_r>
 8007872:	4604      	mov	r4, r0
 8007874:	b140      	cbz	r0, 8007888 <__sfmoreglue+0x28>
 8007876:	2100      	movs	r1, #0
 8007878:	e9c0 1600 	strd	r1, r6, [r0]
 800787c:	300c      	adds	r0, #12
 800787e:	60a0      	str	r0, [r4, #8]
 8007880:	f105 0268 	add.w	r2, r5, #104	; 0x68
 8007884:	f7fe f868 	bl	8005958 <memset>
 8007888:	4620      	mov	r0, r4
 800788a:	bd70      	pop	{r4, r5, r6, pc}

0800788c <__sfp_lock_acquire>:
 800788c:	4801      	ldr	r0, [pc, #4]	; (8007894 <__sfp_lock_acquire+0x8>)
 800788e:	f7fe b828 	b.w	80058e2 <__retarget_lock_acquire_recursive>
 8007892:	bf00      	nop
 8007894:	20001830 	.word	0x20001830

08007898 <__sfp_lock_release>:
 8007898:	4801      	ldr	r0, [pc, #4]	; (80078a0 <__sfp_lock_release+0x8>)
 800789a:	f7fe b824 	b.w	80058e6 <__retarget_lock_release_recursive>
 800789e:	bf00      	nop
 80078a0:	20001830 	.word	0x20001830

080078a4 <__sinit_lock_acquire>:
 80078a4:	4801      	ldr	r0, [pc, #4]	; (80078ac <__sinit_lock_acquire+0x8>)
 80078a6:	f7fe b81c 	b.w	80058e2 <__retarget_lock_acquire_recursive>
 80078aa:	bf00      	nop
 80078ac:	2000182b 	.word	0x2000182b

080078b0 <__sinit_lock_release>:
 80078b0:	4801      	ldr	r0, [pc, #4]	; (80078b8 <__sinit_lock_release+0x8>)
 80078b2:	f7fe b818 	b.w	80058e6 <__retarget_lock_release_recursive>
 80078b6:	bf00      	nop
 80078b8:	2000182b 	.word	0x2000182b

080078bc <__sinit>:
 80078bc:	b510      	push	{r4, lr}
 80078be:	4604      	mov	r4, r0
 80078c0:	f7ff fff0 	bl	80078a4 <__sinit_lock_acquire>
 80078c4:	69a3      	ldr	r3, [r4, #24]
 80078c6:	b11b      	cbz	r3, 80078d0 <__sinit+0x14>
 80078c8:	e8bd 4010 	ldmia.w	sp!, {r4, lr}
 80078cc:	f7ff bff0 	b.w	80078b0 <__sinit_lock_release>
 80078d0:	e9c4 3312 	strd	r3, r3, [r4, #72]	; 0x48
 80078d4:	6523      	str	r3, [r4, #80]	; 0x50
 80078d6:	4b13      	ldr	r3, [pc, #76]	; (8007924 <__sinit+0x68>)
 80078d8:	4a13      	ldr	r2, [pc, #76]	; (8007928 <__sinit+0x6c>)
 80078da:	681b      	ldr	r3, [r3, #0]
 80078dc:	62a2      	str	r2, [r4, #40]	; 0x28
 80078de:	42a3      	cmp	r3, r4
 80078e0:	bf04      	itt	eq
 80078e2:	2301      	moveq	r3, #1
 80078e4:	61a3      	streq	r3, [r4, #24]
 80078e6:	4620      	mov	r0, r4
 80078e8:	f000 f820 	bl	800792c <__sfp>
 80078ec:	6060      	str	r0, [r4, #4]
 80078ee:	4620      	mov	r0, r4
 80078f0:	f000 f81c 	bl	800792c <__sfp>
 80078f4:	60a0      	str	r0, [r4, #8]
 80078f6:	4620      	mov	r0, r4
 80078f8:	f000 f818 	bl	800792c <__sfp>
 80078fc:	2200      	movs	r2, #0
 80078fe:	60e0      	str	r0, [r4, #12]
 8007900:	2104      	movs	r1, #4
 8007902:	6860      	ldr	r0, [r4, #4]
 8007904:	f7ff ff82 	bl	800780c <std>
 8007908:	68a0      	ldr	r0, [r4, #8]
 800790a:	2201      	movs	r2, #1
 800790c:	2109      	movs	r1, #9
 800790e:	f7ff ff7d 	bl	800780c <std>
 8007912:	68e0      	ldr	r0, [r4, #12]
 8007914:	2202      	movs	r2, #2
 8007916:	2112      	movs	r1, #18
 8007918:	f7ff ff78 	bl	800780c <std>
 800791c:	2301      	movs	r3, #1
 800791e:	61a3      	str	r3, [r4, #24]
 8007920:	e7d2      	b.n	80078c8 <__sinit+0xc>
 8007922:	bf00      	nop
 8007924:	0800a3a8 	.word	0x0800a3a8
 8007928:	08007855 	.word	0x08007855

0800792c <__sfp>:
 800792c:	b5f8      	push	{r3, r4, r5, r6, r7, lr}
 800792e:	4607      	mov	r7, r0
 8007930:	f7ff ffac 	bl	800788c <__sfp_lock_acquire>
 8007934:	4b1e      	ldr	r3, [pc, #120]	; (80079b0 <__sfp+0x84>)
 8007936:	681e      	ldr	r6, [r3, #0]
 8007938:	69b3      	ldr	r3, [r6, #24]
 800793a:	b913      	cbnz	r3, 8007942 <__sfp+0x16>
 800793c:	4630      	mov	r0, r6
 800793e:	f7ff ffbd 	bl	80078bc <__sinit>
 8007942:	3648      	adds	r6, #72	; 0x48
 8007944:	e9d6 3401 	ldrd	r3, r4, [r6, #4]
 8007948:	3b01      	subs	r3, #1
 800794a:	d503      	bpl.n	8007954 <__sfp+0x28>
 800794c:	6833      	ldr	r3, [r6, #0]
 800794e:	b30b      	cbz	r3, 8007994 <__sfp+0x68>
 8007950:	6836      	ldr	r6, [r6, #0]
 8007952:	e7f7      	b.n	8007944 <__sfp+0x18>
 8007954:	f9b4 500c 	ldrsh.w	r5, [r4, #12]
 8007958:	b9d5      	cbnz	r5, 8007990 <__sfp+0x64>
 800795a:	4b16      	ldr	r3, [pc, #88]	; (80079b4 <__sfp+0x88>)
 800795c:	60e3      	str	r3, [r4, #12]
 800795e:	f104 0058 	add.w	r0, r4, #88	; 0x58
 8007962:	6665      	str	r5, [r4, #100]	; 0x64
 8007964:	f7fd ffbc 	bl	80058e0 <__retarget_lock_init_recursive>
 8007968:	f7ff ff96 	bl	8007898 <__sfp_lock_release>
 800796c:	e9c4 5501 	strd	r5, r5, [r4, #4]
 8007970:	e9c4 5504 	strd	r5, r5, [r4, #16]
 8007974:	6025      	str	r5, [r4, #0]
 8007976:	61a5      	str	r5, [r4, #24]
 8007978:	2208      	movs	r2, #8
 800797a:	4629      	mov	r1, r5
 800797c:	f104 005c 	add.w	r0, r4, #92	; 0x5c
 8007980:	f7fd ffea 	bl	8005958 <memset>
 8007984:	e9c4 550d 	strd	r5, r5, [r4, #52]	; 0x34
 8007988:	e9c4 5512 	strd	r5, r5, [r4, #72]	; 0x48
 800798c:	4620      	mov	r0, r4
 800798e:	bdf8      	pop	{r3, r4, r5, r6, r7, pc}
 8007990:	3468      	adds	r4, #104	; 0x68
 8007992:	e7d9      	b.n	8007948 <__sfp+0x1c>
 8007994:	2104      	movs	r1, #4
 8007996:	4638      	mov	r0, r7
 8007998:	f7ff ff62 	bl	8007860 <__sfmoreglue>
 800799c:	4604      	mov	r4, r0
 800799e:	6030      	str	r0, [r6, #0]
 80079a0:	2800      	cmp	r0, #0
 80079a2:	d1d5      	bne.n	8007950 <__sfp+0x24>
 80079a4:	f7ff ff78 	bl	8007898 <__sfp_lock_release>
 80079a8:	230c      	movs	r3, #12
 80079aa:	603b      	str	r3, [r7, #0]
 80079ac:	e7ee      	b.n	800798c <__sfp+0x60>
 80079ae:	bf00      	nop
 80079b0:	0800a3a8 	.word	0x0800a3a8
 80079b4:	ffff0001 	.word	0xffff0001

080079b8 <_fwalk_reent>:
 80079b8:	e92d 43f8 	stmdb	sp!, {r3, r4, r5, r6, r7, r8, r9, lr}
 80079bc:	4606      	mov	r6, r0
 80079be:	4688      	mov	r8, r1
 80079c0:	f100 0448 	add.w	r4, r0, #72	; 0x48
 80079c4:	2700      	movs	r7, #0
 80079c6:	e9d4 9501 	ldrd	r9, r5, [r4, #4]
 80079ca:	f1b9 0901 	subs.w	r9, r9, #1
 80079ce:	d505      	bpl.n	80079dc <_fwalk_reent+0x24>
 80079d0:	6824      	ldr	r4, [r4, #0]
 80079d2:	2c00      	cmp	r4, #0
 80079d4:	d1f7      	bne.n	80079c6 <_fwalk_reent+0xe>
 80079d6:	4638      	mov	r0, r7
 80079d8:	e8bd 83f8 	ldmia.w	sp!, {r3, r4, r5, r6, r7, r8, r9, pc}
 80079dc:	89ab      	ldrh	r3, [r5, #12]
 80079de:	2b01      	cmp	r3, #1
 80079e0:	d907      	bls.n	80079f2 <_fwalk_reent+0x3a>
 80079e2:	f9b5 300e 	ldrsh.w	r3, [r5, #14]
 80079e6:	3301      	adds	r3, #1
 80079e8:	d003      	beq.n	80079f2 <_fwalk_reent+0x3a>
 80079ea:	4629      	mov	r1, r5
 80079ec:	4630      	mov	r0, r6
 80079ee:	47c0      	blx	r8
 80079f0:	4307      	orrs	r7, r0
 80079f2:	3568      	adds	r5, #104	; 0x68
 80079f4:	e7e9      	b.n	80079ca <_fwalk_reent+0x12>
	...

080079f8 <_localeconv_r>:
 80079f8:	4800      	ldr	r0, [pc, #0]	; (80079fc <_localeconv_r+0x4>)
 80079fa:	4770      	bx	lr
 80079fc:	20000d18 	.word	0x20000d18

08007a00 <__swhatbuf_r>:
 8007a00:	b570      	push	{r4, r5, r6, lr}
 8007a02:	460e      	mov	r6, r1
 8007a04:	f9b1 100e 	ldrsh.w	r1, [r1, #14]
 8007a08:	2900      	cmp	r1, #0
 8007a0a:	b096      	sub	sp, #88	; 0x58
 8007a0c:	4614      	mov	r4, r2
 8007a0e:	461d      	mov	r5, r3
 8007a10:	da07      	bge.n	8007a22 <__swhatbuf_r+0x22>
 8007a12:	2300      	movs	r3, #0
 8007a14:	602b      	str	r3, [r5, #0]
 8007a16:	89b3      	ldrh	r3, [r6, #12]
 8007a18:	061a      	lsls	r2, r3, #24
 8007a1a:	d410      	bmi.n	8007a3e <__swhatbuf_r+0x3e>
 8007a1c:	f44f 6380 	mov.w	r3, #1024	; 0x400
 8007a20:	e00e      	b.n	8007a40 <__swhatbuf_r+0x40>
 8007a22:	466a      	mov	r2, sp
 8007a24:	f000 fdd0 	bl	80085c8 <_fstat_r>
 8007a28:	2800      	cmp	r0, #0
 8007a2a:	dbf2      	blt.n	8007a12 <__swhatbuf_r+0x12>
 8007a2c:	9a01      	ldr	r2, [sp, #4]
 8007a2e:	f402 4270 	and.w	r2, r2, #61440	; 0xf000
 8007a32:	f5a2 5300 	sub.w	r3, r2, #8192	; 0x2000
 8007a36:	425a      	negs	r2, r3
 8007a38:	415a      	adcs	r2, r3
 8007a3a:	602a      	str	r2, [r5, #0]
 8007a3c:	e7ee      	b.n	8007a1c <__swhatbuf_r+0x1c>
 8007a3e:	2340      	movs	r3, #64	; 0x40
 8007a40:	2000      	movs	r0, #0
 8007a42:	6023      	str	r3, [r4, #0]
 8007a44:	b016      	add	sp, #88	; 0x58
 8007a46:	bd70      	pop	{r4, r5, r6, pc}

08007a48 <__smakebuf_r>:
 8007a48:	898b      	ldrh	r3, [r1, #12]
 8007a4a:	b573      	push	{r0, r1, r4, r5, r6, lr}
 8007a4c:	079d      	lsls	r5, r3, #30
 8007a4e:	4606      	mov	r6, r0
 8007a50:	460c      	mov	r4, r1
 8007a52:	d507      	bpl.n	8007a64 <__smakebuf_r+0x1c>
 8007a54:	f104 0347 	add.w	r3, r4, #71	; 0x47
 8007a58:	6023      	str	r3, [r4, #0]
 8007a5a:	6123      	str	r3, [r4, #16]
 8007a5c:	2301      	movs	r3, #1
 8007a5e:	6163      	str	r3, [r4, #20]
 8007a60:	b002      	add	sp, #8
 8007a62:	bd70      	pop	{r4, r5, r6, pc}
 8007a64:	ab01      	add	r3, sp, #4
 8007a66:	466a      	mov	r2, sp
 8007a68:	f7ff ffca 	bl	8007a00 <__swhatbuf_r>
 8007a6c:	9900      	ldr	r1, [sp, #0]
 8007a6e:	4605      	mov	r5, r0
 8007a70:	4630      	mov	r0, r6
 8007a72:	f7fd ffc9 	bl	8005a08 <_malloc_r>
 8007a76:	b948      	cbnz	r0, 8007a8c <__smakebuf_r+0x44>
 8007a78:	f9b4 300c 	ldrsh.w	r3, [r4, #12]
 8007a7c:	059a      	lsls	r2, r3, #22
 8007a7e:	d4ef      	bmi.n	8007a60 <__smakebuf_r+0x18>
 8007a80:	f023 0303 	bic.w	r3, r3, #3
 8007a84:	f043 0302 	orr.w	r3, r3, #2
 8007a88:	81a3      	strh	r3, [r4, #12]
 8007a8a:	e7e3      	b.n	8007a54 <__smakebuf_r+0xc>
 8007a8c:	4b0d      	ldr	r3, [pc, #52]	; (8007ac4 <__smakebuf_r+0x7c>)
 8007a8e:	62b3      	str	r3, [r6, #40]	; 0x28
 8007a90:	89a3      	ldrh	r3, [r4, #12]
 8007a92:	6020      	str	r0, [r4, #0]
 8007a94:	f043 0380 	orr.w	r3, r3, #128	; 0x80
 8007a98:	81a3      	strh	r3, [r4, #12]
 8007a9a:	9b00      	ldr	r3, [sp, #0]
 8007a9c:	6163      	str	r3, [r4, #20]
 8007a9e:	9b01      	ldr	r3, [sp, #4]
 8007aa0:	6120      	str	r0, [r4, #16]
 8007aa2:	b15b      	cbz	r3, 8007abc <__smakebuf_r+0x74>
 8007aa4:	f9b4 100e 	ldrsh.w	r1, [r4, #14]
 8007aa8:	4630      	mov	r0, r6
 8007aaa:	f000 fd9f 	bl	80085ec <_isatty_r>
 8007aae:	b128      	cbz	r0, 8007abc <__smakebuf_r+0x74>
 8007ab0:	89a3      	ldrh	r3, [r4, #12]
 8007ab2:	f023 0303 	bic.w	r3, r3, #3
 8007ab6:	f043 0301 	orr.w	r3, r3, #1
 8007aba:	81a3      	strh	r3, [r4, #12]
 8007abc:	89a0      	ldrh	r0, [r4, #12]
 8007abe:	4305      	orrs	r5, r0
 8007ac0:	81a5      	strh	r5, [r4, #12]
 8007ac2:	e7cd      	b.n	8007a60 <__smakebuf_r+0x18>
 8007ac4:	08007855 	.word	0x08007855

08007ac8 <__malloc_lock>:
 8007ac8:	4801      	ldr	r0, [pc, #4]	; (8007ad0 <__malloc_lock+0x8>)
 8007aca:	f7fd bf0a 	b.w	80058e2 <__retarget_lock_acquire_recursive>
 8007ace:	bf00      	nop
 8007ad0:	2000182c 	.word	0x2000182c

08007ad4 <__malloc_unlock>:
 8007ad4:	4801      	ldr	r0, [pc, #4]	; (8007adc <__malloc_unlock+0x8>)
 8007ad6:	f7fd bf06 	b.w	80058e6 <__retarget_lock_release_recursive>
 8007ada:	bf00      	nop
 8007adc:	2000182c 	.word	0x2000182c

08007ae0 <_Balloc>:
 8007ae0:	b570      	push	{r4, r5, r6, lr}
 8007ae2:	6a46      	ldr	r6, [r0, #36]	; 0x24
 8007ae4:	4604      	mov	r4, r0
 8007ae6:	460d      	mov	r5, r1
 8007ae8:	b976      	cbnz	r6, 8007b08 <_Balloc+0x28>
 8007aea:	2010      	movs	r0, #16
 8007aec:	f7fd fefc 	bl	80058e8 <malloc>
 8007af0:	4602      	mov	r2, r0
 8007af2:	6260      	str	r0, [r4, #36]	; 0x24
 8007af4:	b920      	cbnz	r0, 8007b00 <_Balloc+0x20>
 8007af6:	4b18      	ldr	r3, [pc, #96]	; (8007b58 <_Balloc+0x78>)
 8007af8:	4818      	ldr	r0, [pc, #96]	; (8007b5c <_Balloc+0x7c>)
 8007afa:	2166      	movs	r1, #102	; 0x66
 8007afc:	f7fd fe90 	bl	8005820 <__assert_func>
 8007b00:	e9c0 6601 	strd	r6, r6, [r0, #4]
 8007b04:	6006      	str	r6, [r0, #0]
 8007b06:	60c6      	str	r6, [r0, #12]
 8007b08:	6a66      	ldr	r6, [r4, #36]	; 0x24
 8007b0a:	68f3      	ldr	r3, [r6, #12]
 8007b0c:	b183      	cbz	r3, 8007b30 <_Balloc+0x50>
 8007b0e:	6a63      	ldr	r3, [r4, #36]	; 0x24
 8007b10:	68db      	ldr	r3, [r3, #12]
 8007b12:	f853 0025 	ldr.w	r0, [r3, r5, lsl #2]
 8007b16:	b9b8      	cbnz	r0, 8007b48 <_Balloc+0x68>
 8007b18:	2101      	movs	r1, #1
 8007b1a:	fa01 f605 	lsl.w	r6, r1, r5
 8007b1e:	1d72      	adds	r2, r6, #5
 8007b20:	0092      	lsls	r2, r2, #2
 8007b22:	4620      	mov	r0, r4
 8007b24:	f000 fb5a 	bl	80081dc <_calloc_r>
 8007b28:	b160      	cbz	r0, 8007b44 <_Balloc+0x64>
 8007b2a:	e9c0 5601 	strd	r5, r6, [r0, #4]
 8007b2e:	e00e      	b.n	8007b4e <_Balloc+0x6e>
 8007b30:	2221      	movs	r2, #33	; 0x21
 8007b32:	2104      	movs	r1, #4
 8007b34:	4620      	mov	r0, r4
 8007b36:	f000 fb51 	bl	80081dc <_calloc_r>
 8007b3a:	6a63      	ldr	r3, [r4, #36]	; 0x24
 8007b3c:	60f0      	str	r0, [r6, #12]
 8007b3e:	68db      	ldr	r3, [r3, #12]
 8007b40:	2b00      	cmp	r3, #0
 8007b42:	d1e4      	bne.n	8007b0e <_Balloc+0x2e>
 8007b44:	2000      	movs	r0, #0
 8007b46:	bd70      	pop	{r4, r5, r6, pc}
 8007b48:	6802      	ldr	r2, [r0, #0]
 8007b4a:	f843 2025 	str.w	r2, [r3, r5, lsl #2]
 8007b4e:	2300      	movs	r3, #0
 8007b50:	e9c0 3303 	strd	r3, r3, [r0, #12]
 8007b54:	e7f7      	b.n	8007b46 <_Balloc+0x66>
 8007b56:	bf00      	nop
 8007b58:	0800a3f8 	.word	0x0800a3f8
 8007b5c:	0800a4e0 	.word	0x0800a4e0

08007b60 <_Bfree>:
 8007b60:	b570      	push	{r4, r5, r6, lr}
 8007b62:	6a46      	ldr	r6, [r0, #36]	; 0x24
 8007b64:	4605      	mov	r5, r0
 8007b66:	460c      	mov	r4, r1
 8007b68:	b976      	cbnz	r6, 8007b88 <_Bfree+0x28>
 8007b6a:	2010      	movs	r0, #16
 8007b6c:	f7fd febc 	bl	80058e8 <malloc>
 8007b70:	4602      	mov	r2, r0
 8007b72:	6268      	str	r0, [r5, #36]	; 0x24
 8007b74:	b920      	cbnz	r0, 8007b80 <_Bfree+0x20>
 8007b76:	4b09      	ldr	r3, [pc, #36]	; (8007b9c <_Bfree+0x3c>)
 8007b78:	4809      	ldr	r0, [pc, #36]	; (8007ba0 <_Bfree+0x40>)
 8007b7a:	218a      	movs	r1, #138	; 0x8a
 8007b7c:	f7fd fe50 	bl	8005820 <__assert_func>
 8007b80:	e9c0 6601 	strd	r6, r6, [r0, #4]
 8007b84:	6006      	str	r6, [r0, #0]
 8007b86:	60c6      	str	r6, [r0, #12]
 8007b88:	b13c      	cbz	r4, 8007b9a <_Bfree+0x3a>
 8007b8a:	6a6b      	ldr	r3, [r5, #36]	; 0x24
 8007b8c:	6862      	ldr	r2, [r4, #4]
 8007b8e:	68db      	ldr	r3, [r3, #12]
 8007b90:	f853 1022 	ldr.w	r1, [r3, r2, lsl #2]
 8007b94:	6021      	str	r1, [r4, #0]
 8007b96:	f843 4022 	str.w	r4, [r3, r2, lsl #2]
 8007b9a:	bd70      	pop	{r4, r5, r6, pc}
 8007b9c:	0800a3f8 	.word	0x0800a3f8
 8007ba0:	0800a4e0 	.word	0x0800a4e0

08007ba4 <__multadd>:
 8007ba4:	e92d 41f0 	stmdb	sp!, {r4, r5, r6, r7, r8, lr}
 8007ba8:	690e      	ldr	r6, [r1, #16]
 8007baa:	4607      	mov	r7, r0
 8007bac:	4698      	mov	r8, r3
 8007bae:	460c      	mov	r4, r1
 8007bb0:	f101 0014 	add.w	r0, r1, #20
 8007bb4:	2300      	movs	r3, #0
 8007bb6:	6805      	ldr	r5, [r0, #0]
 8007bb8:	b2a9      	uxth	r1, r5
 8007bba:	fb02 8101 	mla	r1, r2, r1, r8
 8007bbe:	ea4f 4c11 	mov.w	ip, r1, lsr #16
 8007bc2:	0c2d      	lsrs	r5, r5, #16
 8007bc4:	fb02 c505 	mla	r5, r2, r5, ip
 8007bc8:	b289      	uxth	r1, r1
 8007bca:	3301      	adds	r3, #1
 8007bcc:	eb01 4105 	add.w	r1, r1, r5, lsl #16
 8007bd0:	429e      	cmp	r6, r3
 8007bd2:	f840 1b04 	str.w	r1, [r0], #4
 8007bd6:	ea4f 4815 	mov.w	r8, r5, lsr #16
 8007bda:	dcec      	bgt.n	8007bb6 <__multadd+0x12>
 8007bdc:	f1b8 0f00 	cmp.w	r8, #0
 8007be0:	d022      	beq.n	8007c28 <__multadd+0x84>
 8007be2:	68a3      	ldr	r3, [r4, #8]
 8007be4:	42b3      	cmp	r3, r6
 8007be6:	dc19      	bgt.n	8007c1c <__multadd+0x78>
 8007be8:	6861      	ldr	r1, [r4, #4]
 8007bea:	4638      	mov	r0, r7
 8007bec:	3101      	adds	r1, #1
 8007bee:	f7ff ff77 	bl	8007ae0 <_Balloc>
 8007bf2:	4605      	mov	r5, r0
 8007bf4:	b928      	cbnz	r0, 8007c02 <__multadd+0x5e>
 8007bf6:	4602      	mov	r2, r0
 8007bf8:	4b0d      	ldr	r3, [pc, #52]	; (8007c30 <__multadd+0x8c>)
 8007bfa:	480e      	ldr	r0, [pc, #56]	; (8007c34 <__multadd+0x90>)
 8007bfc:	21b5      	movs	r1, #181	; 0xb5
 8007bfe:	f7fd fe0f 	bl	8005820 <__assert_func>
 8007c02:	6922      	ldr	r2, [r4, #16]
 8007c04:	3202      	adds	r2, #2
 8007c06:	f104 010c 	add.w	r1, r4, #12
 8007c0a:	0092      	lsls	r2, r2, #2
 8007c0c:	300c      	adds	r0, #12
 8007c0e:	f7fd fe7b 	bl	8005908 <memcpy>
 8007c12:	4621      	mov	r1, r4
 8007c14:	4638      	mov	r0, r7
 8007c16:	f7ff ffa3 	bl	8007b60 <_Bfree>
 8007c1a:	462c      	mov	r4, r5
 8007c1c:	eb04 0386 	add.w	r3, r4, r6, lsl #2
 8007c20:	3601      	adds	r6, #1
 8007c22:	f8c3 8014 	str.w	r8, [r3, #20]
 8007c26:	6126      	str	r6, [r4, #16]
 8007c28:	4620      	mov	r0, r4
 8007c2a:	e8bd 81f0 	ldmia.w	sp!, {r4, r5, r6, r7, r8, pc}
 8007c2e:	bf00      	nop
 8007c30:	0800a46e 	.word	0x0800a46e
 8007c34:	0800a4e0 	.word	0x0800a4e0

08007c38 <__hi0bits>:
 8007c38:	0c03      	lsrs	r3, r0, #16
 8007c3a:	041b      	lsls	r3, r3, #16
 8007c3c:	b9d3      	cbnz	r3, 8007c74 <__hi0bits+0x3c>
 8007c3e:	0400      	lsls	r0, r0, #16
 8007c40:	2310      	movs	r3, #16
 8007c42:	f010 4f7f 	tst.w	r0, #4278190080	; 0xff000000
 8007c46:	bf04      	itt	eq
 8007c48:	0200      	lsleq	r0, r0, #8
 8007c4a:	3308      	addeq	r3, #8
 8007c4c:	f010 4f70 	tst.w	r0, #4026531840	; 0xf0000000
 8007c50:	bf04      	itt	eq
 8007c52:	0100      	lsleq	r0, r0, #4
 8007c54:	3304      	addeq	r3, #4
 8007c56:	f010 4f40 	tst.w	r0, #3221225472	; 0xc0000000
 8007c5a:	bf04      	itt	eq
 8007c5c:	0080      	lsleq	r0, r0, #2
 8007c5e:	3302      	addeq	r3, #2
 8007c60:	2800      	cmp	r0, #0
 8007c62:	db05      	blt.n	8007c70 <__hi0bits+0x38>
 8007c64:	f010 4f80 	tst.w	r0, #1073741824	; 0x40000000
 8007c68:	f103 0301 	add.w	r3, r3, #1
 8007c6c:	bf08      	it	eq
 8007c6e:	2320      	moveq	r3, #32
 8007c70:	4618      	mov	r0, r3
 8007c72:	4770      	bx	lr
 8007c74:	2300      	movs	r3, #0
 8007c76:	e7e4      	b.n	8007c42 <__hi0bits+0xa>

08007c78 <__lo0bits>:
 8007c78:	6803      	ldr	r3, [r0, #0]
 8007c7a:	f013 0207 	ands.w	r2, r3, #7
 8007c7e:	4601      	mov	r1, r0
 8007c80:	d00b      	beq.n	8007c9a <__lo0bits+0x22>
 8007c82:	07da      	lsls	r2, r3, #31
 8007c84:	d424      	bmi.n	8007cd0 <__lo0bits+0x58>
 8007c86:	0798      	lsls	r0, r3, #30
 8007c88:	bf49      	itett	mi
 8007c8a:	085b      	lsrmi	r3, r3, #1
 8007c8c:	089b      	lsrpl	r3, r3, #2
 8007c8e:	2001      	movmi	r0, #1
 8007c90:	600b      	strmi	r3, [r1, #0]
 8007c92:	bf5c      	itt	pl
 8007c94:	600b      	strpl	r3, [r1, #0]
 8007c96:	2002      	movpl	r0, #2
 8007c98:	4770      	bx	lr
 8007c9a:	b298      	uxth	r0, r3
 8007c9c:	b9b0      	cbnz	r0, 8007ccc <__lo0bits+0x54>
 8007c9e:	0c1b      	lsrs	r3, r3, #16
 8007ca0:	2010      	movs	r0, #16
 8007ca2:	f013 0fff 	tst.w	r3, #255	; 0xff
 8007ca6:	bf04      	itt	eq
 8007ca8:	0a1b      	lsreq	r3, r3, #8
 8007caa:	3008      	addeq	r0, #8
 8007cac:	071a      	lsls	r2, r3, #28
 8007cae:	bf04      	itt	eq
 8007cb0:	091b      	lsreq	r3, r3, #4
 8007cb2:	3004      	addeq	r0, #4
 8007cb4:	079a      	lsls	r2, r3, #30
 8007cb6:	bf04      	itt	eq
 8007cb8:	089b      	lsreq	r3, r3, #2
 8007cba:	3002      	addeq	r0, #2
 8007cbc:	07da      	lsls	r2, r3, #31
 8007cbe:	d403      	bmi.n	8007cc8 <__lo0bits+0x50>
 8007cc0:	085b      	lsrs	r3, r3, #1
 8007cc2:	f100 0001 	add.w	r0, r0, #1
 8007cc6:	d005      	beq.n	8007cd4 <__lo0bits+0x5c>
 8007cc8:	600b      	str	r3, [r1, #0]
 8007cca:	4770      	bx	lr
 8007ccc:	4610      	mov	r0, r2
 8007cce:	e7e8      	b.n	8007ca2 <__lo0bits+0x2a>
 8007cd0:	2000      	movs	r0, #0
 8007cd2:	4770      	bx	lr
 8007cd4:	2020      	movs	r0, #32
 8007cd6:	4770      	bx	lr

08007cd8 <__i2b>:
 8007cd8:	b510      	push	{r4, lr}
 8007cda:	460c      	mov	r4, r1
 8007cdc:	2101      	movs	r1, #1
 8007cde:	f7ff feff 	bl	8007ae0 <_Balloc>
 8007ce2:	4602      	mov	r2, r0
 8007ce4:	b928      	cbnz	r0, 8007cf2 <__i2b+0x1a>
 8007ce6:	4b05      	ldr	r3, [pc, #20]	; (8007cfc <__i2b+0x24>)
 8007ce8:	4805      	ldr	r0, [pc, #20]	; (8007d00 <__i2b+0x28>)
 8007cea:	f44f 71a0 	mov.w	r1, #320	; 0x140
 8007cee:	f7fd fd97 	bl	8005820 <__assert_func>
 8007cf2:	2301      	movs	r3, #1
 8007cf4:	6144      	str	r4, [r0, #20]
 8007cf6:	6103      	str	r3, [r0, #16]
 8007cf8:	bd10      	pop	{r4, pc}
 8007cfa:	bf00      	nop
 8007cfc:	0800a46e 	.word	0x0800a46e
 8007d00:	0800a4e0 	.word	0x0800a4e0

08007d04 <__multiply>:
 8007d04:	e92d 4ff0 	stmdb	sp!, {r4, r5, r6, r7, r8, r9, sl, fp, lr}
 8007d08:	4614      	mov	r4, r2
 8007d0a:	690a      	ldr	r2, [r1, #16]
 8007d0c:	6923      	ldr	r3, [r4, #16]
 8007d0e:	429a      	cmp	r2, r3
 8007d10:	bfb8      	it	lt
 8007d12:	460b      	movlt	r3, r1
 8007d14:	460d      	mov	r5, r1
 8007d16:	bfbc      	itt	lt
 8007d18:	4625      	movlt	r5, r4
 8007d1a:	461c      	movlt	r4, r3
 8007d1c:	f8d5 a010 	ldr.w	sl, [r5, #16]
 8007d20:	f8d4 9010 	ldr.w	r9, [r4, #16]
 8007d24:	68ab      	ldr	r3, [r5, #8]
 8007d26:	6869      	ldr	r1, [r5, #4]
 8007d28:	eb0a 0709 	add.w	r7, sl, r9
 8007d2c:	42bb      	cmp	r3, r7
 8007d2e:	b085      	sub	sp, #20
 8007d30:	bfb8      	it	lt
 8007d32:	3101      	addlt	r1, #1
 8007d34:	f7ff fed4 	bl	8007ae0 <_Balloc>
 8007d38:	b930      	cbnz	r0, 8007d48 <__multiply+0x44>
 8007d3a:	4602      	mov	r2, r0
 8007d3c:	4b42      	ldr	r3, [pc, #264]	; (8007e48 <__multiply+0x144>)
 8007d3e:	4843      	ldr	r0, [pc, #268]	; (8007e4c <__multiply+0x148>)
 8007d40:	f240 115d 	movw	r1, #349	; 0x15d
 8007d44:	f7fd fd6c 	bl	8005820 <__assert_func>
 8007d48:	f100 0614 	add.w	r6, r0, #20
 8007d4c:	eb06 0887 	add.w	r8, r6, r7, lsl #2
 8007d50:	4633      	mov	r3, r6
 8007d52:	2200      	movs	r2, #0
 8007d54:	4543      	cmp	r3, r8
 8007d56:	d31e      	bcc.n	8007d96 <__multiply+0x92>
 8007d58:	f105 0c14 	add.w	ip, r5, #20
 8007d5c:	f104 0314 	add.w	r3, r4, #20
 8007d60:	eb0c 0c8a 	add.w	ip, ip, sl, lsl #2
 8007d64:	eb03 0289 	add.w	r2, r3, r9, lsl #2
 8007d68:	9202      	str	r2, [sp, #8]
 8007d6a:	ebac 0205 	sub.w	r2, ip, r5
 8007d6e:	3a15      	subs	r2, #21
 8007d70:	f022 0203 	bic.w	r2, r2, #3
 8007d74:	3204      	adds	r2, #4
 8007d76:	f105 0115 	add.w	r1, r5, #21
 8007d7a:	458c      	cmp	ip, r1
 8007d7c:	bf38      	it	cc
 8007d7e:	2204      	movcc	r2, #4
 8007d80:	9201      	str	r2, [sp, #4]
 8007d82:	9a02      	ldr	r2, [sp, #8]
 8007d84:	9303      	str	r3, [sp, #12]
 8007d86:	429a      	cmp	r2, r3
 8007d88:	d808      	bhi.n	8007d9c <__multiply+0x98>
 8007d8a:	2f00      	cmp	r7, #0
 8007d8c:	dc55      	bgt.n	8007e3a <__multiply+0x136>
 8007d8e:	6107      	str	r7, [r0, #16]
 8007d90:	b005      	add	sp, #20
 8007d92:	e8bd 8ff0 	ldmia.w	sp!, {r4, r5, r6, r7, r8, r9, sl, fp, pc}
 8007d96:	f843 2b04 	str.w	r2, [r3], #4
 8007d9a:	e7db      	b.n	8007d54 <__multiply+0x50>
 8007d9c:	f8b3 a000 	ldrh.w	sl, [r3]
 8007da0:	f1ba 0f00 	cmp.w	sl, #0
 8007da4:	d020      	beq.n	8007de8 <__multiply+0xe4>
 8007da6:	f105 0e14 	add.w	lr, r5, #20
 8007daa:	46b1      	mov	r9, r6
 8007dac:	2200      	movs	r2, #0
 8007dae:	f85e 4b04 	ldr.w	r4, [lr], #4
 8007db2:	f8d9 b000 	ldr.w	fp, [r9]
 8007db6:	b2a1      	uxth	r1, r4
 8007db8:	fa1f fb8b 	uxth.w	fp, fp
 8007dbc:	fb0a b101 	mla	r1, sl, r1, fp
 8007dc0:	4411      	add	r1, r2
 8007dc2:	f8d9 2000 	ldr.w	r2, [r9]
 8007dc6:	0c24      	lsrs	r4, r4, #16
 8007dc8:	0c12      	lsrs	r2, r2, #16
 8007dca:	fb0a 2404 	mla	r4, sl, r4, r2
 8007dce:	eb04 4411 	add.w	r4, r4, r1, lsr #16
 8007dd2:	b289      	uxth	r1, r1
 8007dd4:	ea41 4104 	orr.w	r1, r1, r4, lsl #16
 8007dd8:	45f4      	cmp	ip, lr
 8007dda:	f849 1b04 	str.w	r1, [r9], #4
 8007dde:	ea4f 4214 	mov.w	r2, r4, lsr #16
 8007de2:	d8e4      	bhi.n	8007dae <__multiply+0xaa>
 8007de4:	9901      	ldr	r1, [sp, #4]
 8007de6:	5072      	str	r2, [r6, r1]
 8007de8:	9a03      	ldr	r2, [sp, #12]
 8007dea:	f8b2 9002 	ldrh.w	r9, [r2, #2]
 8007dee:	3304      	adds	r3, #4
 8007df0:	f1b9 0f00 	cmp.w	r9, #0
 8007df4:	d01f      	beq.n	8007e36 <__multiply+0x132>
 8007df6:	6834      	ldr	r4, [r6, #0]
 8007df8:	f105 0114 	add.w	r1, r5, #20
 8007dfc:	46b6      	mov	lr, r6
 8007dfe:	f04f 0a00 	mov.w	sl, #0
 8007e02:	880a      	ldrh	r2, [r1, #0]
 8007e04:	f8be b002 	ldrh.w	fp, [lr, #2]
 8007e08:	fb09 b202 	mla	r2, r9, r2, fp
 8007e0c:	4492      	add	sl, r2
 8007e0e:	b2a4      	uxth	r4, r4
 8007e10:	ea44 440a 	orr.w	r4, r4, sl, lsl #16
 8007e14:	f84e 4b04 	str.w	r4, [lr], #4
 8007e18:	f851 4b04 	ldr.w	r4, [r1], #4
 8007e1c:	f8be 2000 	ldrh.w	r2, [lr]
 8007e20:	0c24      	lsrs	r4, r4, #16
 8007e22:	fb09 2404 	mla	r4, r9, r4, r2
 8007e26:	eb04 441a 	add.w	r4, r4, sl, lsr #16
 8007e2a:	458c      	cmp	ip, r1
 8007e2c:	ea4f 4a14 	mov.w	sl, r4, lsr #16
 8007e30:	d8e7      	bhi.n	8007e02 <__multiply+0xfe>
 8007e32:	9a01      	ldr	r2, [sp, #4]
 8007e34:	50b4      	str	r4, [r6, r2]
 8007e36:	3604      	adds	r6, #4
 8007e38:	e7a3      	b.n	8007d82 <__multiply+0x7e>
 8007e3a:	f858 3d04 	ldr.w	r3, [r8, #-4]!
 8007e3e:	2b00      	cmp	r3, #0
 8007e40:	d1a5      	bne.n	8007d8e <__multiply+0x8a>
 8007e42:	3f01      	subs	r7, #1
 8007e44:	e7a1      	b.n	8007d8a <__multiply+0x86>
 8007e46:	bf00      	nop
 8007e48:	0800a46e 	.word	0x0800a46e
 8007e4c:	0800a4e0 	.word	0x0800a4e0

08007e50 <__pow5mult>:
 8007e50:	e92d 43f8 	stmdb	sp!, {r3, r4, r5, r6, r7, r8, r9, lr}
 8007e54:	4615      	mov	r5, r2
 8007e56:	f012 0203 	ands.w	r2, r2, #3
 8007e5a:	4606      	mov	r6, r0
 8007e5c:	460f      	mov	r7, r1
 8007e5e:	d007      	beq.n	8007e70 <__pow5mult+0x20>
 8007e60:	4c25      	ldr	r4, [pc, #148]	; (8007ef8 <__pow5mult+0xa8>)
 8007e62:	3a01      	subs	r2, #1
 8007e64:	2300      	movs	r3, #0
 8007e66:	f854 2022 	ldr.w	r2, [r4, r2, lsl #2]
 8007e6a:	f7ff fe9b 	bl	8007ba4 <__multadd>
 8007e6e:	4607      	mov	r7, r0
 8007e70:	10ad      	asrs	r5, r5, #2
 8007e72:	d03d      	beq.n	8007ef0 <__pow5mult+0xa0>
 8007e74:	6a74      	ldr	r4, [r6, #36]	; 0x24
 8007e76:	b97c      	cbnz	r4, 8007e98 <__pow5mult+0x48>
 8007e78:	2010      	movs	r0, #16
 8007e7a:	f7fd fd35 	bl	80058e8 <malloc>
 8007e7e:	4602      	mov	r2, r0
 8007e80:	6270      	str	r0, [r6, #36]	; 0x24
 8007e82:	b928      	cbnz	r0, 8007e90 <__pow5mult+0x40>
 8007e84:	4b1d      	ldr	r3, [pc, #116]	; (8007efc <__pow5mult+0xac>)
 8007e86:	481e      	ldr	r0, [pc, #120]	; (8007f00 <__pow5mult+0xb0>)
 8007e88:	f44f 71d7 	mov.w	r1, #430	; 0x1ae
 8007e8c:	f7fd fcc8 	bl	8005820 <__assert_func>
 8007e90:	e9c0 4401 	strd	r4, r4, [r0, #4]
 8007e94:	6004      	str	r4, [r0, #0]
 8007e96:	60c4      	str	r4, [r0, #12]
 8007e98:	f8d6 8024 	ldr.w	r8, [r6, #36]	; 0x24
 8007e9c:	f8d8 4008 	ldr.w	r4, [r8, #8]
 8007ea0:	b94c      	cbnz	r4, 8007eb6 <__pow5mult+0x66>
 8007ea2:	f240 2171 	movw	r1, #625	; 0x271
 8007ea6:	4630      	mov	r0, r6
 8007ea8:	f7ff ff16 	bl	8007cd8 <__i2b>
 8007eac:	2300      	movs	r3, #0
 8007eae:	f8c8 0008 	str.w	r0, [r8, #8]
 8007eb2:	4604      	mov	r4, r0
 8007eb4:	6003      	str	r3, [r0, #0]
 8007eb6:	f04f 0900 	mov.w	r9, #0
 8007eba:	07eb      	lsls	r3, r5, #31
 8007ebc:	d50a      	bpl.n	8007ed4 <__pow5mult+0x84>
 8007ebe:	4639      	mov	r1, r7
 8007ec0:	4622      	mov	r2, r4
 8007ec2:	4630      	mov	r0, r6
 8007ec4:	f7ff ff1e 	bl	8007d04 <__multiply>
 8007ec8:	4639      	mov	r1, r7
 8007eca:	4680      	mov	r8, r0
 8007ecc:	4630      	mov	r0, r6
 8007ece:	f7ff fe47 	bl	8007b60 <_Bfree>
 8007ed2:	4647      	mov	r7, r8
 8007ed4:	106d      	asrs	r5, r5, #1
 8007ed6:	d00b      	beq.n	8007ef0 <__pow5mult+0xa0>
 8007ed8:	6820      	ldr	r0, [r4, #0]
 8007eda:	b938      	cbnz	r0, 8007eec <__pow5mult+0x9c>
 8007edc:	4622      	mov	r2, r4
 8007ede:	4621      	mov	r1, r4
 8007ee0:	4630      	mov	r0, r6
 8007ee2:	f7ff ff0f 	bl	8007d04 <__multiply>
 8007ee6:	6020      	str	r0, [r4, #0]
 8007ee8:	f8c0 9000 	str.w	r9, [r0]
 8007eec:	4604      	mov	r4, r0
 8007eee:	e7e4      	b.n	8007eba <__pow5mult+0x6a>
 8007ef0:	4638      	mov	r0, r7
 8007ef2:	e8bd 83f8 	ldmia.w	sp!, {r3, r4, r5, r6, r7, r8, r9, pc}
 8007ef6:	bf00      	nop
 8007ef8:	0800a630 	.word	0x0800a630
 8007efc:	0800a3f8 	.word	0x0800a3f8
 8007f00:	0800a4e0 	.word	0x0800a4e0

08007f04 <__lshift>:
 8007f04:	e92d 47f0 	stmdb	sp!, {r4, r5, r6, r7, r8, r9, sl, lr}
 8007f08:	460c      	mov	r4, r1
 8007f0a:	6849      	ldr	r1, [r1, #4]
 8007f0c:	6923      	ldr	r3, [r4, #16]
 8007f0e:	eb03 1862 	add.w	r8, r3, r2, asr #5
 8007f12:	68a3      	ldr	r3, [r4, #8]
 8007f14:	4607      	mov	r7, r0
 8007f16:	4691      	mov	r9, r2
 8007f18:	ea4f 1a62 	mov.w	sl, r2, asr #5
 8007f1c:	f108 0601 	add.w	r6, r8, #1
 8007f20:	42b3      	cmp	r3, r6
 8007f22:	db0b      	blt.n	8007f3c <__lshift+0x38>
 8007f24:	4638      	mov	r0, r7
 8007f26:	f7ff fddb 	bl	8007ae0 <_Balloc>
 8007f2a:	4605      	mov	r5, r0
 8007f2c:	b948      	cbnz	r0, 8007f42 <__lshift+0x3e>
 8007f2e:	4602      	mov	r2, r0
 8007f30:	4b28      	ldr	r3, [pc, #160]	; (8007fd4 <__lshift+0xd0>)
 8007f32:	4829      	ldr	r0, [pc, #164]	; (8007fd8 <__lshift+0xd4>)
 8007f34:	f240 11d9 	movw	r1, #473	; 0x1d9
 8007f38:	f7fd fc72 	bl	8005820 <__assert_func>
 8007f3c:	3101      	adds	r1, #1
 8007f3e:	005b      	lsls	r3, r3, #1
 8007f40:	e7ee      	b.n	8007f20 <__lshift+0x1c>
 8007f42:	2300      	movs	r3, #0
 8007f44:	f100 0114 	add.w	r1, r0, #20
 8007f48:	f100 0210 	add.w	r2, r0, #16
 8007f4c:	4618      	mov	r0, r3
 8007f4e:	4553      	cmp	r3, sl
 8007f50:	db33      	blt.n	8007fba <__lshift+0xb6>
 8007f52:	6920      	ldr	r0, [r4, #16]
 8007f54:	ea2a 7aea 	bic.w	sl, sl, sl, asr #31
 8007f58:	f104 0314 	add.w	r3, r4, #20
 8007f5c:	f019 091f 	ands.w	r9, r9, #31
 8007f60:	eb01 018a 	add.w	r1, r1, sl, lsl #2
 8007f64:	eb03 0c80 	add.w	ip, r3, r0, lsl #2
 8007f68:	d02b      	beq.n	8007fc2 <__lshift+0xbe>
 8007f6a:	f1c9 0e20 	rsb	lr, r9, #32
 8007f6e:	468a      	mov	sl, r1
 8007f70:	2200      	movs	r2, #0
 8007f72:	6818      	ldr	r0, [r3, #0]
 8007f74:	fa00 f009 	lsl.w	r0, r0, r9
 8007f78:	4302      	orrs	r2, r0
 8007f7a:	f84a 2b04 	str.w	r2, [sl], #4
 8007f7e:	f853 2b04 	ldr.w	r2, [r3], #4
 8007f82:	459c      	cmp	ip, r3
 8007f84:	fa22 f20e 	lsr.w	r2, r2, lr
 8007f88:	d8f3      	bhi.n	8007f72 <__lshift+0x6e>
 8007f8a:	ebac 0304 	sub.w	r3, ip, r4
 8007f8e:	3b15      	subs	r3, #21
 8007f90:	f023 0303 	bic.w	r3, r3, #3
 8007f94:	3304      	adds	r3, #4
 8007f96:	f104 0015 	add.w	r0, r4, #21
 8007f9a:	4584      	cmp	ip, r0
 8007f9c:	bf38      	it	cc
 8007f9e:	2304      	movcc	r3, #4
 8007fa0:	50ca      	str	r2, [r1, r3]
 8007fa2:	b10a      	cbz	r2, 8007fa8 <__lshift+0xa4>
 8007fa4:	f108 0602 	add.w	r6, r8, #2
 8007fa8:	3e01      	subs	r6, #1
 8007faa:	4638      	mov	r0, r7
 8007fac:	612e      	str	r6, [r5, #16]
 8007fae:	4621      	mov	r1, r4
 8007fb0:	f7ff fdd6 	bl	8007b60 <_Bfree>
 8007fb4:	4628      	mov	r0, r5
 8007fb6:	e8bd 87f0 	ldmia.w	sp!, {r4, r5, r6, r7, r8, r9, sl, pc}
 8007fba:	f842 0f04 	str.w	r0, [r2, #4]!
 8007fbe:	3301      	adds	r3, #1
 8007fc0:	e7c5      	b.n	8007f4e <__lshift+0x4a>
 8007fc2:	3904      	subs	r1, #4
 8007fc4:	f853 2b04 	ldr.w	r2, [r3], #4
 8007fc8:	f841 2f04 	str.w	r2, [r1, #4]!
 8007fcc:	459c      	cmp	ip, r3
 8007fce:	d8f9      	bhi.n	8007fc4 <__lshift+0xc0>
 8007fd0:	e7ea      	b.n	8007fa8 <__lshift+0xa4>
 8007fd2:	bf00      	nop
 8007fd4:	0800a46e 	.word	0x0800a46e
 8007fd8:	0800a4e0 	.word	0x0800a4e0

08007fdc <__mcmp>:
 8007fdc:	b530      	push	{r4, r5, lr}
 8007fde:	6902      	ldr	r2, [r0, #16]
 8007fe0:	690c      	ldr	r4, [r1, #16]
 8007fe2:	1b12      	subs	r2, r2, r4
 8007fe4:	d10e      	bne.n	8008004 <__mcmp+0x28>
 8007fe6:	f100 0314 	add.w	r3, r0, #20
 8007fea:	3114      	adds	r1, #20
 8007fec:	eb03 0084 	add.w	r0, r3, r4, lsl #2
 8007ff0:	eb01 0184 	add.w	r1, r1, r4, lsl #2
 8007ff4:	f850 5d04 	ldr.w	r5, [r0, #-4]!
 8007ff8:	f851 4d04 	ldr.w	r4, [r1, #-4]!
 8007ffc:	42a5      	cmp	r5, r4
 8007ffe:	d003      	beq.n	8008008 <__mcmp+0x2c>
 8008000:	d305      	bcc.n	800800e <__mcmp+0x32>
 8008002:	2201      	movs	r2, #1
 8008004:	4610      	mov	r0, r2
 8008006:	bd30      	pop	{r4, r5, pc}
 8008008:	4283      	cmp	r3, r0
 800800a:	d3f3      	bcc.n	8007ff4 <__mcmp+0x18>
 800800c:	e7fa      	b.n	8008004 <__mcmp+0x28>
 800800e:	f04f 32ff 	mov.w	r2, #4294967295
 8008012:	e7f7      	b.n	8008004 <__mcmp+0x28>

08008014 <__mdiff>:
 8008014:	e92d 4ff8 	stmdb	sp!, {r3, r4, r5, r6, r7, r8, r9, sl, fp, lr}
 8008018:	460c      	mov	r4, r1
 800801a:	4606      	mov	r6, r0
 800801c:	4611      	mov	r1, r2
 800801e:	4620      	mov	r0, r4
 8008020:	4617      	mov	r7, r2
 8008022:	f7ff ffdb 	bl	8007fdc <__mcmp>
 8008026:	1e05      	subs	r5, r0, #0
 8008028:	d110      	bne.n	800804c <__mdiff+0x38>
 800802a:	4629      	mov	r1, r5
 800802c:	4630      	mov	r0, r6
 800802e:	f7ff fd57 	bl	8007ae0 <_Balloc>
 8008032:	b930      	cbnz	r0, 8008042 <__mdiff+0x2e>
 8008034:	4b39      	ldr	r3, [pc, #228]	; (800811c <__mdiff+0x108>)
 8008036:	4602      	mov	r2, r0
 8008038:	f240 2132 	movw	r1, #562	; 0x232
 800803c:	4838      	ldr	r0, [pc, #224]	; (8008120 <__mdiff+0x10c>)
 800803e:	f7fd fbef 	bl	8005820 <__assert_func>
 8008042:	2301      	movs	r3, #1
 8008044:	e9c0 3504 	strd	r3, r5, [r0, #16]
 8008048:	e8bd 8ff8 	ldmia.w	sp!, {r3, r4, r5, r6, r7, r8, r9, sl, fp, pc}
 800804c:	bfa4      	itt	ge
 800804e:	463b      	movge	r3, r7
 8008050:	4627      	movge	r7, r4
 8008052:	4630      	mov	r0, r6
 8008054:	6879      	ldr	r1, [r7, #4]
 8008056:	bfa6      	itte	ge
 8008058:	461c      	movge	r4, r3
 800805a:	2500      	movge	r5, #0
 800805c:	2501      	movlt	r5, #1
 800805e:	f7ff fd3f 	bl	8007ae0 <_Balloc>
 8008062:	b920      	cbnz	r0, 800806e <__mdiff+0x5a>
 8008064:	4b2d      	ldr	r3, [pc, #180]	; (800811c <__mdiff+0x108>)
 8008066:	4602      	mov	r2, r0
 8008068:	f44f 7110 	mov.w	r1, #576	; 0x240
 800806c:	e7e6      	b.n	800803c <__mdiff+0x28>
 800806e:	693e      	ldr	r6, [r7, #16]
 8008070:	60c5      	str	r5, [r0, #12]
 8008072:	6925      	ldr	r5, [r4, #16]
 8008074:	f107 0114 	add.w	r1, r7, #20
 8008078:	f104 0914 	add.w	r9, r4, #20
 800807c:	f100 0e14 	add.w	lr, r0, #20
 8008080:	f107 0210 	add.w	r2, r7, #16
 8008084:	eb01 0c86 	add.w	ip, r1, r6, lsl #2
 8008088:	eb09 0585 	add.w	r5, r9, r5, lsl #2
 800808c:	46f2      	mov	sl, lr
 800808e:	2700      	movs	r7, #0
 8008090:	f859 3b04 	ldr.w	r3, [r9], #4
 8008094:	f852 bf04 	ldr.w	fp, [r2, #4]!
 8008098:	fa1f f883 	uxth.w	r8, r3
 800809c:	fa17 f78b 	uxtah	r7, r7, fp
 80080a0:	0c1b      	lsrs	r3, r3, #16
 80080a2:	eba7 0808 	sub.w	r8, r7, r8
 80080a6:	ebc3 431b 	rsb	r3, r3, fp, lsr #16
 80080aa:	eb03 4328 	add.w	r3, r3, r8, asr #16
 80080ae:	fa1f f888 	uxth.w	r8, r8
 80080b2:	141f      	asrs	r7, r3, #16
 80080b4:	454d      	cmp	r5, r9
 80080b6:	ea48 4303 	orr.w	r3, r8, r3, lsl #16
 80080ba:	f84a 3b04 	str.w	r3, [sl], #4
 80080be:	d8e7      	bhi.n	8008090 <__mdiff+0x7c>
 80080c0:	1b2b      	subs	r3, r5, r4
 80080c2:	3b15      	subs	r3, #21
 80080c4:	f023 0303 	bic.w	r3, r3, #3
 80080c8:	3304      	adds	r3, #4
 80080ca:	3415      	adds	r4, #21
 80080cc:	42a5      	cmp	r5, r4
 80080ce:	bf38      	it	cc
 80080d0:	2304      	movcc	r3, #4
 80080d2:	4419      	add	r1, r3
 80080d4:	4473      	add	r3, lr
 80080d6:	469e      	mov	lr, r3
 80080d8:	460d      	mov	r5, r1
 80080da:	4565      	cmp	r5, ip
 80080dc:	d30e      	bcc.n	80080fc <__mdiff+0xe8>
 80080de:	f10c 0203 	add.w	r2, ip, #3
 80080e2:	1a52      	subs	r2, r2, r1
 80080e4:	f022 0203 	bic.w	r2, r2, #3
 80080e8:	3903      	subs	r1, #3
 80080ea:	458c      	cmp	ip, r1
 80080ec:	bf38      	it	cc
 80080ee:	2200      	movcc	r2, #0
 80080f0:	441a      	add	r2, r3
 80080f2:	f852 3d04 	ldr.w	r3, [r2, #-4]!
 80080f6:	b17b      	cbz	r3, 8008118 <__mdiff+0x104>
 80080f8:	6106      	str	r6, [r0, #16]
 80080fa:	e7a5      	b.n	8008048 <__mdiff+0x34>
 80080fc:	f855 8b04 	ldr.w	r8, [r5], #4
 8008100:	fa17 f488 	uxtah	r4, r7, r8
 8008104:	1422      	asrs	r2, r4, #16
 8008106:	eb02 4218 	add.w	r2, r2, r8, lsr #16
 800810a:	b2a4      	uxth	r4, r4
 800810c:	ea44 4402 	orr.w	r4, r4, r2, lsl #16
 8008110:	f84e 4b04 	str.w	r4, [lr], #4
 8008114:	1417      	asrs	r7, r2, #16
 8008116:	e7e0      	b.n	80080da <__mdiff+0xc6>
 8008118:	3e01      	subs	r6, #1
 800811a:	e7ea      	b.n	80080f2 <__mdiff+0xde>
 800811c:	0800a46e 	.word	0x0800a46e
 8008120:	0800a4e0 	.word	0x0800a4e0

08008124 <__d2b>:
 8008124:	e92d 43f7 	stmdb	sp!, {r0, r1, r2, r4, r5, r6, r7, r8, r9, lr}
 8008128:	4689      	mov	r9, r1
 800812a:	2101      	movs	r1, #1
 800812c:	ec57 6b10 	vmov	r6, r7, d0
 8008130:	4690      	mov	r8, r2
 8008132:	f7ff fcd5 	bl	8007ae0 <_Balloc>
 8008136:	4604      	mov	r4, r0
 8008138:	b930      	cbnz	r0, 8008148 <__d2b+0x24>
 800813a:	4602      	mov	r2, r0
 800813c:	4b25      	ldr	r3, [pc, #148]	; (80081d4 <__d2b+0xb0>)
 800813e:	4826      	ldr	r0, [pc, #152]	; (80081d8 <__d2b+0xb4>)
 8008140:	f240 310a 	movw	r1, #778	; 0x30a
 8008144:	f7fd fb6c 	bl	8005820 <__assert_func>
 8008148:	f3c7 550a 	ubfx	r5, r7, #20, #11
 800814c:	f3c7 0313 	ubfx	r3, r7, #0, #20
 8008150:	bb35      	cbnz	r5, 80081a0 <__d2b+0x7c>
 8008152:	2e00      	cmp	r6, #0
 8008154:	9301      	str	r3, [sp, #4]
 8008156:	d028      	beq.n	80081aa <__d2b+0x86>
 8008158:	4668      	mov	r0, sp
 800815a:	9600      	str	r6, [sp, #0]
 800815c:	f7ff fd8c 	bl	8007c78 <__lo0bits>
 8008160:	9900      	ldr	r1, [sp, #0]
 8008162:	b300      	cbz	r0, 80081a6 <__d2b+0x82>
 8008164:	9a01      	ldr	r2, [sp, #4]
 8008166:	f1c0 0320 	rsb	r3, r0, #32
 800816a:	fa02 f303 	lsl.w	r3, r2, r3
 800816e:	430b      	orrs	r3, r1
 8008170:	40c2      	lsrs	r2, r0
 8008172:	6163      	str	r3, [r4, #20]
 8008174:	9201      	str	r2, [sp, #4]
 8008176:	9b01      	ldr	r3, [sp, #4]
 8008178:	61a3      	str	r3, [r4, #24]
 800817a:	2b00      	cmp	r3, #0
 800817c:	bf14      	ite	ne
 800817e:	2202      	movne	r2, #2
 8008180:	2201      	moveq	r2, #1
 8008182:	6122      	str	r2, [r4, #16]
 8008184:	b1d5      	cbz	r5, 80081bc <__d2b+0x98>
 8008186:	f2a5 4533 	subw	r5, r5, #1075	; 0x433
 800818a:	4405      	add	r5, r0
 800818c:	f8c9 5000 	str.w	r5, [r9]
 8008190:	f1c0 0035 	rsb	r0, r0, #53	; 0x35
 8008194:	f8c8 0000 	str.w	r0, [r8]
 8008198:	4620      	mov	r0, r4
 800819a:	b003      	add	sp, #12
 800819c:	e8bd 83f0 	ldmia.w	sp!, {r4, r5, r6, r7, r8, r9, pc}
 80081a0:	f443 1380 	orr.w	r3, r3, #1048576	; 0x100000
 80081a4:	e7d5      	b.n	8008152 <__d2b+0x2e>
 80081a6:	6161      	str	r1, [r4, #20]
 80081a8:	e7e5      	b.n	8008176 <__d2b+0x52>
 80081aa:	a801      	add	r0, sp, #4
 80081ac:	f7ff fd64 	bl	8007c78 <__lo0bits>
 80081b0:	9b01      	ldr	r3, [sp, #4]
 80081b2:	6163      	str	r3, [r4, #20]
 80081b4:	2201      	movs	r2, #1
 80081b6:	6122      	str	r2, [r4, #16]
 80081b8:	3020      	adds	r0, #32
 80081ba:	e7e3      	b.n	8008184 <__d2b+0x60>
 80081bc:	eb04 0382 	add.w	r3, r4, r2, lsl #2
 80081c0:	f2a0 4032 	subw	r0, r0, #1074	; 0x432
 80081c4:	f8c9 0000 	str.w	r0, [r9]
 80081c8:	6918      	ldr	r0, [r3, #16]
 80081ca:	f7ff fd35 	bl	8007c38 <__hi0bits>
 80081ce:	ebc0 1042 	rsb	r0, r0, r2, lsl #5
 80081d2:	e7df      	b.n	8008194 <__d2b+0x70>
 80081d4:	0800a46e 	.word	0x0800a46e
 80081d8:	0800a4e0 	.word	0x0800a4e0

080081dc <_calloc_r>:
 80081dc:	b513      	push	{r0, r1, r4, lr}
 80081de:	434a      	muls	r2, r1
 80081e0:	4611      	mov	r1, r2
 80081e2:	9201      	str	r2, [sp, #4]
 80081e4:	f7fd fc10 	bl	8005a08 <_malloc_r>
 80081e8:	4604      	mov	r4, r0
 80081ea:	b118      	cbz	r0, 80081f4 <_calloc_r+0x18>
 80081ec:	9a01      	ldr	r2, [sp, #4]
 80081ee:	2100      	movs	r1, #0
 80081f0:	f7fd fbb2 	bl	8005958 <memset>
 80081f4:	4620      	mov	r0, r4
 80081f6:	b002      	add	sp, #8
 80081f8:	bd10      	pop	{r4, pc}

080081fa <_realloc_r>:
 80081fa:	b5f8      	push	{r3, r4, r5, r6, r7, lr}
 80081fc:	4607      	mov	r7, r0
 80081fe:	4614      	mov	r4, r2
 8008200:	460e      	mov	r6, r1
 8008202:	b921      	cbnz	r1, 800820e <_realloc_r+0x14>
 8008204:	e8bd 40f8 	ldmia.w	sp!, {r3, r4, r5, r6, r7, lr}
 8008208:	4611      	mov	r1, r2
 800820a:	f7fd bbfd 	b.w	8005a08 <_malloc_r>
 800820e:	b922      	cbnz	r2, 800821a <_realloc_r+0x20>
 8008210:	f7fd fbaa 	bl	8005968 <_free_r>
 8008214:	4625      	mov	r5, r4
 8008216:	4628      	mov	r0, r5
 8008218:	bdf8      	pop	{r3, r4, r5, r6, r7, pc}
 800821a:	f000 fa1b 	bl	8008654 <_malloc_usable_size_r>
 800821e:	42a0      	cmp	r0, r4
 8008220:	d20f      	bcs.n	8008242 <_realloc_r+0x48>
 8008222:	4621      	mov	r1, r4
 8008224:	4638      	mov	r0, r7
 8008226:	f7fd fbef 	bl	8005a08 <_malloc_r>
 800822a:	4605      	mov	r5, r0
 800822c:	2800      	cmp	r0, #0
 800822e:	d0f2      	beq.n	8008216 <_realloc_r+0x1c>
 8008230:	4631      	mov	r1, r6
 8008232:	4622      	mov	r2, r4
 8008234:	f7fd fb68 	bl	8005908 <memcpy>
 8008238:	4631      	mov	r1, r6
 800823a:	4638      	mov	r0, r7
 800823c:	f7fd fb94 	bl	8005968 <_free_r>
 8008240:	e7e9      	b.n	8008216 <_realloc_r+0x1c>
 8008242:	4635      	mov	r5, r6
 8008244:	e7e7      	b.n	8008216 <_realloc_r+0x1c>

08008246 <__ssputs_r>:
 8008246:	e92d 47f0 	stmdb	sp!, {r4, r5, r6, r7, r8, r9, sl, lr}
 800824a:	688e      	ldr	r6, [r1, #8]
 800824c:	429e      	cmp	r6, r3
 800824e:	4682      	mov	sl, r0
 8008250:	460c      	mov	r4, r1
 8008252:	4690      	mov	r8, r2
 8008254:	461f      	mov	r7, r3
 8008256:	d838      	bhi.n	80082ca <__ssputs_r+0x84>
 8008258:	898a      	ldrh	r2, [r1, #12]
 800825a:	f412 6f90 	tst.w	r2, #1152	; 0x480
 800825e:	d032      	beq.n	80082c6 <__ssputs_r+0x80>
 8008260:	6825      	ldr	r5, [r4, #0]
 8008262:	6909      	ldr	r1, [r1, #16]
 8008264:	eba5 0901 	sub.w	r9, r5, r1
 8008268:	6965      	ldr	r5, [r4, #20]
 800826a:	eb05 0545 	add.w	r5, r5, r5, lsl #1
 800826e:	eb05 75d5 	add.w	r5, r5, r5, lsr #31
 8008272:	3301      	adds	r3, #1
 8008274:	444b      	add	r3, r9
 8008276:	106d      	asrs	r5, r5, #1
 8008278:	429d      	cmp	r5, r3
 800827a:	bf38      	it	cc
 800827c:	461d      	movcc	r5, r3
 800827e:	0553      	lsls	r3, r2, #21
 8008280:	d531      	bpl.n	80082e6 <__ssputs_r+0xa0>
 8008282:	4629      	mov	r1, r5
 8008284:	f7fd fbc0 	bl	8005a08 <_malloc_r>
 8008288:	4606      	mov	r6, r0
 800828a:	b950      	cbnz	r0, 80082a2 <__ssputs_r+0x5c>
 800828c:	230c      	movs	r3, #12
 800828e:	f8ca 3000 	str.w	r3, [sl]
 8008292:	89a3      	ldrh	r3, [r4, #12]
 8008294:	f043 0340 	orr.w	r3, r3, #64	; 0x40
 8008298:	81a3      	strh	r3, [r4, #12]
 800829a:	f04f 30ff 	mov.w	r0, #4294967295
 800829e:	e8bd 87f0 	ldmia.w	sp!, {r4, r5, r6, r7, r8, r9, sl, pc}
 80082a2:	6921      	ldr	r1, [r4, #16]
 80082a4:	464a      	mov	r2, r9
 80082a6:	f7fd fb2f 	bl	8005908 <memcpy>
 80082aa:	89a3      	ldrh	r3, [r4, #12]
 80082ac:	f423 6390 	bic.w	r3, r3, #1152	; 0x480
 80082b0:	f043 0380 	orr.w	r3, r3, #128	; 0x80
 80082b4:	81a3      	strh	r3, [r4, #12]
 80082b6:	6126      	str	r6, [r4, #16]
 80082b8:	6165      	str	r5, [r4, #20]
 80082ba:	444e      	add	r6, r9
 80082bc:	eba5 0509 	sub.w	r5, r5, r9
 80082c0:	6026      	str	r6, [r4, #0]
 80082c2:	60a5      	str	r5, [r4, #8]
 80082c4:	463e      	mov	r6, r7
 80082c6:	42be      	cmp	r6, r7
 80082c8:	d900      	bls.n	80082cc <__ssputs_r+0x86>
 80082ca:	463e      	mov	r6, r7
 80082cc:	4632      	mov	r2, r6
 80082ce:	6820      	ldr	r0, [r4, #0]
 80082d0:	4641      	mov	r1, r8
 80082d2:	f7fd fb27 	bl	8005924 <memmove>
 80082d6:	68a3      	ldr	r3, [r4, #8]
 80082d8:	6822      	ldr	r2, [r4, #0]
 80082da:	1b9b      	subs	r3, r3, r6
 80082dc:	4432      	add	r2, r6
 80082de:	60a3      	str	r3, [r4, #8]
 80082e0:	6022      	str	r2, [r4, #0]
 80082e2:	2000      	movs	r0, #0
 80082e4:	e7db      	b.n	800829e <__ssputs_r+0x58>
 80082e6:	462a      	mov	r2, r5
 80082e8:	f7ff ff87 	bl	80081fa <_realloc_r>
 80082ec:	4606      	mov	r6, r0
 80082ee:	2800      	cmp	r0, #0
 80082f0:	d1e1      	bne.n	80082b6 <__ssputs_r+0x70>
 80082f2:	6921      	ldr	r1, [r4, #16]
 80082f4:	4650      	mov	r0, sl
 80082f6:	f7fd fb37 	bl	8005968 <_free_r>
 80082fa:	e7c7      	b.n	800828c <__ssputs_r+0x46>

080082fc <_svfiprintf_r>:
 80082fc:	e92d 4ff0 	stmdb	sp!, {r4, r5, r6, r7, r8, r9, sl, fp, lr}
 8008300:	4698      	mov	r8, r3
 8008302:	898b      	ldrh	r3, [r1, #12]
 8008304:	061b      	lsls	r3, r3, #24
 8008306:	b09d      	sub	sp, #116	; 0x74
 8008308:	4607      	mov	r7, r0
 800830a:	460d      	mov	r5, r1
 800830c:	4614      	mov	r4, r2
 800830e:	d50e      	bpl.n	800832e <_svfiprintf_r+0x32>
 8008310:	690b      	ldr	r3, [r1, #16]
 8008312:	b963      	cbnz	r3, 800832e <_svfiprintf_r+0x32>
 8008314:	2140      	movs	r1, #64	; 0x40
 8008316:	f7fd fb77 	bl	8005a08 <_malloc_r>
 800831a:	6028      	str	r0, [r5, #0]
 800831c:	6128      	str	r0, [r5, #16]
 800831e:	b920      	cbnz	r0, 800832a <_svfiprintf_r+0x2e>
 8008320:	230c      	movs	r3, #12
 8008322:	603b      	str	r3, [r7, #0]
 8008324:	f04f 30ff 	mov.w	r0, #4294967295
 8008328:	e0d1      	b.n	80084ce <_svfiprintf_r+0x1d2>
 800832a:	2340      	movs	r3, #64	; 0x40
 800832c:	616b      	str	r3, [r5, #20]
 800832e:	2300      	movs	r3, #0
 8008330:	9309      	str	r3, [sp, #36]	; 0x24
 8008332:	2320      	movs	r3, #32
 8008334:	f88d 3029 	strb.w	r3, [sp, #41]	; 0x29
 8008338:	f8cd 800c 	str.w	r8, [sp, #12]
 800833c:	2330      	movs	r3, #48	; 0x30
 800833e:	f8df 81a8 	ldr.w	r8, [pc, #424]	; 80084e8 <_svfiprintf_r+0x1ec>
 8008342:	f88d 302a 	strb.w	r3, [sp, #42]	; 0x2a
 8008346:	f04f 0901 	mov.w	r9, #1
 800834a:	4623      	mov	r3, r4
 800834c:	469a      	mov	sl, r3
 800834e:	f813 2b01 	ldrb.w	r2, [r3], #1
 8008352:	b10a      	cbz	r2, 8008358 <_svfiprintf_r+0x5c>
 8008354:	2a25      	cmp	r2, #37	; 0x25
 8008356:	d1f9      	bne.n	800834c <_svfiprintf_r+0x50>
 8008358:	ebba 0b04 	subs.w	fp, sl, r4
 800835c:	d00b      	beq.n	8008376 <_svfiprintf_r+0x7a>
 800835e:	465b      	mov	r3, fp
 8008360:	4622      	mov	r2, r4
 8008362:	4629      	mov	r1, r5
 8008364:	4638      	mov	r0, r7
 8008366:	f7ff ff6e 	bl	8008246 <__ssputs_r>
 800836a:	3001      	adds	r0, #1
 800836c:	f000 80aa 	beq.w	80084c4 <_svfiprintf_r+0x1c8>
 8008370:	9a09      	ldr	r2, [sp, #36]	; 0x24
 8008372:	445a      	add	r2, fp
 8008374:	9209      	str	r2, [sp, #36]	; 0x24
 8008376:	f89a 3000 	ldrb.w	r3, [sl]
 800837a:	2b00      	cmp	r3, #0
 800837c:	f000 80a2 	beq.w	80084c4 <_svfiprintf_r+0x1c8>
 8008380:	2300      	movs	r3, #0
 8008382:	f04f 32ff 	mov.w	r2, #4294967295
 8008386:	e9cd 2305 	strd	r2, r3, [sp, #20]
 800838a:	f10a 0a01 	add.w	sl, sl, #1
 800838e:	9304      	str	r3, [sp, #16]
 8008390:	9307      	str	r3, [sp, #28]
 8008392:	f88d 3053 	strb.w	r3, [sp, #83]	; 0x53
 8008396:	931a      	str	r3, [sp, #104]	; 0x68
 8008398:	4654      	mov	r4, sl
 800839a:	2205      	movs	r2, #5
 800839c:	f814 1b01 	ldrb.w	r1, [r4], #1
 80083a0:	4851      	ldr	r0, [pc, #324]	; (80084e8 <_svfiprintf_r+0x1ec>)
 80083a2:	f7f7 ff2d 	bl	8000200 <memchr>
 80083a6:	9a04      	ldr	r2, [sp, #16]
 80083a8:	b9d8      	cbnz	r0, 80083e2 <_svfiprintf_r+0xe6>
 80083aa:	06d0      	lsls	r0, r2, #27
 80083ac:	bf44      	itt	mi
 80083ae:	2320      	movmi	r3, #32
 80083b0:	f88d 3053 	strbmi.w	r3, [sp, #83]	; 0x53
 80083b4:	0711      	lsls	r1, r2, #28
 80083b6:	bf44      	itt	mi
 80083b8:	232b      	movmi	r3, #43	; 0x2b
 80083ba:	f88d 3053 	strbmi.w	r3, [sp, #83]	; 0x53
 80083be:	f89a 3000 	ldrb.w	r3, [sl]
 80083c2:	2b2a      	cmp	r3, #42	; 0x2a
 80083c4:	d015      	beq.n	80083f2 <_svfiprintf_r+0xf6>
 80083c6:	9a07      	ldr	r2, [sp, #28]
 80083c8:	4654      	mov	r4, sl
 80083ca:	2000      	movs	r0, #0
 80083cc:	f04f 0c0a 	mov.w	ip, #10
 80083d0:	4621      	mov	r1, r4
 80083d2:	f811 3b01 	ldrb.w	r3, [r1], #1
 80083d6:	3b30      	subs	r3, #48	; 0x30
 80083d8:	2b09      	cmp	r3, #9
 80083da:	d94e      	bls.n	800847a <_svfiprintf_r+0x17e>
 80083dc:	b1b0      	cbz	r0, 800840c <_svfiprintf_r+0x110>
 80083de:	9207      	str	r2, [sp, #28]
 80083e0:	e014      	b.n	800840c <_svfiprintf_r+0x110>
 80083e2:	eba0 0308 	sub.w	r3, r0, r8
 80083e6:	fa09 f303 	lsl.w	r3, r9, r3
 80083ea:	4313      	orrs	r3, r2
 80083ec:	9304      	str	r3, [sp, #16]
 80083ee:	46a2      	mov	sl, r4
 80083f0:	e7d2      	b.n	8008398 <_svfiprintf_r+0x9c>
 80083f2:	9b03      	ldr	r3, [sp, #12]
 80083f4:	1d19      	adds	r1, r3, #4
 80083f6:	681b      	ldr	r3, [r3, #0]
 80083f8:	9103      	str	r1, [sp, #12]
 80083fa:	2b00      	cmp	r3, #0
 80083fc:	bfbb      	ittet	lt
 80083fe:	425b      	neglt	r3, r3
 8008400:	f042 0202 	orrlt.w	r2, r2, #2
 8008404:	9307      	strge	r3, [sp, #28]
 8008406:	9307      	strlt	r3, [sp, #28]
 8008408:	bfb8      	it	lt
 800840a:	9204      	strlt	r2, [sp, #16]
 800840c:	7823      	ldrb	r3, [r4, #0]
 800840e:	2b2e      	cmp	r3, #46	; 0x2e
 8008410:	d10c      	bne.n	800842c <_svfiprintf_r+0x130>
 8008412:	7863      	ldrb	r3, [r4, #1]
 8008414:	2b2a      	cmp	r3, #42	; 0x2a
 8008416:	d135      	bne.n	8008484 <_svfiprintf_r+0x188>
 8008418:	9b03      	ldr	r3, [sp, #12]
 800841a:	1d1a      	adds	r2, r3, #4
 800841c:	681b      	ldr	r3, [r3, #0]
 800841e:	9203      	str	r2, [sp, #12]
 8008420:	2b00      	cmp	r3, #0
 8008422:	bfb8      	it	lt
 8008424:	f04f 33ff 	movlt.w	r3, #4294967295
 8008428:	3402      	adds	r4, #2
 800842a:	9305      	str	r3, [sp, #20]
 800842c:	f8df a0c8 	ldr.w	sl, [pc, #200]	; 80084f8 <_svfiprintf_r+0x1fc>
 8008430:	7821      	ldrb	r1, [r4, #0]
 8008432:	2203      	movs	r2, #3
 8008434:	4650      	mov	r0, sl
 8008436:	f7f7 fee3 	bl	8000200 <memchr>
 800843a:	b140      	cbz	r0, 800844e <_svfiprintf_r+0x152>
 800843c:	2340      	movs	r3, #64	; 0x40
 800843e:	eba0 000a 	sub.w	r0, r0, sl
 8008442:	fa03 f000 	lsl.w	r0, r3, r0
 8008446:	9b04      	ldr	r3, [sp, #16]
 8008448:	4303      	orrs	r3, r0
 800844a:	3401      	adds	r4, #1
 800844c:	9304      	str	r3, [sp, #16]
 800844e:	f814 1b01 	ldrb.w	r1, [r4], #1
 8008452:	4826      	ldr	r0, [pc, #152]	; (80084ec <_svfiprintf_r+0x1f0>)
 8008454:	f88d 1028 	strb.w	r1, [sp, #40]	; 0x28
 8008458:	2206      	movs	r2, #6
 800845a:	f7f7 fed1 	bl	8000200 <memchr>
 800845e:	2800      	cmp	r0, #0
 8008460:	d038      	beq.n	80084d4 <_svfiprintf_r+0x1d8>
 8008462:	4b23      	ldr	r3, [pc, #140]	; (80084f0 <_svfiprintf_r+0x1f4>)
 8008464:	bb1b      	cbnz	r3, 80084ae <_svfiprintf_r+0x1b2>
 8008466:	9b03      	ldr	r3, [sp, #12]
 8008468:	3307      	adds	r3, #7
 800846a:	f023 0307 	bic.w	r3, r3, #7
 800846e:	3308      	adds	r3, #8
 8008470:	9303      	str	r3, [sp, #12]
 8008472:	9b09      	ldr	r3, [sp, #36]	; 0x24
 8008474:	4433      	add	r3, r6
 8008476:	9309      	str	r3, [sp, #36]	; 0x24
 8008478:	e767      	b.n	800834a <_svfiprintf_r+0x4e>
 800847a:	fb0c 3202 	mla	r2, ip, r2, r3
 800847e:	460c      	mov	r4, r1
 8008480:	2001      	movs	r0, #1
 8008482:	e7a5      	b.n	80083d0 <_svfiprintf_r+0xd4>
 8008484:	2300      	movs	r3, #0
 8008486:	3401      	adds	r4, #1
 8008488:	9305      	str	r3, [sp, #20]
 800848a:	4619      	mov	r1, r3
 800848c:	f04f 0c0a 	mov.w	ip, #10
 8008490:	4620      	mov	r0, r4
 8008492:	f810 2b01 	ldrb.w	r2, [r0], #1
 8008496:	3a30      	subs	r2, #48	; 0x30
 8008498:	2a09      	cmp	r2, #9
 800849a:	d903      	bls.n	80084a4 <_svfiprintf_r+0x1a8>
 800849c:	2b00      	cmp	r3, #0
 800849e:	d0c5      	beq.n	800842c <_svfiprintf_r+0x130>
 80084a0:	9105      	str	r1, [sp, #20]
 80084a2:	e7c3      	b.n	800842c <_svfiprintf_r+0x130>
 80084a4:	fb0c 2101 	mla	r1, ip, r1, r2
 80084a8:	4604      	mov	r4, r0
 80084aa:	2301      	movs	r3, #1
 80084ac:	e7f0      	b.n	8008490 <_svfiprintf_r+0x194>
 80084ae:	ab03      	add	r3, sp, #12
 80084b0:	9300      	str	r3, [sp, #0]
 80084b2:	462a      	mov	r2, r5
 80084b4:	4b0f      	ldr	r3, [pc, #60]	; (80084f4 <_svfiprintf_r+0x1f8>)
 80084b6:	a904      	add	r1, sp, #16
 80084b8:	4638      	mov	r0, r7
 80084ba:	f7fd fcf9 	bl	8005eb0 <_printf_float>
 80084be:	1c42      	adds	r2, r0, #1
 80084c0:	4606      	mov	r6, r0
 80084c2:	d1d6      	bne.n	8008472 <_svfiprintf_r+0x176>
 80084c4:	89ab      	ldrh	r3, [r5, #12]
 80084c6:	065b      	lsls	r3, r3, #25
 80084c8:	f53f af2c 	bmi.w	8008324 <_svfiprintf_r+0x28>
 80084cc:	9809      	ldr	r0, [sp, #36]	; 0x24
 80084ce:	b01d      	add	sp, #116	; 0x74
 80084d0:	e8bd 8ff0 	ldmia.w	sp!, {r4, r5, r6, r7, r8, r9, sl, fp, pc}
 80084d4:	ab03      	add	r3, sp, #12
 80084d6:	9300      	str	r3, [sp, #0]
 80084d8:	462a      	mov	r2, r5
 80084da:	4b06      	ldr	r3, [pc, #24]	; (80084f4 <_svfiprintf_r+0x1f8>)
 80084dc:	a904      	add	r1, sp, #16
 80084de:	4638      	mov	r0, r7
 80084e0:	f7fd ff8a 	bl	80063f8 <_printf_i>
 80084e4:	e7eb      	b.n	80084be <_svfiprintf_r+0x1c2>
 80084e6:	bf00      	nop
 80084e8:	0800a3ac 	.word	0x0800a3ac
 80084ec:	0800a3b6 	.word	0x0800a3b6
 80084f0:	08005eb1 	.word	0x08005eb1
 80084f4:	08008247 	.word	0x08008247
 80084f8:	0800a3b2 	.word	0x0800a3b2

080084fc <__sread>:
 80084fc:	b510      	push	{r4, lr}
 80084fe:	460c      	mov	r4, r1
 8008500:	f9b1 100e 	ldrsh.w	r1, [r1, #14]
 8008504:	f000 f8ae 	bl	8008664 <_read_r>
 8008508:	2800      	cmp	r0, #0
 800850a:	bfab      	itete	ge
 800850c:	6d63      	ldrge	r3, [r4, #84]	; 0x54
 800850e:	89a3      	ldrhlt	r3, [r4, #12]
 8008510:	181b      	addge	r3, r3, r0
 8008512:	f423 5380 	biclt.w	r3, r3, #4096	; 0x1000
 8008516:	bfac      	ite	ge
 8008518:	6563      	strge	r3, [r4, #84]	; 0x54
 800851a:	81a3      	strhlt	r3, [r4, #12]
 800851c:	bd10      	pop	{r4, pc}

0800851e <__swrite>:
 800851e:	e92d 41f0 	stmdb	sp!, {r4, r5, r6, r7, r8, lr}
 8008522:	461f      	mov	r7, r3
 8008524:	898b      	ldrh	r3, [r1, #12]
 8008526:	05db      	lsls	r3, r3, #23
 8008528:	4605      	mov	r5, r0
 800852a:	460c      	mov	r4, r1
 800852c:	4616      	mov	r6, r2
 800852e:	d505      	bpl.n	800853c <__swrite+0x1e>
 8008530:	f9b1 100e 	ldrsh.w	r1, [r1, #14]
 8008534:	2302      	movs	r3, #2
 8008536:	2200      	movs	r2, #0
 8008538:	f000 f868 	bl	800860c <_lseek_r>
 800853c:	89a3      	ldrh	r3, [r4, #12]
 800853e:	f9b4 100e 	ldrsh.w	r1, [r4, #14]
 8008542:	f423 5380 	bic.w	r3, r3, #4096	; 0x1000
 8008546:	81a3      	strh	r3, [r4, #12]
 8008548:	4632      	mov	r2, r6
 800854a:	463b      	mov	r3, r7
 800854c:	4628      	mov	r0, r5
 800854e:	e8bd 41f0 	ldmia.w	sp!, {r4, r5, r6, r7, r8, lr}
 8008552:	f000 b817 	b.w	8008584 <_write_r>

08008556 <__sseek>:
 8008556:	b510      	push	{r4, lr}
 8008558:	460c      	mov	r4, r1
 800855a:	f9b1 100e 	ldrsh.w	r1, [r1, #14]
 800855e:	f000 f855 	bl	800860c <_lseek_r>
 8008562:	1c43      	adds	r3, r0, #1
 8008564:	89a3      	ldrh	r3, [r4, #12]
 8008566:	bf15      	itete	ne
 8008568:	6560      	strne	r0, [r4, #84]	; 0x54
 800856a:	f423 5380 	biceq.w	r3, r3, #4096	; 0x1000
 800856e:	f443 5380 	orrne.w	r3, r3, #4096	; 0x1000
 8008572:	81a3      	strheq	r3, [r4, #12]
 8008574:	bf18      	it	ne
 8008576:	81a3      	strhne	r3, [r4, #12]
 8008578:	bd10      	pop	{r4, pc}

0800857a <__sclose>:
 800857a:	f9b1 100e 	ldrsh.w	r1, [r1, #14]
 800857e:	f000 b813 	b.w	80085a8 <_close_r>
	...

08008584 <_write_r>:
 8008584:	b538      	push	{r3, r4, r5, lr}
 8008586:	4d07      	ldr	r5, [pc, #28]	; (80085a4 <_write_r+0x20>)
 8008588:	4604      	mov	r4, r0
 800858a:	4608      	mov	r0, r1
 800858c:	4611      	mov	r1, r2
 800858e:	2200      	movs	r2, #0
 8008590:	602a      	str	r2, [r5, #0]
 8008592:	461a      	mov	r2, r3
 8008594:	f7f9 f817 	bl	80015c6 <_write>
 8008598:	1c43      	adds	r3, r0, #1
 800859a:	d102      	bne.n	80085a2 <_write_r+0x1e>
 800859c:	682b      	ldr	r3, [r5, #0]
 800859e:	b103      	cbz	r3, 80085a2 <_write_r+0x1e>
 80085a0:	6023      	str	r3, [r4, #0]
 80085a2:	bd38      	pop	{r3, r4, r5, pc}
 80085a4:	20001834 	.word	0x20001834

080085a8 <_close_r>:
 80085a8:	b538      	push	{r3, r4, r5, lr}
 80085aa:	4d06      	ldr	r5, [pc, #24]	; (80085c4 <_close_r+0x1c>)
 80085ac:	2300      	movs	r3, #0
 80085ae:	4604      	mov	r4, r0
 80085b0:	4608      	mov	r0, r1
 80085b2:	602b      	str	r3, [r5, #0]
 80085b4:	f7f9 f814 	bl	80015e0 <_close>
 80085b8:	1c43      	adds	r3, r0, #1
 80085ba:	d102      	bne.n	80085c2 <_close_r+0x1a>
 80085bc:	682b      	ldr	r3, [r5, #0]
 80085be:	b103      	cbz	r3, 80085c2 <_close_r+0x1a>
 80085c0:	6023      	str	r3, [r4, #0]
 80085c2:	bd38      	pop	{r3, r4, r5, pc}
 80085c4:	20001834 	.word	0x20001834

080085c8 <_fstat_r>:
 80085c8:	b538      	push	{r3, r4, r5, lr}
 80085ca:	4d07      	ldr	r5, [pc, #28]	; (80085e8 <_fstat_r+0x20>)
 80085cc:	2300      	movs	r3, #0
 80085ce:	4604      	mov	r4, r0
 80085d0:	4608      	mov	r0, r1
 80085d2:	4611      	mov	r1, r2
 80085d4:	602b      	str	r3, [r5, #0]
 80085d6:	f7f9 f806 	bl	80015e6 <_fstat>
 80085da:	1c43      	adds	r3, r0, #1
 80085dc:	d102      	bne.n	80085e4 <_fstat_r+0x1c>
 80085de:	682b      	ldr	r3, [r5, #0]
 80085e0:	b103      	cbz	r3, 80085e4 <_fstat_r+0x1c>
 80085e2:	6023      	str	r3, [r4, #0]
 80085e4:	bd38      	pop	{r3, r4, r5, pc}
 80085e6:	bf00      	nop
 80085e8:	20001834 	.word	0x20001834

080085ec <_isatty_r>:
 80085ec:	b538      	push	{r3, r4, r5, lr}
 80085ee:	4d06      	ldr	r5, [pc, #24]	; (8008608 <_isatty_r+0x1c>)
 80085f0:	2300      	movs	r3, #0
 80085f2:	4604      	mov	r4, r0
 80085f4:	4608      	mov	r0, r1
 80085f6:	602b      	str	r3, [r5, #0]
 80085f8:	f7f8 fffa 	bl	80015f0 <_isatty>
 80085fc:	1c43      	adds	r3, r0, #1
 80085fe:	d102      	bne.n	8008606 <_isatty_r+0x1a>
 8008600:	682b      	ldr	r3, [r5, #0]
 8008602:	b103      	cbz	r3, 8008606 <_isatty_r+0x1a>
 8008604:	6023      	str	r3, [r4, #0]
 8008606:	bd38      	pop	{r3, r4, r5, pc}
 8008608:	20001834 	.word	0x20001834

0800860c <_lseek_r>:
 800860c:	b538      	push	{r3, r4, r5, lr}
 800860e:	4d07      	ldr	r5, [pc, #28]	; (800862c <_lseek_r+0x20>)
 8008610:	4604      	mov	r4, r0
 8008612:	4608      	mov	r0, r1
 8008614:	4611      	mov	r1, r2
 8008616:	2200      	movs	r2, #0
 8008618:	602a      	str	r2, [r5, #0]
 800861a:	461a      	mov	r2, r3
 800861c:	f7f8 ffea 	bl	80015f4 <_lseek>
 8008620:	1c43      	adds	r3, r0, #1
 8008622:	d102      	bne.n	800862a <_lseek_r+0x1e>
 8008624:	682b      	ldr	r3, [r5, #0]
 8008626:	b103      	cbz	r3, 800862a <_lseek_r+0x1e>
 8008628:	6023      	str	r3, [r4, #0]
 800862a:	bd38      	pop	{r3, r4, r5, pc}
 800862c:	20001834 	.word	0x20001834

08008630 <__ascii_mbtowc>:
 8008630:	b082      	sub	sp, #8
 8008632:	b901      	cbnz	r1, 8008636 <__ascii_mbtowc+0x6>
 8008634:	a901      	add	r1, sp, #4
 8008636:	b142      	cbz	r2, 800864a <__ascii_mbtowc+0x1a>
 8008638:	b14b      	cbz	r3, 800864e <__ascii_mbtowc+0x1e>
 800863a:	7813      	ldrb	r3, [r2, #0]
 800863c:	600b      	str	r3, [r1, #0]
 800863e:	7812      	ldrb	r2, [r2, #0]
 8008640:	1e10      	subs	r0, r2, #0
 8008642:	bf18      	it	ne
 8008644:	2001      	movne	r0, #1
 8008646:	b002      	add	sp, #8
 8008648:	4770      	bx	lr
 800864a:	4610      	mov	r0, r2
 800864c:	e7fb      	b.n	8008646 <__ascii_mbtowc+0x16>
 800864e:	f06f 0001 	mvn.w	r0, #1
 8008652:	e7f8      	b.n	8008646 <__ascii_mbtowc+0x16>

08008654 <_malloc_usable_size_r>:
 8008654:	f851 3c04 	ldr.w	r3, [r1, #-4]
 8008658:	1f18      	subs	r0, r3, #4
 800865a:	2b00      	cmp	r3, #0
 800865c:	bfbc      	itt	lt
 800865e:	580b      	ldrlt	r3, [r1, r0]
 8008660:	18c0      	addlt	r0, r0, r3
 8008662:	4770      	bx	lr

08008664 <_read_r>:
 8008664:	b538      	push	{r3, r4, r5, lr}
 8008666:	4d07      	ldr	r5, [pc, #28]	; (8008684 <_read_r+0x20>)
 8008668:	4604      	mov	r4, r0
 800866a:	4608      	mov	r0, r1
 800866c:	4611      	mov	r1, r2
 800866e:	2200      	movs	r2, #0
 8008670:	602a      	str	r2, [r5, #0]
 8008672:	461a      	mov	r2, r3
 8008674:	f7f8 ff9a 	bl	80015ac <_read>
 8008678:	1c43      	adds	r3, r0, #1
 800867a:	d102      	bne.n	8008682 <_read_r+0x1e>
 800867c:	682b      	ldr	r3, [r5, #0]
 800867e:	b103      	cbz	r3, 8008682 <_read_r+0x1e>
 8008680:	6023      	str	r3, [r4, #0]
 8008682:	bd38      	pop	{r3, r4, r5, pc}
 8008684:	20001834 	.word	0x20001834

08008688 <__ascii_wctomb>:
 8008688:	b149      	cbz	r1, 800869e <__ascii_wctomb+0x16>
 800868a:	2aff      	cmp	r2, #255	; 0xff
 800868c:	bf85      	ittet	hi
 800868e:	238a      	movhi	r3, #138	; 0x8a
 8008690:	6003      	strhi	r3, [r0, #0]
 8008692:	700a      	strbls	r2, [r1, #0]
 8008694:	f04f 30ff 	movhi.w	r0, #4294967295
 8008698:	bf98      	it	ls
 800869a:	2001      	movls	r0, #1
 800869c:	4770      	bx	lr
 800869e:	4608      	mov	r0, r1
 80086a0:	4770      	bx	lr
	...

080086a4 <_init>:
 80086a4:	b5f8      	push	{r3, r4, r5, r6, r7, lr}
 80086a6:	bf00      	nop
 80086a8:	bcf8      	pop	{r3, r4, r5, r6, r7}
 80086aa:	bc08      	pop	{r3}
 80086ac:	469e      	mov	lr, r3
 80086ae:	4770      	bx	lr

080086b0 <_fini>:
 80086b0:	b5f8      	push	{r3, r4, r5, r6, r7, lr}
 80086b2:	bf00      	nop
 80086b4:	bcf8      	pop	{r3, r4, r5, r6, r7}
 80086b6:	bc08      	pop	{r3}
 80086b8:	469e      	mov	lr, r3
 80086ba:	4770      	bx	lr
